
projet_3A.elf:     file format elf32-littlearm

Sections:
Idx Name          Size      VMA       LMA       File off  Algn
  0 .isr_vector   0000018c  08000000  08000000  00010000  2**0
                  CONTENTS, ALLOC, LOAD, READONLY, DATA
  1 .text         0000a600  08000190  08000190  00010190  2**4
                  CONTENTS, ALLOC, LOAD, READONLY, CODE
  2 .rodata       000013b0  0800a790  0800a790  0001a790  2**3
                  CONTENTS, ALLOC, LOAD, READONLY, DATA
  3 .ARM.extab    00000000  0800bb40  0800bb40  000209b4  2**0
                  CONTENTS
  4 .ARM          00000008  0800bb40  0800bb40  0001bb40  2**2
                  CONTENTS, ALLOC, LOAD, READONLY, DATA
  5 .preinit_array 00000000  0800bb48  0800bb48  000209b4  2**0
                  CONTENTS, ALLOC, LOAD, DATA
  6 .init_array   00000004  0800bb48  0800bb48  0001bb48  2**2
                  CONTENTS, ALLOC, LOAD, DATA
  7 .fini_array   00000004  0800bb4c  0800bb4c  0001bb4c  2**2
                  CONTENTS, ALLOC, LOAD, DATA
  8 .data         000009b4  20000000  0800bb50  00020000  2**2
                  CONTENTS, ALLOC, LOAD, DATA
  9 .bss          000013a0  200009b4  0800c504  000209b4  2**2
                  ALLOC
 10 ._user_heap_stack 00000604  20001d54  0800c504  00021d54  2**0
                  ALLOC
 11 .ARM.attributes 00000030  00000000  00000000  000209b4  2**0
                  CONTENTS, READONLY
 12 .debug_info   0002057b  00000000  00000000  000209e4  2**0
                  CONTENTS, READONLY, DEBUGGING
 13 .debug_abbrev 00004051  00000000  00000000  00040f5f  2**0
                  CONTENTS, READONLY, DEBUGGING
 14 .debug_aranges 00001908  00000000  00000000  00044fb0  2**3
                  CONTENTS, READONLY, DEBUGGING
 15 .debug_ranges 000016f0  00000000  00000000  000468b8  2**3
                  CONTENTS, READONLY, DEBUGGING
 16 .debug_macro  000266d4  00000000  00000000  00047fa8  2**0
                  CONTENTS, READONLY, DEBUGGING
 17 .debug_line   00017497  00000000  00000000  0006e67c  2**0
                  CONTENTS, READONLY, DEBUGGING
 18 .debug_str    000e0131  00000000  00000000  00085b13  2**0
                  CONTENTS, READONLY, DEBUGGING
 19 .comment      0000007b  00000000  00000000  00165c44  2**0
                  CONTENTS, READONLY
 20 .debug_frame  0000774c  00000000  00000000  00165cc0  2**2
                  CONTENTS, READONLY, DEBUGGING

Disassembly of section .text:

08000190 <__do_global_dtors_aux>:
 8000190:	b510      	push	{r4, lr}
 8000192:	4c05      	ldr	r4, [pc, #20]	; (80001a8 <__do_global_dtors_aux+0x18>)
 8000194:	7823      	ldrb	r3, [r4, #0]
 8000196:	b933      	cbnz	r3, 80001a6 <__do_global_dtors_aux+0x16>
 8000198:	4b04      	ldr	r3, [pc, #16]	; (80001ac <__do_global_dtors_aux+0x1c>)
 800019a:	b113      	cbz	r3, 80001a2 <__do_global_dtors_aux+0x12>
 800019c:	4804      	ldr	r0, [pc, #16]	; (80001b0 <__do_global_dtors_aux+0x20>)
 800019e:	f3af 8000 	nop.w
 80001a2:	2301      	movs	r3, #1
 80001a4:	7023      	strb	r3, [r4, #0]
 80001a6:	bd10      	pop	{r4, pc}
 80001a8:	200009b4 	.word	0x200009b4
 80001ac:	00000000 	.word	0x00000000
 80001b0:	0800a778 	.word	0x0800a778

080001b4 <frame_dummy>:
 80001b4:	b508      	push	{r3, lr}
 80001b6:	4b03      	ldr	r3, [pc, #12]	; (80001c4 <frame_dummy+0x10>)
 80001b8:	b11b      	cbz	r3, 80001c2 <frame_dummy+0xe>
 80001ba:	4903      	ldr	r1, [pc, #12]	; (80001c8 <frame_dummy+0x14>)
 80001bc:	4803      	ldr	r0, [pc, #12]	; (80001cc <frame_dummy+0x18>)
 80001be:	f3af 8000 	nop.w
 80001c2:	bd08      	pop	{r3, pc}
 80001c4:	00000000 	.word	0x00000000
 80001c8:	200009b8 	.word	0x200009b8
 80001cc:	0800a778 	.word	0x0800a778

080001d0 <strlen>:
 80001d0:	4603      	mov	r3, r0
 80001d2:	f813 2b01 	ldrb.w	r2, [r3], #1
 80001d6:	2a00      	cmp	r2, #0
 80001d8:	d1fb      	bne.n	80001d2 <strlen+0x2>
 80001da:	1a18      	subs	r0, r3, r0
 80001dc:	3801      	subs	r0, #1
 80001de:	4770      	bx	lr

080001e0 <memchr>:
 80001e0:	f001 01ff 	and.w	r1, r1, #255	; 0xff
 80001e4:	2a10      	cmp	r2, #16
 80001e6:	db2b      	blt.n	8000240 <memchr+0x60>
 80001e8:	f010 0f07 	tst.w	r0, #7
 80001ec:	d008      	beq.n	8000200 <memchr+0x20>
 80001ee:	f810 3b01 	ldrb.w	r3, [r0], #1
 80001f2:	3a01      	subs	r2, #1
 80001f4:	428b      	cmp	r3, r1
 80001f6:	d02d      	beq.n	8000254 <memchr+0x74>
 80001f8:	f010 0f07 	tst.w	r0, #7
 80001fc:	b342      	cbz	r2, 8000250 <memchr+0x70>
 80001fe:	d1f6      	bne.n	80001ee <memchr+0xe>
 8000200:	b4f0      	push	{r4, r5, r6, r7}
 8000202:	ea41 2101 	orr.w	r1, r1, r1, lsl #8
 8000206:	ea41 4101 	orr.w	r1, r1, r1, lsl #16
 800020a:	f022 0407 	bic.w	r4, r2, #7
 800020e:	f07f 0700 	mvns.w	r7, #0
 8000212:	2300      	movs	r3, #0
 8000214:	e8f0 5602 	ldrd	r5, r6, [r0], #8
 8000218:	3c08      	subs	r4, #8
 800021a:	ea85 0501 	eor.w	r5, r5, r1
 800021e:	ea86 0601 	eor.w	r6, r6, r1
 8000222:	fa85 f547 	uadd8	r5, r5, r7
 8000226:	faa3 f587 	sel	r5, r3, r7
 800022a:	fa86 f647 	uadd8	r6, r6, r7
 800022e:	faa5 f687 	sel	r6, r5, r7
 8000232:	b98e      	cbnz	r6, 8000258 <memchr+0x78>
 8000234:	d1ee      	bne.n	8000214 <memchr+0x34>
 8000236:	bcf0      	pop	{r4, r5, r6, r7}
 8000238:	f001 01ff 	and.w	r1, r1, #255	; 0xff
 800023c:	f002 0207 	and.w	r2, r2, #7
 8000240:	b132      	cbz	r2, 8000250 <memchr+0x70>
 8000242:	f810 3b01 	ldrb.w	r3, [r0], #1
 8000246:	3a01      	subs	r2, #1
 8000248:	ea83 0301 	eor.w	r3, r3, r1
 800024c:	b113      	cbz	r3, 8000254 <memchr+0x74>
 800024e:	d1f8      	bne.n	8000242 <memchr+0x62>
 8000250:	2000      	movs	r0, #0
 8000252:	4770      	bx	lr
 8000254:	3801      	subs	r0, #1
 8000256:	4770      	bx	lr
 8000258:	2d00      	cmp	r5, #0
 800025a:	bf06      	itte	eq
 800025c:	4635      	moveq	r5, r6
 800025e:	3803      	subeq	r0, #3
 8000260:	3807      	subne	r0, #7
 8000262:	f015 0f01 	tst.w	r5, #1
 8000266:	d107      	bne.n	8000278 <memchr+0x98>
 8000268:	3001      	adds	r0, #1
 800026a:	f415 7f80 	tst.w	r5, #256	; 0x100
 800026e:	bf02      	ittt	eq
 8000270:	3001      	addeq	r0, #1
 8000272:	f415 3fc0 	tsteq.w	r5, #98304	; 0x18000
 8000276:	3001      	addeq	r0, #1
 8000278:	bcf0      	pop	{r4, r5, r6, r7}
 800027a:	3801      	subs	r0, #1
 800027c:	4770      	bx	lr
 800027e:	bf00      	nop

08000280 <__aeabi_drsub>:
 8000280:	f081 4100 	eor.w	r1, r1, #2147483648	; 0x80000000
 8000284:	e002      	b.n	800028c <__adddf3>
 8000286:	bf00      	nop

08000288 <__aeabi_dsub>:
 8000288:	f083 4300 	eor.w	r3, r3, #2147483648	; 0x80000000

0800028c <__adddf3>:
 800028c:	b530      	push	{r4, r5, lr}
 800028e:	ea4f 0441 	mov.w	r4, r1, lsl #1
 8000292:	ea4f 0543 	mov.w	r5, r3, lsl #1
 8000296:	ea94 0f05 	teq	r4, r5
 800029a:	bf08      	it	eq
 800029c:	ea90 0f02 	teqeq	r0, r2
 80002a0:	bf1f      	itttt	ne
 80002a2:	ea54 0c00 	orrsne.w	ip, r4, r0
 80002a6:	ea55 0c02 	orrsne.w	ip, r5, r2
 80002aa:	ea7f 5c64 	mvnsne.w	ip, r4, asr #21
 80002ae:	ea7f 5c65 	mvnsne.w	ip, r5, asr #21
 80002b2:	f000 80e2 	beq.w	800047a <__adddf3+0x1ee>
 80002b6:	ea4f 5454 	mov.w	r4, r4, lsr #21
 80002ba:	ebd4 5555 	rsbs	r5, r4, r5, lsr #21
 80002be:	bfb8      	it	lt
 80002c0:	426d      	neglt	r5, r5
 80002c2:	dd0c      	ble.n	80002de <__adddf3+0x52>
 80002c4:	442c      	add	r4, r5
 80002c6:	ea80 0202 	eor.w	r2, r0, r2
 80002ca:	ea81 0303 	eor.w	r3, r1, r3
 80002ce:	ea82 0000 	eor.w	r0, r2, r0
 80002d2:	ea83 0101 	eor.w	r1, r3, r1
 80002d6:	ea80 0202 	eor.w	r2, r0, r2
 80002da:	ea81 0303 	eor.w	r3, r1, r3
 80002de:	2d36      	cmp	r5, #54	; 0x36
 80002e0:	bf88      	it	hi
 80002e2:	bd30      	pophi	{r4, r5, pc}
 80002e4:	f011 4f00 	tst.w	r1, #2147483648	; 0x80000000
 80002e8:	ea4f 3101 	mov.w	r1, r1, lsl #12
 80002ec:	f44f 1c80 	mov.w	ip, #1048576	; 0x100000
 80002f0:	ea4c 3111 	orr.w	r1, ip, r1, lsr #12
 80002f4:	d002      	beq.n	80002fc <__adddf3+0x70>
 80002f6:	4240      	negs	r0, r0
 80002f8:	eb61 0141 	sbc.w	r1, r1, r1, lsl #1
 80002fc:	f013 4f00 	tst.w	r3, #2147483648	; 0x80000000
 8000300:	ea4f 3303 	mov.w	r3, r3, lsl #12
 8000304:	ea4c 3313 	orr.w	r3, ip, r3, lsr #12
 8000308:	d002      	beq.n	8000310 <__adddf3+0x84>
 800030a:	4252      	negs	r2, r2
 800030c:	eb63 0343 	sbc.w	r3, r3, r3, lsl #1
 8000310:	ea94 0f05 	teq	r4, r5
 8000314:	f000 80a7 	beq.w	8000466 <__adddf3+0x1da>
 8000318:	f1a4 0401 	sub.w	r4, r4, #1
 800031c:	f1d5 0e20 	rsbs	lr, r5, #32
 8000320:	db0d      	blt.n	800033e <__adddf3+0xb2>
 8000322:	fa02 fc0e 	lsl.w	ip, r2, lr
 8000326:	fa22 f205 	lsr.w	r2, r2, r5
 800032a:	1880      	adds	r0, r0, r2
 800032c:	f141 0100 	adc.w	r1, r1, #0
 8000330:	fa03 f20e 	lsl.w	r2, r3, lr
 8000334:	1880      	adds	r0, r0, r2
 8000336:	fa43 f305 	asr.w	r3, r3, r5
 800033a:	4159      	adcs	r1, r3
 800033c:	e00e      	b.n	800035c <__adddf3+0xd0>
 800033e:	f1a5 0520 	sub.w	r5, r5, #32
 8000342:	f10e 0e20 	add.w	lr, lr, #32
 8000346:	2a01      	cmp	r2, #1
 8000348:	fa03 fc0e 	lsl.w	ip, r3, lr
 800034c:	bf28      	it	cs
 800034e:	f04c 0c02 	orrcs.w	ip, ip, #2
 8000352:	fa43 f305 	asr.w	r3, r3, r5
 8000356:	18c0      	adds	r0, r0, r3
 8000358:	eb51 71e3 	adcs.w	r1, r1, r3, asr #31
 800035c:	f001 4500 	and.w	r5, r1, #2147483648	; 0x80000000
 8000360:	d507      	bpl.n	8000372 <__adddf3+0xe6>
 8000362:	f04f 0e00 	mov.w	lr, #0
 8000366:	f1dc 0c00 	rsbs	ip, ip, #0
 800036a:	eb7e 0000 	sbcs.w	r0, lr, r0
 800036e:	eb6e 0101 	sbc.w	r1, lr, r1
 8000372:	f5b1 1f80 	cmp.w	r1, #1048576	; 0x100000
 8000376:	d31b      	bcc.n	80003b0 <__adddf3+0x124>
 8000378:	f5b1 1f00 	cmp.w	r1, #2097152	; 0x200000
 800037c:	d30c      	bcc.n	8000398 <__adddf3+0x10c>
 800037e:	0849      	lsrs	r1, r1, #1
 8000380:	ea5f 0030 	movs.w	r0, r0, rrx
 8000384:	ea4f 0c3c 	mov.w	ip, ip, rrx
 8000388:	f104 0401 	add.w	r4, r4, #1
 800038c:	ea4f 5244 	mov.w	r2, r4, lsl #21
 8000390:	f512 0f80 	cmn.w	r2, #4194304	; 0x400000
 8000394:	f080 809a 	bcs.w	80004cc <__adddf3+0x240>
 8000398:	f1bc 4f00 	cmp.w	ip, #2147483648	; 0x80000000
 800039c:	bf08      	it	eq
 800039e:	ea5f 0c50 	movseq.w	ip, r0, lsr #1
 80003a2:	f150 0000 	adcs.w	r0, r0, #0
 80003a6:	eb41 5104 	adc.w	r1, r1, r4, lsl #20
 80003aa:	ea41 0105 	orr.w	r1, r1, r5
 80003ae:	bd30      	pop	{r4, r5, pc}
 80003b0:	ea5f 0c4c 	movs.w	ip, ip, lsl #1
 80003b4:	4140      	adcs	r0, r0
 80003b6:	eb41 0101 	adc.w	r1, r1, r1
 80003ba:	f411 1f80 	tst.w	r1, #1048576	; 0x100000
 80003be:	f1a4 0401 	sub.w	r4, r4, #1
 80003c2:	d1e9      	bne.n	8000398 <__adddf3+0x10c>
 80003c4:	f091 0f00 	teq	r1, #0
 80003c8:	bf04      	itt	eq
 80003ca:	4601      	moveq	r1, r0
 80003cc:	2000      	moveq	r0, #0
 80003ce:	fab1 f381 	clz	r3, r1
 80003d2:	bf08      	it	eq
 80003d4:	3320      	addeq	r3, #32
 80003d6:	f1a3 030b 	sub.w	r3, r3, #11
 80003da:	f1b3 0220 	subs.w	r2, r3, #32
 80003de:	da0c      	bge.n	80003fa <__adddf3+0x16e>
 80003e0:	320c      	adds	r2, #12
 80003e2:	dd08      	ble.n	80003f6 <__adddf3+0x16a>
 80003e4:	f102 0c14 	add.w	ip, r2, #20
 80003e8:	f1c2 020c 	rsb	r2, r2, #12
 80003ec:	fa01 f00c 	lsl.w	r0, r1, ip
 80003f0:	fa21 f102 	lsr.w	r1, r1, r2
 80003f4:	e00c      	b.n	8000410 <__adddf3+0x184>
 80003f6:	f102 0214 	add.w	r2, r2, #20
 80003fa:	bfd8      	it	le
 80003fc:	f1c2 0c20 	rsble	ip, r2, #32
 8000400:	fa01 f102 	lsl.w	r1, r1, r2
 8000404:	fa20 fc0c 	lsr.w	ip, r0, ip
 8000408:	bfdc      	itt	le
 800040a:	ea41 010c 	orrle.w	r1, r1, ip
 800040e:	4090      	lslle	r0, r2
 8000410:	1ae4      	subs	r4, r4, r3
 8000412:	bfa2      	ittt	ge
 8000414:	eb01 5104 	addge.w	r1, r1, r4, lsl #20
 8000418:	4329      	orrge	r1, r5
 800041a:	bd30      	popge	{r4, r5, pc}
 800041c:	ea6f 0404 	mvn.w	r4, r4
 8000420:	3c1f      	subs	r4, #31
 8000422:	da1c      	bge.n	800045e <__adddf3+0x1d2>
 8000424:	340c      	adds	r4, #12
 8000426:	dc0e      	bgt.n	8000446 <__adddf3+0x1ba>
 8000428:	f104 0414 	add.w	r4, r4, #20
 800042c:	f1c4 0220 	rsb	r2, r4, #32
 8000430:	fa20 f004 	lsr.w	r0, r0, r4
 8000434:	fa01 f302 	lsl.w	r3, r1, r2
 8000438:	ea40 0003 	orr.w	r0, r0, r3
 800043c:	fa21 f304 	lsr.w	r3, r1, r4
 8000440:	ea45 0103 	orr.w	r1, r5, r3
 8000444:	bd30      	pop	{r4, r5, pc}
 8000446:	f1c4 040c 	rsb	r4, r4, #12
 800044a:	f1c4 0220 	rsb	r2, r4, #32
 800044e:	fa20 f002 	lsr.w	r0, r0, r2
 8000452:	fa01 f304 	lsl.w	r3, r1, r4
 8000456:	ea40 0003 	orr.w	r0, r0, r3
 800045a:	4629      	mov	r1, r5
 800045c:	bd30      	pop	{r4, r5, pc}
 800045e:	fa21 f004 	lsr.w	r0, r1, r4
 8000462:	4629      	mov	r1, r5
 8000464:	bd30      	pop	{r4, r5, pc}
 8000466:	f094 0f00 	teq	r4, #0
 800046a:	f483 1380 	eor.w	r3, r3, #1048576	; 0x100000
 800046e:	bf06      	itte	eq
 8000470:	f481 1180 	eoreq.w	r1, r1, #1048576	; 0x100000
 8000474:	3401      	addeq	r4, #1
 8000476:	3d01      	subne	r5, #1
 8000478:	e74e      	b.n	8000318 <__adddf3+0x8c>
 800047a:	ea7f 5c64 	mvns.w	ip, r4, asr #21
 800047e:	bf18      	it	ne
 8000480:	ea7f 5c65 	mvnsne.w	ip, r5, asr #21
 8000484:	d029      	beq.n	80004da <__adddf3+0x24e>
 8000486:	ea94 0f05 	teq	r4, r5
 800048a:	bf08      	it	eq
 800048c:	ea90 0f02 	teqeq	r0, r2
 8000490:	d005      	beq.n	800049e <__adddf3+0x212>
 8000492:	ea54 0c00 	orrs.w	ip, r4, r0
 8000496:	bf04      	itt	eq
 8000498:	4619      	moveq	r1, r3
 800049a:	4610      	moveq	r0, r2
 800049c:	bd30      	pop	{r4, r5, pc}
 800049e:	ea91 0f03 	teq	r1, r3
 80004a2:	bf1e      	ittt	ne
 80004a4:	2100      	movne	r1, #0
 80004a6:	2000      	movne	r0, #0
 80004a8:	bd30      	popne	{r4, r5, pc}
 80004aa:	ea5f 5c54 	movs.w	ip, r4, lsr #21
 80004ae:	d105      	bne.n	80004bc <__adddf3+0x230>
 80004b0:	0040      	lsls	r0, r0, #1
 80004b2:	4149      	adcs	r1, r1
 80004b4:	bf28      	it	cs
 80004b6:	f041 4100 	orrcs.w	r1, r1, #2147483648	; 0x80000000
 80004ba:	bd30      	pop	{r4, r5, pc}
 80004bc:	f514 0480 	adds.w	r4, r4, #4194304	; 0x400000
 80004c0:	bf3c      	itt	cc
 80004c2:	f501 1180 	addcc.w	r1, r1, #1048576	; 0x100000
 80004c6:	bd30      	popcc	{r4, r5, pc}
 80004c8:	f001 4500 	and.w	r5, r1, #2147483648	; 0x80000000
 80004cc:	f045 41fe 	orr.w	r1, r5, #2130706432	; 0x7f000000
 80004d0:	f441 0170 	orr.w	r1, r1, #15728640	; 0xf00000
 80004d4:	f04f 0000 	mov.w	r0, #0
 80004d8:	bd30      	pop	{r4, r5, pc}
 80004da:	ea7f 5c64 	mvns.w	ip, r4, asr #21
 80004de:	bf1a      	itte	ne
 80004e0:	4619      	movne	r1, r3
 80004e2:	4610      	movne	r0, r2
 80004e4:	ea7f 5c65 	mvnseq.w	ip, r5, asr #21
 80004e8:	bf1c      	itt	ne
 80004ea:	460b      	movne	r3, r1
 80004ec:	4602      	movne	r2, r0
 80004ee:	ea50 3401 	orrs.w	r4, r0, r1, lsl #12
 80004f2:	bf06      	itte	eq
 80004f4:	ea52 3503 	orrseq.w	r5, r2, r3, lsl #12
 80004f8:	ea91 0f03 	teqeq	r1, r3
 80004fc:	f441 2100 	orrne.w	r1, r1, #524288	; 0x80000
 8000500:	bd30      	pop	{r4, r5, pc}
 8000502:	bf00      	nop

08000504 <__aeabi_ui2d>:
 8000504:	f090 0f00 	teq	r0, #0
 8000508:	bf04      	itt	eq
 800050a:	2100      	moveq	r1, #0
 800050c:	4770      	bxeq	lr
 800050e:	b530      	push	{r4, r5, lr}
 8000510:	f44f 6480 	mov.w	r4, #1024	; 0x400
 8000514:	f104 0432 	add.w	r4, r4, #50	; 0x32
 8000518:	f04f 0500 	mov.w	r5, #0
 800051c:	f04f 0100 	mov.w	r1, #0
 8000520:	e750      	b.n	80003c4 <__adddf3+0x138>
 8000522:	bf00      	nop

08000524 <__aeabi_i2d>:
 8000524:	f090 0f00 	teq	r0, #0
 8000528:	bf04      	itt	eq
 800052a:	2100      	moveq	r1, #0
 800052c:	4770      	bxeq	lr
 800052e:	b530      	push	{r4, r5, lr}
 8000530:	f44f 6480 	mov.w	r4, #1024	; 0x400
 8000534:	f104 0432 	add.w	r4, r4, #50	; 0x32
 8000538:	f010 4500 	ands.w	r5, r0, #2147483648	; 0x80000000
 800053c:	bf48      	it	mi
 800053e:	4240      	negmi	r0, r0
 8000540:	f04f 0100 	mov.w	r1, #0
 8000544:	e73e      	b.n	80003c4 <__adddf3+0x138>
 8000546:	bf00      	nop

08000548 <__aeabi_f2d>:
 8000548:	0042      	lsls	r2, r0, #1
 800054a:	ea4f 01e2 	mov.w	r1, r2, asr #3
 800054e:	ea4f 0131 	mov.w	r1, r1, rrx
 8000552:	ea4f 7002 	mov.w	r0, r2, lsl #28
 8000556:	bf1f      	itttt	ne
 8000558:	f012 437f 	andsne.w	r3, r2, #4278190080	; 0xff000000
 800055c:	f093 4f7f 	teqne	r3, #4278190080	; 0xff000000
 8000560:	f081 5160 	eorne.w	r1, r1, #939524096	; 0x38000000
 8000564:	4770      	bxne	lr
 8000566:	f032 427f 	bics.w	r2, r2, #4278190080	; 0xff000000
 800056a:	bf08      	it	eq
 800056c:	4770      	bxeq	lr
 800056e:	f093 4f7f 	teq	r3, #4278190080	; 0xff000000
 8000572:	bf04      	itt	eq
 8000574:	f441 2100 	orreq.w	r1, r1, #524288	; 0x80000
 8000578:	4770      	bxeq	lr
 800057a:	b530      	push	{r4, r5, lr}
 800057c:	f44f 7460 	mov.w	r4, #896	; 0x380
 8000580:	f001 4500 	and.w	r5, r1, #2147483648	; 0x80000000
 8000584:	f021 4100 	bic.w	r1, r1, #2147483648	; 0x80000000
 8000588:	e71c      	b.n	80003c4 <__adddf3+0x138>
 800058a:	bf00      	nop

0800058c <__aeabi_ul2d>:
 800058c:	ea50 0201 	orrs.w	r2, r0, r1
 8000590:	bf08      	it	eq
 8000592:	4770      	bxeq	lr
 8000594:	b530      	push	{r4, r5, lr}
 8000596:	f04f 0500 	mov.w	r5, #0
 800059a:	e00a      	b.n	80005b2 <__aeabi_l2d+0x16>

0800059c <__aeabi_l2d>:
 800059c:	ea50 0201 	orrs.w	r2, r0, r1
 80005a0:	bf08      	it	eq
 80005a2:	4770      	bxeq	lr
 80005a4:	b530      	push	{r4, r5, lr}
 80005a6:	f011 4500 	ands.w	r5, r1, #2147483648	; 0x80000000
 80005aa:	d502      	bpl.n	80005b2 <__aeabi_l2d+0x16>
 80005ac:	4240      	negs	r0, r0
 80005ae:	eb61 0141 	sbc.w	r1, r1, r1, lsl #1
 80005b2:	f44f 6480 	mov.w	r4, #1024	; 0x400
 80005b6:	f104 0432 	add.w	r4, r4, #50	; 0x32
 80005ba:	ea5f 5c91 	movs.w	ip, r1, lsr #22
 80005be:	f43f aed8 	beq.w	8000372 <__adddf3+0xe6>
 80005c2:	f04f 0203 	mov.w	r2, #3
 80005c6:	ea5f 0cdc 	movs.w	ip, ip, lsr #3
 80005ca:	bf18      	it	ne
 80005cc:	3203      	addne	r2, #3
 80005ce:	ea5f 0cdc 	movs.w	ip, ip, lsr #3
 80005d2:	bf18      	it	ne
 80005d4:	3203      	addne	r2, #3
 80005d6:	eb02 02dc 	add.w	r2, r2, ip, lsr #3
 80005da:	f1c2 0320 	rsb	r3, r2, #32
 80005de:	fa00 fc03 	lsl.w	ip, r0, r3
 80005e2:	fa20 f002 	lsr.w	r0, r0, r2
 80005e6:	fa01 fe03 	lsl.w	lr, r1, r3
 80005ea:	ea40 000e 	orr.w	r0, r0, lr
 80005ee:	fa21 f102 	lsr.w	r1, r1, r2
 80005f2:	4414      	add	r4, r2
 80005f4:	e6bd      	b.n	8000372 <__adddf3+0xe6>
 80005f6:	bf00      	nop

080005f8 <__aeabi_dmul>:
 80005f8:	b570      	push	{r4, r5, r6, lr}
 80005fa:	f04f 0cff 	mov.w	ip, #255	; 0xff
 80005fe:	f44c 6ce0 	orr.w	ip, ip, #1792	; 0x700
 8000602:	ea1c 5411 	ands.w	r4, ip, r1, lsr #20
 8000606:	bf1d      	ittte	ne
 8000608:	ea1c 5513 	andsne.w	r5, ip, r3, lsr #20
 800060c:	ea94 0f0c 	teqne	r4, ip
 8000610:	ea95 0f0c 	teqne	r5, ip
 8000614:	f000 f8de 	bleq	80007d4 <__aeabi_dmul+0x1dc>
 8000618:	442c      	add	r4, r5
 800061a:	ea81 0603 	eor.w	r6, r1, r3
 800061e:	ea21 514c 	bic.w	r1, r1, ip, lsl #21
 8000622:	ea23 534c 	bic.w	r3, r3, ip, lsl #21
 8000626:	ea50 3501 	orrs.w	r5, r0, r1, lsl #12
 800062a:	bf18      	it	ne
 800062c:	ea52 3503 	orrsne.w	r5, r2, r3, lsl #12
 8000630:	f441 1180 	orr.w	r1, r1, #1048576	; 0x100000
 8000634:	f443 1380 	orr.w	r3, r3, #1048576	; 0x100000
 8000638:	d038      	beq.n	80006ac <__aeabi_dmul+0xb4>
 800063a:	fba0 ce02 	umull	ip, lr, r0, r2
 800063e:	f04f 0500 	mov.w	r5, #0
 8000642:	fbe1 e502 	umlal	lr, r5, r1, r2
 8000646:	f006 4200 	and.w	r2, r6, #2147483648	; 0x80000000
 800064a:	fbe0 e503 	umlal	lr, r5, r0, r3
 800064e:	f04f 0600 	mov.w	r6, #0
 8000652:	fbe1 5603 	umlal	r5, r6, r1, r3
 8000656:	f09c 0f00 	teq	ip, #0
 800065a:	bf18      	it	ne
 800065c:	f04e 0e01 	orrne.w	lr, lr, #1
 8000660:	f1a4 04ff 	sub.w	r4, r4, #255	; 0xff
 8000664:	f5b6 7f00 	cmp.w	r6, #512	; 0x200
 8000668:	f564 7440 	sbc.w	r4, r4, #768	; 0x300
 800066c:	d204      	bcs.n	8000678 <__aeabi_dmul+0x80>
 800066e:	ea5f 0e4e 	movs.w	lr, lr, lsl #1
 8000672:	416d      	adcs	r5, r5
 8000674:	eb46 0606 	adc.w	r6, r6, r6
 8000678:	ea42 21c6 	orr.w	r1, r2, r6, lsl #11
 800067c:	ea41 5155 	orr.w	r1, r1, r5, lsr #21
 8000680:	ea4f 20c5 	mov.w	r0, r5, lsl #11
 8000684:	ea40 505e 	orr.w	r0, r0, lr, lsr #21
 8000688:	ea4f 2ece 	mov.w	lr, lr, lsl #11
 800068c:	f1b4 0cfd 	subs.w	ip, r4, #253	; 0xfd
 8000690:	bf88      	it	hi
 8000692:	f5bc 6fe0 	cmphi.w	ip, #1792	; 0x700
 8000696:	d81e      	bhi.n	80006d6 <__aeabi_dmul+0xde>
 8000698:	f1be 4f00 	cmp.w	lr, #2147483648	; 0x80000000
 800069c:	bf08      	it	eq
 800069e:	ea5f 0e50 	movseq.w	lr, r0, lsr #1
 80006a2:	f150 0000 	adcs.w	r0, r0, #0
 80006a6:	eb41 5104 	adc.w	r1, r1, r4, lsl #20
 80006aa:	bd70      	pop	{r4, r5, r6, pc}
 80006ac:	f006 4600 	and.w	r6, r6, #2147483648	; 0x80000000
 80006b0:	ea46 0101 	orr.w	r1, r6, r1
 80006b4:	ea40 0002 	orr.w	r0, r0, r2
 80006b8:	ea81 0103 	eor.w	r1, r1, r3
 80006bc:	ebb4 045c 	subs.w	r4, r4, ip, lsr #1
 80006c0:	bfc2      	ittt	gt
 80006c2:	ebd4 050c 	rsbsgt	r5, r4, ip
 80006c6:	ea41 5104 	orrgt.w	r1, r1, r4, lsl #20
 80006ca:	bd70      	popgt	{r4, r5, r6, pc}
 80006cc:	f441 1180 	orr.w	r1, r1, #1048576	; 0x100000
 80006d0:	f04f 0e00 	mov.w	lr, #0
 80006d4:	3c01      	subs	r4, #1
 80006d6:	f300 80ab 	bgt.w	8000830 <__aeabi_dmul+0x238>
 80006da:	f114 0f36 	cmn.w	r4, #54	; 0x36
 80006de:	bfde      	ittt	le
 80006e0:	2000      	movle	r0, #0
 80006e2:	f001 4100 	andle.w	r1, r1, #2147483648	; 0x80000000
 80006e6:	bd70      	pople	{r4, r5, r6, pc}
 80006e8:	f1c4 0400 	rsb	r4, r4, #0
 80006ec:	3c20      	subs	r4, #32
 80006ee:	da35      	bge.n	800075c <__aeabi_dmul+0x164>
 80006f0:	340c      	adds	r4, #12
 80006f2:	dc1b      	bgt.n	800072c <__aeabi_dmul+0x134>
 80006f4:	f104 0414 	add.w	r4, r4, #20
 80006f8:	f1c4 0520 	rsb	r5, r4, #32
 80006fc:	fa00 f305 	lsl.w	r3, r0, r5
 8000700:	fa20 f004 	lsr.w	r0, r0, r4
 8000704:	fa01 f205 	lsl.w	r2, r1, r5
 8000708:	ea40 0002 	orr.w	r0, r0, r2
 800070c:	f001 4200 	and.w	r2, r1, #2147483648	; 0x80000000
 8000710:	f021 4100 	bic.w	r1, r1, #2147483648	; 0x80000000
 8000714:	eb10 70d3 	adds.w	r0, r0, r3, lsr #31
 8000718:	fa21 f604 	lsr.w	r6, r1, r4
 800071c:	eb42 0106 	adc.w	r1, r2, r6
 8000720:	ea5e 0e43 	orrs.w	lr, lr, r3, lsl #1
 8000724:	bf08      	it	eq
 8000726:	ea20 70d3 	biceq.w	r0, r0, r3, lsr #31
 800072a:	bd70      	pop	{r4, r5, r6, pc}
 800072c:	f1c4 040c 	rsb	r4, r4, #12
 8000730:	f1c4 0520 	rsb	r5, r4, #32
 8000734:	fa00 f304 	lsl.w	r3, r0, r4
 8000738:	fa20 f005 	lsr.w	r0, r0, r5
 800073c:	fa01 f204 	lsl.w	r2, r1, r4
 8000740:	ea40 0002 	orr.w	r0, r0, r2
 8000744:	f001 4100 	and.w	r1, r1, #2147483648	; 0x80000000
 8000748:	eb10 70d3 	adds.w	r0, r0, r3, lsr #31
 800074c:	f141 0100 	adc.w	r1, r1, #0
 8000750:	ea5e 0e43 	orrs.w	lr, lr, r3, lsl #1
 8000754:	bf08      	it	eq
 8000756:	ea20 70d3 	biceq.w	r0, r0, r3, lsr #31
 800075a:	bd70      	pop	{r4, r5, r6, pc}
 800075c:	f1c4 0520 	rsb	r5, r4, #32
 8000760:	fa00 f205 	lsl.w	r2, r0, r5
 8000764:	ea4e 0e02 	orr.w	lr, lr, r2
 8000768:	fa20 f304 	lsr.w	r3, r0, r4
 800076c:	fa01 f205 	lsl.w	r2, r1, r5
 8000770:	ea43 0302 	orr.w	r3, r3, r2
 8000774:	fa21 f004 	lsr.w	r0, r1, r4
 8000778:	f001 4100 	and.w	r1, r1, #2147483648	; 0x80000000
 800077c:	fa21 f204 	lsr.w	r2, r1, r4
 8000780:	ea20 0002 	bic.w	r0, r0, r2
 8000784:	eb00 70d3 	add.w	r0, r0, r3, lsr #31
 8000788:	ea5e 0e43 	orrs.w	lr, lr, r3, lsl #1
 800078c:	bf08      	it	eq
 800078e:	ea20 70d3 	biceq.w	r0, r0, r3, lsr #31
 8000792:	bd70      	pop	{r4, r5, r6, pc}
 8000794:	f094 0f00 	teq	r4, #0
 8000798:	d10f      	bne.n	80007ba <__aeabi_dmul+0x1c2>
 800079a:	f001 4600 	and.w	r6, r1, #2147483648	; 0x80000000
 800079e:	0040      	lsls	r0, r0, #1
 80007a0:	eb41 0101 	adc.w	r1, r1, r1
 80007a4:	f411 1f80 	tst.w	r1, #1048576	; 0x100000
 80007a8:	bf08      	it	eq
 80007aa:	3c01      	subeq	r4, #1
 80007ac:	d0f7      	beq.n	800079e <__aeabi_dmul+0x1a6>
 80007ae:	ea41 0106 	orr.w	r1, r1, r6
 80007b2:	f095 0f00 	teq	r5, #0
 80007b6:	bf18      	it	ne
 80007b8:	4770      	bxne	lr
 80007ba:	f003 4600 	and.w	r6, r3, #2147483648	; 0x80000000
 80007be:	0052      	lsls	r2, r2, #1
 80007c0:	eb43 0303 	adc.w	r3, r3, r3
 80007c4:	f413 1f80 	tst.w	r3, #1048576	; 0x100000
 80007c8:	bf08      	it	eq
 80007ca:	3d01      	subeq	r5, #1
 80007cc:	d0f7      	beq.n	80007be <__aeabi_dmul+0x1c6>
 80007ce:	ea43 0306 	orr.w	r3, r3, r6
 80007d2:	4770      	bx	lr
 80007d4:	ea94 0f0c 	teq	r4, ip
 80007d8:	ea0c 5513 	and.w	r5, ip, r3, lsr #20
 80007dc:	bf18      	it	ne
 80007de:	ea95 0f0c 	teqne	r5, ip
 80007e2:	d00c      	beq.n	80007fe <__aeabi_dmul+0x206>
 80007e4:	ea50 0641 	orrs.w	r6, r0, r1, lsl #1
 80007e8:	bf18      	it	ne
 80007ea:	ea52 0643 	orrsne.w	r6, r2, r3, lsl #1
 80007ee:	d1d1      	bne.n	8000794 <__aeabi_dmul+0x19c>
 80007f0:	ea81 0103 	eor.w	r1, r1, r3
 80007f4:	f001 4100 	and.w	r1, r1, #2147483648	; 0x80000000
 80007f8:	f04f 0000 	mov.w	r0, #0
 80007fc:	bd70      	pop	{r4, r5, r6, pc}
 80007fe:	ea50 0641 	orrs.w	r6, r0, r1, lsl #1
 8000802:	bf06      	itte	eq
 8000804:	4610      	moveq	r0, r2
 8000806:	4619      	moveq	r1, r3
 8000808:	ea52 0643 	orrsne.w	r6, r2, r3, lsl #1
 800080c:	d019      	beq.n	8000842 <__aeabi_dmul+0x24a>
 800080e:	ea94 0f0c 	teq	r4, ip
 8000812:	d102      	bne.n	800081a <__aeabi_dmul+0x222>
 8000814:	ea50 3601 	orrs.w	r6, r0, r1, lsl #12
 8000818:	d113      	bne.n	8000842 <__aeabi_dmul+0x24a>
 800081a:	ea95 0f0c 	teq	r5, ip
 800081e:	d105      	bne.n	800082c <__aeabi_dmul+0x234>
 8000820:	ea52 3603 	orrs.w	r6, r2, r3, lsl #12
 8000824:	bf1c      	itt	ne
 8000826:	4610      	movne	r0, r2
 8000828:	4619      	movne	r1, r3
 800082a:	d10a      	bne.n	8000842 <__aeabi_dmul+0x24a>
 800082c:	ea81 0103 	eor.w	r1, r1, r3
 8000830:	f001 4100 	and.w	r1, r1, #2147483648	; 0x80000000
 8000834:	f041 41fe 	orr.w	r1, r1, #2130706432	; 0x7f000000
 8000838:	f441 0170 	orr.w	r1, r1, #15728640	; 0xf00000
 800083c:	f04f 0000 	mov.w	r0, #0
 8000840:	bd70      	pop	{r4, r5, r6, pc}
 8000842:	f041 41fe 	orr.w	r1, r1, #2130706432	; 0x7f000000
 8000846:	f441 0178 	orr.w	r1, r1, #16252928	; 0xf80000
 800084a:	bd70      	pop	{r4, r5, r6, pc}

0800084c <__aeabi_ddiv>:
 800084c:	b570      	push	{r4, r5, r6, lr}
 800084e:	f04f 0cff 	mov.w	ip, #255	; 0xff
 8000852:	f44c 6ce0 	orr.w	ip, ip, #1792	; 0x700
 8000856:	ea1c 5411 	ands.w	r4, ip, r1, lsr #20
 800085a:	bf1d      	ittte	ne
 800085c:	ea1c 5513 	andsne.w	r5, ip, r3, lsr #20
 8000860:	ea94 0f0c 	teqne	r4, ip
 8000864:	ea95 0f0c 	teqne	r5, ip
 8000868:	f000 f8a7 	bleq	80009ba <__aeabi_ddiv+0x16e>
 800086c:	eba4 0405 	sub.w	r4, r4, r5
 8000870:	ea81 0e03 	eor.w	lr, r1, r3
 8000874:	ea52 3503 	orrs.w	r5, r2, r3, lsl #12
 8000878:	ea4f 3101 	mov.w	r1, r1, lsl #12
 800087c:	f000 8088 	beq.w	8000990 <__aeabi_ddiv+0x144>
 8000880:	ea4f 3303 	mov.w	r3, r3, lsl #12
 8000884:	f04f 5580 	mov.w	r5, #268435456	; 0x10000000
 8000888:	ea45 1313 	orr.w	r3, r5, r3, lsr #4
 800088c:	ea43 6312 	orr.w	r3, r3, r2, lsr #24
 8000890:	ea4f 2202 	mov.w	r2, r2, lsl #8
 8000894:	ea45 1511 	orr.w	r5, r5, r1, lsr #4
 8000898:	ea45 6510 	orr.w	r5, r5, r0, lsr #24
 800089c:	ea4f 2600 	mov.w	r6, r0, lsl #8
 80008a0:	f00e 4100 	and.w	r1, lr, #2147483648	; 0x80000000
 80008a4:	429d      	cmp	r5, r3
 80008a6:	bf08      	it	eq
 80008a8:	4296      	cmpeq	r6, r2
 80008aa:	f144 04fd 	adc.w	r4, r4, #253	; 0xfd
 80008ae:	f504 7440 	add.w	r4, r4, #768	; 0x300
 80008b2:	d202      	bcs.n	80008ba <__aeabi_ddiv+0x6e>
 80008b4:	085b      	lsrs	r3, r3, #1
 80008b6:	ea4f 0232 	mov.w	r2, r2, rrx
 80008ba:	1ab6      	subs	r6, r6, r2
 80008bc:	eb65 0503 	sbc.w	r5, r5, r3
 80008c0:	085b      	lsrs	r3, r3, #1
 80008c2:	ea4f 0232 	mov.w	r2, r2, rrx
 80008c6:	f44f 1080 	mov.w	r0, #1048576	; 0x100000
 80008ca:	f44f 2c00 	mov.w	ip, #524288	; 0x80000
 80008ce:	ebb6 0e02 	subs.w	lr, r6, r2
 80008d2:	eb75 0e03 	sbcs.w	lr, r5, r3
 80008d6:	bf22      	ittt	cs
 80008d8:	1ab6      	subcs	r6, r6, r2
 80008da:	4675      	movcs	r5, lr
 80008dc:	ea40 000c 	orrcs.w	r0, r0, ip
 80008e0:	085b      	lsrs	r3, r3, #1
 80008e2:	ea4f 0232 	mov.w	r2, r2, rrx
 80008e6:	ebb6 0e02 	subs.w	lr, r6, r2
 80008ea:	eb75 0e03 	sbcs.w	lr, r5, r3
 80008ee:	bf22      	ittt	cs
 80008f0:	1ab6      	subcs	r6, r6, r2
 80008f2:	4675      	movcs	r5, lr
 80008f4:	ea40 005c 	orrcs.w	r0, r0, ip, lsr #1
 80008f8:	085b      	lsrs	r3, r3, #1
 80008fa:	ea4f 0232 	mov.w	r2, r2, rrx
 80008fe:	ebb6 0e02 	subs.w	lr, r6, r2
 8000902:	eb75 0e03 	sbcs.w	lr, r5, r3
 8000906:	bf22      	ittt	cs
 8000908:	1ab6      	subcs	r6, r6, r2
 800090a:	4675      	movcs	r5, lr
 800090c:	ea40 009c 	orrcs.w	r0, r0, ip, lsr #2
 8000910:	085b      	lsrs	r3, r3, #1
 8000912:	ea4f 0232 	mov.w	r2, r2, rrx
 8000916:	ebb6 0e02 	subs.w	lr, r6, r2
 800091a:	eb75 0e03 	sbcs.w	lr, r5, r3
 800091e:	bf22      	ittt	cs
 8000920:	1ab6      	subcs	r6, r6, r2
 8000922:	4675      	movcs	r5, lr
 8000924:	ea40 00dc 	orrcs.w	r0, r0, ip, lsr #3
 8000928:	ea55 0e06 	orrs.w	lr, r5, r6
 800092c:	d018      	beq.n	8000960 <__aeabi_ddiv+0x114>
 800092e:	ea4f 1505 	mov.w	r5, r5, lsl #4
 8000932:	ea45 7516 	orr.w	r5, r5, r6, lsr #28
 8000936:	ea4f 1606 	mov.w	r6, r6, lsl #4
 800093a:	ea4f 03c3 	mov.w	r3, r3, lsl #3
 800093e:	ea43 7352 	orr.w	r3, r3, r2, lsr #29
 8000942:	ea4f 02c2 	mov.w	r2, r2, lsl #3
 8000946:	ea5f 1c1c 	movs.w	ip, ip, lsr #4
 800094a:	d1c0      	bne.n	80008ce <__aeabi_ddiv+0x82>
 800094c:	f411 1f80 	tst.w	r1, #1048576	; 0x100000
 8000950:	d10b      	bne.n	800096a <__aeabi_ddiv+0x11e>
 8000952:	ea41 0100 	orr.w	r1, r1, r0
 8000956:	f04f 0000 	mov.w	r0, #0
 800095a:	f04f 4c00 	mov.w	ip, #2147483648	; 0x80000000
 800095e:	e7b6      	b.n	80008ce <__aeabi_ddiv+0x82>
 8000960:	f411 1f80 	tst.w	r1, #1048576	; 0x100000
 8000964:	bf04      	itt	eq
 8000966:	4301      	orreq	r1, r0
 8000968:	2000      	moveq	r0, #0
 800096a:	f1b4 0cfd 	subs.w	ip, r4, #253	; 0xfd
 800096e:	bf88      	it	hi
 8000970:	f5bc 6fe0 	cmphi.w	ip, #1792	; 0x700
 8000974:	f63f aeaf 	bhi.w	80006d6 <__aeabi_dmul+0xde>
 8000978:	ebb5 0c03 	subs.w	ip, r5, r3
 800097c:	bf04      	itt	eq
 800097e:	ebb6 0c02 	subseq.w	ip, r6, r2
 8000982:	ea5f 0c50 	movseq.w	ip, r0, lsr #1
 8000986:	f150 0000 	adcs.w	r0, r0, #0
 800098a:	eb41 5104 	adc.w	r1, r1, r4, lsl #20
 800098e:	bd70      	pop	{r4, r5, r6, pc}
 8000990:	f00e 4e00 	and.w	lr, lr, #2147483648	; 0x80000000
 8000994:	ea4e 3111 	orr.w	r1, lr, r1, lsr #12
 8000998:	eb14 045c 	adds.w	r4, r4, ip, lsr #1
 800099c:	bfc2      	ittt	gt
 800099e:	ebd4 050c 	rsbsgt	r5, r4, ip
 80009a2:	ea41 5104 	orrgt.w	r1, r1, r4, lsl #20
 80009a6:	bd70      	popgt	{r4, r5, r6, pc}
 80009a8:	f441 1180 	orr.w	r1, r1, #1048576	; 0x100000
 80009ac:	f04f 0e00 	mov.w	lr, #0
 80009b0:	3c01      	subs	r4, #1
 80009b2:	e690      	b.n	80006d6 <__aeabi_dmul+0xde>
 80009b4:	ea45 0e06 	orr.w	lr, r5, r6
 80009b8:	e68d      	b.n	80006d6 <__aeabi_dmul+0xde>
 80009ba:	ea0c 5513 	and.w	r5, ip, r3, lsr #20
 80009be:	ea94 0f0c 	teq	r4, ip
 80009c2:	bf08      	it	eq
 80009c4:	ea95 0f0c 	teqeq	r5, ip
 80009c8:	f43f af3b 	beq.w	8000842 <__aeabi_dmul+0x24a>
 80009cc:	ea94 0f0c 	teq	r4, ip
 80009d0:	d10a      	bne.n	80009e8 <__aeabi_ddiv+0x19c>
 80009d2:	ea50 3401 	orrs.w	r4, r0, r1, lsl #12
 80009d6:	f47f af34 	bne.w	8000842 <__aeabi_dmul+0x24a>
 80009da:	ea95 0f0c 	teq	r5, ip
 80009de:	f47f af25 	bne.w	800082c <__aeabi_dmul+0x234>
 80009e2:	4610      	mov	r0, r2
 80009e4:	4619      	mov	r1, r3
 80009e6:	e72c      	b.n	8000842 <__aeabi_dmul+0x24a>
 80009e8:	ea95 0f0c 	teq	r5, ip
 80009ec:	d106      	bne.n	80009fc <__aeabi_ddiv+0x1b0>
 80009ee:	ea52 3503 	orrs.w	r5, r2, r3, lsl #12
 80009f2:	f43f aefd 	beq.w	80007f0 <__aeabi_dmul+0x1f8>
 80009f6:	4610      	mov	r0, r2
 80009f8:	4619      	mov	r1, r3
 80009fa:	e722      	b.n	8000842 <__aeabi_dmul+0x24a>
 80009fc:	ea50 0641 	orrs.w	r6, r0, r1, lsl #1
 8000a00:	bf18      	it	ne
 8000a02:	ea52 0643 	orrsne.w	r6, r2, r3, lsl #1
 8000a06:	f47f aec5 	bne.w	8000794 <__aeabi_dmul+0x19c>
 8000a0a:	ea50 0441 	orrs.w	r4, r0, r1, lsl #1
 8000a0e:	f47f af0d 	bne.w	800082c <__aeabi_dmul+0x234>
 8000a12:	ea52 0543 	orrs.w	r5, r2, r3, lsl #1
 8000a16:	f47f aeeb 	bne.w	80007f0 <__aeabi_dmul+0x1f8>
 8000a1a:	e712      	b.n	8000842 <__aeabi_dmul+0x24a>

08000a1c <__gedf2>:
 8000a1c:	f04f 3cff 	mov.w	ip, #4294967295	; 0xffffffff
 8000a20:	e006      	b.n	8000a30 <__cmpdf2+0x4>
 8000a22:	bf00      	nop

08000a24 <__ledf2>:
 8000a24:	f04f 0c01 	mov.w	ip, #1
 8000a28:	e002      	b.n	8000a30 <__cmpdf2+0x4>
 8000a2a:	bf00      	nop

08000a2c <__cmpdf2>:
 8000a2c:	f04f 0c01 	mov.w	ip, #1
 8000a30:	f84d cd04 	str.w	ip, [sp, #-4]!
 8000a34:	ea4f 0c41 	mov.w	ip, r1, lsl #1
 8000a38:	ea7f 5c6c 	mvns.w	ip, ip, asr #21
 8000a3c:	ea4f 0c43 	mov.w	ip, r3, lsl #1
 8000a40:	bf18      	it	ne
 8000a42:	ea7f 5c6c 	mvnsne.w	ip, ip, asr #21
 8000a46:	d01b      	beq.n	8000a80 <__cmpdf2+0x54>
 8000a48:	b001      	add	sp, #4
 8000a4a:	ea50 0c41 	orrs.w	ip, r0, r1, lsl #1
 8000a4e:	bf0c      	ite	eq
 8000a50:	ea52 0c43 	orrseq.w	ip, r2, r3, lsl #1
 8000a54:	ea91 0f03 	teqne	r1, r3
 8000a58:	bf02      	ittt	eq
 8000a5a:	ea90 0f02 	teqeq	r0, r2
 8000a5e:	2000      	moveq	r0, #0
 8000a60:	4770      	bxeq	lr
 8000a62:	f110 0f00 	cmn.w	r0, #0
 8000a66:	ea91 0f03 	teq	r1, r3
 8000a6a:	bf58      	it	pl
 8000a6c:	4299      	cmppl	r1, r3
 8000a6e:	bf08      	it	eq
 8000a70:	4290      	cmpeq	r0, r2
 8000a72:	bf2c      	ite	cs
 8000a74:	17d8      	asrcs	r0, r3, #31
 8000a76:	ea6f 70e3 	mvncc.w	r0, r3, asr #31
 8000a7a:	f040 0001 	orr.w	r0, r0, #1
 8000a7e:	4770      	bx	lr
 8000a80:	ea4f 0c41 	mov.w	ip, r1, lsl #1
 8000a84:	ea7f 5c6c 	mvns.w	ip, ip, asr #21
 8000a88:	d102      	bne.n	8000a90 <__cmpdf2+0x64>
 8000a8a:	ea50 3c01 	orrs.w	ip, r0, r1, lsl #12
 8000a8e:	d107      	bne.n	8000aa0 <__cmpdf2+0x74>
 8000a90:	ea4f 0c43 	mov.w	ip, r3, lsl #1
 8000a94:	ea7f 5c6c 	mvns.w	ip, ip, asr #21
 8000a98:	d1d6      	bne.n	8000a48 <__cmpdf2+0x1c>
 8000a9a:	ea52 3c03 	orrs.w	ip, r2, r3, lsl #12
 8000a9e:	d0d3      	beq.n	8000a48 <__cmpdf2+0x1c>
 8000aa0:	f85d 0b04 	ldr.w	r0, [sp], #4
 8000aa4:	4770      	bx	lr
 8000aa6:	bf00      	nop

08000aa8 <__aeabi_cdrcmple>:
 8000aa8:	4684      	mov	ip, r0
 8000aaa:	4610      	mov	r0, r2
 8000aac:	4662      	mov	r2, ip
 8000aae:	468c      	mov	ip, r1
 8000ab0:	4619      	mov	r1, r3
 8000ab2:	4663      	mov	r3, ip
 8000ab4:	e000      	b.n	8000ab8 <__aeabi_cdcmpeq>
 8000ab6:	bf00      	nop

08000ab8 <__aeabi_cdcmpeq>:
 8000ab8:	b501      	push	{r0, lr}
 8000aba:	f7ff ffb7 	bl	8000a2c <__cmpdf2>
 8000abe:	2800      	cmp	r0, #0
 8000ac0:	bf48      	it	mi
 8000ac2:	f110 0f00 	cmnmi.w	r0, #0
 8000ac6:	bd01      	pop	{r0, pc}

08000ac8 <__aeabi_dcmpeq>:
 8000ac8:	f84d ed08 	str.w	lr, [sp, #-8]!
 8000acc:	f7ff fff4 	bl	8000ab8 <__aeabi_cdcmpeq>
 8000ad0:	bf0c      	ite	eq
 8000ad2:	2001      	moveq	r0, #1
 8000ad4:	2000      	movne	r0, #0
 8000ad6:	f85d fb08 	ldr.w	pc, [sp], #8
 8000ada:	bf00      	nop

08000adc <__aeabi_dcmplt>:
 8000adc:	f84d ed08 	str.w	lr, [sp, #-8]!
 8000ae0:	f7ff ffea 	bl	8000ab8 <__aeabi_cdcmpeq>
 8000ae4:	bf34      	ite	cc
 8000ae6:	2001      	movcc	r0, #1
 8000ae8:	2000      	movcs	r0, #0
 8000aea:	f85d fb08 	ldr.w	pc, [sp], #8
 8000aee:	bf00      	nop

08000af0 <__aeabi_dcmple>:
 8000af0:	f84d ed08 	str.w	lr, [sp, #-8]!
 8000af4:	f7ff ffe0 	bl	8000ab8 <__aeabi_cdcmpeq>
 8000af8:	bf94      	ite	ls
 8000afa:	2001      	movls	r0, #1
 8000afc:	2000      	movhi	r0, #0
 8000afe:	f85d fb08 	ldr.w	pc, [sp], #8
 8000b02:	bf00      	nop

08000b04 <__aeabi_dcmpge>:
 8000b04:	f84d ed08 	str.w	lr, [sp, #-8]!
 8000b08:	f7ff ffce 	bl	8000aa8 <__aeabi_cdrcmple>
 8000b0c:	bf94      	ite	ls
 8000b0e:	2001      	movls	r0, #1
 8000b10:	2000      	movhi	r0, #0
 8000b12:	f85d fb08 	ldr.w	pc, [sp], #8
 8000b16:	bf00      	nop

08000b18 <__aeabi_dcmpgt>:
 8000b18:	f84d ed08 	str.w	lr, [sp, #-8]!
 8000b1c:	f7ff ffc4 	bl	8000aa8 <__aeabi_cdrcmple>
 8000b20:	bf34      	ite	cc
 8000b22:	2001      	movcc	r0, #1
 8000b24:	2000      	movcs	r0, #0
 8000b26:	f85d fb08 	ldr.w	pc, [sp], #8
 8000b2a:	bf00      	nop

08000b2c <__aeabi_dcmpun>:
 8000b2c:	ea4f 0c41 	mov.w	ip, r1, lsl #1
 8000b30:	ea7f 5c6c 	mvns.w	ip, ip, asr #21
 8000b34:	d102      	bne.n	8000b3c <__aeabi_dcmpun+0x10>
 8000b36:	ea50 3c01 	orrs.w	ip, r0, r1, lsl #12
 8000b3a:	d10a      	bne.n	8000b52 <__aeabi_dcmpun+0x26>
 8000b3c:	ea4f 0c43 	mov.w	ip, r3, lsl #1
 8000b40:	ea7f 5c6c 	mvns.w	ip, ip, asr #21
 8000b44:	d102      	bne.n	8000b4c <__aeabi_dcmpun+0x20>
 8000b46:	ea52 3c03 	orrs.w	ip, r2, r3, lsl #12
 8000b4a:	d102      	bne.n	8000b52 <__aeabi_dcmpun+0x26>
 8000b4c:	f04f 0000 	mov.w	r0, #0
 8000b50:	4770      	bx	lr
 8000b52:	f04f 0001 	mov.w	r0, #1
 8000b56:	4770      	bx	lr

08000b58 <__aeabi_d2iz>:
 8000b58:	ea4f 0241 	mov.w	r2, r1, lsl #1
 8000b5c:	f512 1200 	adds.w	r2, r2, #2097152	; 0x200000
 8000b60:	d215      	bcs.n	8000b8e <__aeabi_d2iz+0x36>
 8000b62:	d511      	bpl.n	8000b88 <__aeabi_d2iz+0x30>
 8000b64:	f46f 7378 	mvn.w	r3, #992	; 0x3e0
 8000b68:	ebb3 5262 	subs.w	r2, r3, r2, asr #21
 8000b6c:	d912      	bls.n	8000b94 <__aeabi_d2iz+0x3c>
 8000b6e:	ea4f 23c1 	mov.w	r3, r1, lsl #11
 8000b72:	f043 4300 	orr.w	r3, r3, #2147483648	; 0x80000000
 8000b76:	ea43 5350 	orr.w	r3, r3, r0, lsr #21
 8000b7a:	f011 4f00 	tst.w	r1, #2147483648	; 0x80000000
 8000b7e:	fa23 f002 	lsr.w	r0, r3, r2
 8000b82:	bf18      	it	ne
 8000b84:	4240      	negne	r0, r0
 8000b86:	4770      	bx	lr
 8000b88:	f04f 0000 	mov.w	r0, #0
 8000b8c:	4770      	bx	lr
 8000b8e:	ea50 3001 	orrs.w	r0, r0, r1, lsl #12
 8000b92:	d105      	bne.n	8000ba0 <__aeabi_d2iz+0x48>
 8000b94:	f011 4000 	ands.w	r0, r1, #2147483648	; 0x80000000
 8000b98:	bf08      	it	eq
 8000b9a:	f06f 4000 	mvneq.w	r0, #2147483648	; 0x80000000
 8000b9e:	4770      	bx	lr
 8000ba0:	f04f 0000 	mov.w	r0, #0
 8000ba4:	4770      	bx	lr
 8000ba6:	bf00      	nop

08000ba8 <__aeabi_uldivmod>:
 8000ba8:	b953      	cbnz	r3, 8000bc0 <__aeabi_uldivmod+0x18>
 8000baa:	b94a      	cbnz	r2, 8000bc0 <__aeabi_uldivmod+0x18>
 8000bac:	2900      	cmp	r1, #0
 8000bae:	bf08      	it	eq
 8000bb0:	2800      	cmpeq	r0, #0
 8000bb2:	bf1c      	itt	ne
 8000bb4:	f04f 31ff 	movne.w	r1, #4294967295	; 0xffffffff
 8000bb8:	f04f 30ff 	movne.w	r0, #4294967295	; 0xffffffff
 8000bbc:	f000 b972 	b.w	8000ea4 <__aeabi_idiv0>
 8000bc0:	f1ad 0c08 	sub.w	ip, sp, #8
 8000bc4:	e96d ce04 	strd	ip, lr, [sp, #-16]!
 8000bc8:	f000 f806 	bl	8000bd8 <__udivmoddi4>
 8000bcc:	f8dd e004 	ldr.w	lr, [sp, #4]
 8000bd0:	e9dd 2302 	ldrd	r2, r3, [sp, #8]
 8000bd4:	b004      	add	sp, #16
 8000bd6:	4770      	bx	lr

08000bd8 <__udivmoddi4>:
 8000bd8:	e92d 47f0 	stmdb	sp!, {r4, r5, r6, r7, r8, r9, sl, lr}
 8000bdc:	9e08      	ldr	r6, [sp, #32]
 8000bde:	4604      	mov	r4, r0
 8000be0:	4688      	mov	r8, r1
 8000be2:	2b00      	cmp	r3, #0
 8000be4:	d14b      	bne.n	8000c7e <__udivmoddi4+0xa6>
 8000be6:	428a      	cmp	r2, r1
 8000be8:	4615      	mov	r5, r2
 8000bea:	d967      	bls.n	8000cbc <__udivmoddi4+0xe4>
 8000bec:	fab2 f282 	clz	r2, r2
 8000bf0:	b14a      	cbz	r2, 8000c06 <__udivmoddi4+0x2e>
 8000bf2:	f1c2 0720 	rsb	r7, r2, #32
 8000bf6:	fa01 f302 	lsl.w	r3, r1, r2
 8000bfa:	fa20 f707 	lsr.w	r7, r0, r7
 8000bfe:	4095      	lsls	r5, r2
 8000c00:	ea47 0803 	orr.w	r8, r7, r3
 8000c04:	4094      	lsls	r4, r2
 8000c06:	ea4f 4e15 	mov.w	lr, r5, lsr #16
 8000c0a:	0c23      	lsrs	r3, r4, #16
 8000c0c:	fbb8 f7fe 	udiv	r7, r8, lr
 8000c10:	fa1f fc85 	uxth.w	ip, r5
 8000c14:	fb0e 8817 	mls	r8, lr, r7, r8
 8000c18:	ea43 4308 	orr.w	r3, r3, r8, lsl #16
 8000c1c:	fb07 f10c 	mul.w	r1, r7, ip
 8000c20:	4299      	cmp	r1, r3
 8000c22:	d909      	bls.n	8000c38 <__udivmoddi4+0x60>
 8000c24:	18eb      	adds	r3, r5, r3
 8000c26:	f107 30ff 	add.w	r0, r7, #4294967295	; 0xffffffff
 8000c2a:	f080 811b 	bcs.w	8000e64 <__udivmoddi4+0x28c>
 8000c2e:	4299      	cmp	r1, r3
 8000c30:	f240 8118 	bls.w	8000e64 <__udivmoddi4+0x28c>
 8000c34:	3f02      	subs	r7, #2
 8000c36:	442b      	add	r3, r5
 8000c38:	1a5b      	subs	r3, r3, r1
 8000c3a:	b2a4      	uxth	r4, r4
 8000c3c:	fbb3 f0fe 	udiv	r0, r3, lr
 8000c40:	fb0e 3310 	mls	r3, lr, r0, r3
 8000c44:	ea44 4403 	orr.w	r4, r4, r3, lsl #16
 8000c48:	fb00 fc0c 	mul.w	ip, r0, ip
 8000c4c:	45a4      	cmp	ip, r4
 8000c4e:	d909      	bls.n	8000c64 <__udivmoddi4+0x8c>
 8000c50:	192c      	adds	r4, r5, r4
 8000c52:	f100 33ff 	add.w	r3, r0, #4294967295	; 0xffffffff
 8000c56:	f080 8107 	bcs.w	8000e68 <__udivmoddi4+0x290>
 8000c5a:	45a4      	cmp	ip, r4
 8000c5c:	f240 8104 	bls.w	8000e68 <__udivmoddi4+0x290>
 8000c60:	3802      	subs	r0, #2
 8000c62:	442c      	add	r4, r5
 8000c64:	ea40 4007 	orr.w	r0, r0, r7, lsl #16
 8000c68:	eba4 040c 	sub.w	r4, r4, ip
 8000c6c:	2700      	movs	r7, #0
 8000c6e:	b11e      	cbz	r6, 8000c78 <__udivmoddi4+0xa0>
 8000c70:	40d4      	lsrs	r4, r2
 8000c72:	2300      	movs	r3, #0
 8000c74:	e9c6 4300 	strd	r4, r3, [r6]
 8000c78:	4639      	mov	r1, r7
 8000c7a:	e8bd 87f0 	ldmia.w	sp!, {r4, r5, r6, r7, r8, r9, sl, pc}
 8000c7e:	428b      	cmp	r3, r1
 8000c80:	d909      	bls.n	8000c96 <__udivmoddi4+0xbe>
 8000c82:	2e00      	cmp	r6, #0
 8000c84:	f000 80eb 	beq.w	8000e5e <__udivmoddi4+0x286>
 8000c88:	2700      	movs	r7, #0
 8000c8a:	e9c6 0100 	strd	r0, r1, [r6]
 8000c8e:	4638      	mov	r0, r7
 8000c90:	4639      	mov	r1, r7
 8000c92:	e8bd 87f0 	ldmia.w	sp!, {r4, r5, r6, r7, r8, r9, sl, pc}
 8000c96:	fab3 f783 	clz	r7, r3
 8000c9a:	2f00      	cmp	r7, #0
 8000c9c:	d147      	bne.n	8000d2e <__udivmoddi4+0x156>
 8000c9e:	428b      	cmp	r3, r1
 8000ca0:	d302      	bcc.n	8000ca8 <__udivmoddi4+0xd0>
 8000ca2:	4282      	cmp	r2, r0
 8000ca4:	f200 80fa 	bhi.w	8000e9c <__udivmoddi4+0x2c4>
 8000ca8:	1a84      	subs	r4, r0, r2
 8000caa:	eb61 0303 	sbc.w	r3, r1, r3
 8000cae:	2001      	movs	r0, #1
 8000cb0:	4698      	mov	r8, r3
 8000cb2:	2e00      	cmp	r6, #0
 8000cb4:	d0e0      	beq.n	8000c78 <__udivmoddi4+0xa0>
 8000cb6:	e9c6 4800 	strd	r4, r8, [r6]
 8000cba:	e7dd      	b.n	8000c78 <__udivmoddi4+0xa0>
 8000cbc:	b902      	cbnz	r2, 8000cc0 <__udivmoddi4+0xe8>
 8000cbe:	deff      	udf	#255	; 0xff
 8000cc0:	fab2 f282 	clz	r2, r2
 8000cc4:	2a00      	cmp	r2, #0
 8000cc6:	f040 808f 	bne.w	8000de8 <__udivmoddi4+0x210>
 8000cca:	1b49      	subs	r1, r1, r5
 8000ccc:	ea4f 4e15 	mov.w	lr, r5, lsr #16
 8000cd0:	fa1f f885 	uxth.w	r8, r5
 8000cd4:	2701      	movs	r7, #1
 8000cd6:	fbb1 fcfe 	udiv	ip, r1, lr
 8000cda:	0c23      	lsrs	r3, r4, #16
 8000cdc:	fb0e 111c 	mls	r1, lr, ip, r1
 8000ce0:	ea43 4301 	orr.w	r3, r3, r1, lsl #16
 8000ce4:	fb08 f10c 	mul.w	r1, r8, ip
 8000ce8:	4299      	cmp	r1, r3
 8000cea:	d907      	bls.n	8000cfc <__udivmoddi4+0x124>
 8000cec:	18eb      	adds	r3, r5, r3
 8000cee:	f10c 30ff 	add.w	r0, ip, #4294967295	; 0xffffffff
 8000cf2:	d202      	bcs.n	8000cfa <__udivmoddi4+0x122>
 8000cf4:	4299      	cmp	r1, r3
 8000cf6:	f200 80cd 	bhi.w	8000e94 <__udivmoddi4+0x2bc>
 8000cfa:	4684      	mov	ip, r0
 8000cfc:	1a59      	subs	r1, r3, r1
 8000cfe:	b2a3      	uxth	r3, r4
 8000d00:	fbb1 f0fe 	udiv	r0, r1, lr
 8000d04:	fb0e 1410 	mls	r4, lr, r0, r1
 8000d08:	ea43 4404 	orr.w	r4, r3, r4, lsl #16
 8000d0c:	fb08 f800 	mul.w	r8, r8, r0
 8000d10:	45a0      	cmp	r8, r4
 8000d12:	d907      	bls.n	8000d24 <__udivmoddi4+0x14c>
 8000d14:	192c      	adds	r4, r5, r4
 8000d16:	f100 33ff 	add.w	r3, r0, #4294967295	; 0xffffffff
 8000d1a:	d202      	bcs.n	8000d22 <__udivmoddi4+0x14a>
 8000d1c:	45a0      	cmp	r8, r4
 8000d1e:	f200 80b6 	bhi.w	8000e8e <__udivmoddi4+0x2b6>
 8000d22:	4618      	mov	r0, r3
 8000d24:	eba4 0408 	sub.w	r4, r4, r8
 8000d28:	ea40 400c 	orr.w	r0, r0, ip, lsl #16
 8000d2c:	e79f      	b.n	8000c6e <__udivmoddi4+0x96>
 8000d2e:	f1c7 0c20 	rsb	ip, r7, #32
 8000d32:	40bb      	lsls	r3, r7
 8000d34:	fa22 fe0c 	lsr.w	lr, r2, ip
 8000d38:	ea4e 0e03 	orr.w	lr, lr, r3
 8000d3c:	fa01 f407 	lsl.w	r4, r1, r7
 8000d40:	fa20 f50c 	lsr.w	r5, r0, ip
 8000d44:	fa21 f30c 	lsr.w	r3, r1, ip
 8000d48:	ea4f 481e 	mov.w	r8, lr, lsr #16
 8000d4c:	4325      	orrs	r5, r4
 8000d4e:	fbb3 f9f8 	udiv	r9, r3, r8
 8000d52:	0c2c      	lsrs	r4, r5, #16
 8000d54:	fb08 3319 	mls	r3, r8, r9, r3
 8000d58:	fa1f fa8e 	uxth.w	sl, lr
 8000d5c:	ea44 4303 	orr.w	r3, r4, r3, lsl #16
 8000d60:	fb09 f40a 	mul.w	r4, r9, sl
 8000d64:	429c      	cmp	r4, r3
 8000d66:	fa02 f207 	lsl.w	r2, r2, r7
 8000d6a:	fa00 f107 	lsl.w	r1, r0, r7
 8000d6e:	d90b      	bls.n	8000d88 <__udivmoddi4+0x1b0>
 8000d70:	eb1e 0303 	adds.w	r3, lr, r3
 8000d74:	f109 30ff 	add.w	r0, r9, #4294967295	; 0xffffffff
 8000d78:	f080 8087 	bcs.w	8000e8a <__udivmoddi4+0x2b2>
 8000d7c:	429c      	cmp	r4, r3
 8000d7e:	f240 8084 	bls.w	8000e8a <__udivmoddi4+0x2b2>
 8000d82:	f1a9 0902 	sub.w	r9, r9, #2
 8000d86:	4473      	add	r3, lr
 8000d88:	1b1b      	subs	r3, r3, r4
 8000d8a:	b2ad      	uxth	r5, r5
 8000d8c:	fbb3 f0f8 	udiv	r0, r3, r8
 8000d90:	fb08 3310 	mls	r3, r8, r0, r3
 8000d94:	ea45 4403 	orr.w	r4, r5, r3, lsl #16
 8000d98:	fb00 fa0a 	mul.w	sl, r0, sl
 8000d9c:	45a2      	cmp	sl, r4
 8000d9e:	d908      	bls.n	8000db2 <__udivmoddi4+0x1da>
 8000da0:	eb1e 0404 	adds.w	r4, lr, r4
 8000da4:	f100 33ff 	add.w	r3, r0, #4294967295	; 0xffffffff
 8000da8:	d26b      	bcs.n	8000e82 <__udivmoddi4+0x2aa>
 8000daa:	45a2      	cmp	sl, r4
 8000dac:	d969      	bls.n	8000e82 <__udivmoddi4+0x2aa>
 8000dae:	3802      	subs	r0, #2
 8000db0:	4474      	add	r4, lr
 8000db2:	ea40 4009 	orr.w	r0, r0, r9, lsl #16
 8000db6:	fba0 8902 	umull	r8, r9, r0, r2
 8000dba:	eba4 040a 	sub.w	r4, r4, sl
 8000dbe:	454c      	cmp	r4, r9
 8000dc0:	46c2      	mov	sl, r8
 8000dc2:	464b      	mov	r3, r9
 8000dc4:	d354      	bcc.n	8000e70 <__udivmoddi4+0x298>
 8000dc6:	d051      	beq.n	8000e6c <__udivmoddi4+0x294>
 8000dc8:	2e00      	cmp	r6, #0
 8000dca:	d069      	beq.n	8000ea0 <__udivmoddi4+0x2c8>
 8000dcc:	ebb1 050a 	subs.w	r5, r1, sl
 8000dd0:	eb64 0403 	sbc.w	r4, r4, r3
 8000dd4:	fa04 fc0c 	lsl.w	ip, r4, ip
 8000dd8:	40fd      	lsrs	r5, r7
 8000dda:	40fc      	lsrs	r4, r7
 8000ddc:	ea4c 0505 	orr.w	r5, ip, r5
 8000de0:	e9c6 5400 	strd	r5, r4, [r6]
 8000de4:	2700      	movs	r7, #0
 8000de6:	e747      	b.n	8000c78 <__udivmoddi4+0xa0>
 8000de8:	f1c2 0320 	rsb	r3, r2, #32
 8000dec:	fa20 f703 	lsr.w	r7, r0, r3
 8000df0:	4095      	lsls	r5, r2
 8000df2:	fa01 f002 	lsl.w	r0, r1, r2
 8000df6:	fa21 f303 	lsr.w	r3, r1, r3
 8000dfa:	ea4f 4e15 	mov.w	lr, r5, lsr #16
 8000dfe:	4338      	orrs	r0, r7
 8000e00:	0c01      	lsrs	r1, r0, #16
 8000e02:	fbb3 f7fe 	udiv	r7, r3, lr
 8000e06:	fa1f f885 	uxth.w	r8, r5
 8000e0a:	fb0e 3317 	mls	r3, lr, r7, r3
 8000e0e:	ea41 4103 	orr.w	r1, r1, r3, lsl #16
 8000e12:	fb07 f308 	mul.w	r3, r7, r8
 8000e16:	428b      	cmp	r3, r1
 8000e18:	fa04 f402 	lsl.w	r4, r4, r2
 8000e1c:	d907      	bls.n	8000e2e <__udivmoddi4+0x256>
 8000e1e:	1869      	adds	r1, r5, r1
 8000e20:	f107 3cff 	add.w	ip, r7, #4294967295	; 0xffffffff
 8000e24:	d22f      	bcs.n	8000e86 <__udivmoddi4+0x2ae>
 8000e26:	428b      	cmp	r3, r1
 8000e28:	d92d      	bls.n	8000e86 <__udivmoddi4+0x2ae>
 8000e2a:	3f02      	subs	r7, #2
 8000e2c:	4429      	add	r1, r5
 8000e2e:	1acb      	subs	r3, r1, r3
 8000e30:	b281      	uxth	r1, r0
 8000e32:	fbb3 f0fe 	udiv	r0, r3, lr
 8000e36:	fb0e 3310 	mls	r3, lr, r0, r3
 8000e3a:	ea41 4103 	orr.w	r1, r1, r3, lsl #16
 8000e3e:	fb00 f308 	mul.w	r3, r0, r8
 8000e42:	428b      	cmp	r3, r1
 8000e44:	d907      	bls.n	8000e56 <__udivmoddi4+0x27e>
 8000e46:	1869      	adds	r1, r5, r1
 8000e48:	f100 3cff 	add.w	ip, r0, #4294967295	; 0xffffffff
 8000e4c:	d217      	bcs.n	8000e7e <__udivmoddi4+0x2a6>
 8000e4e:	428b      	cmp	r3, r1
 8000e50:	d915      	bls.n	8000e7e <__udivmoddi4+0x2a6>
 8000e52:	3802      	subs	r0, #2
 8000e54:	4429      	add	r1, r5
 8000e56:	1ac9      	subs	r1, r1, r3
 8000e58:	ea40 4707 	orr.w	r7, r0, r7, lsl #16
 8000e5c:	e73b      	b.n	8000cd6 <__udivmoddi4+0xfe>
 8000e5e:	4637      	mov	r7, r6
 8000e60:	4630      	mov	r0, r6
 8000e62:	e709      	b.n	8000c78 <__udivmoddi4+0xa0>
 8000e64:	4607      	mov	r7, r0
 8000e66:	e6e7      	b.n	8000c38 <__udivmoddi4+0x60>
 8000e68:	4618      	mov	r0, r3
 8000e6a:	e6fb      	b.n	8000c64 <__udivmoddi4+0x8c>
 8000e6c:	4541      	cmp	r1, r8
 8000e6e:	d2ab      	bcs.n	8000dc8 <__udivmoddi4+0x1f0>
 8000e70:	ebb8 0a02 	subs.w	sl, r8, r2
 8000e74:	eb69 020e 	sbc.w	r2, r9, lr
 8000e78:	3801      	subs	r0, #1
 8000e7a:	4613      	mov	r3, r2
 8000e7c:	e7a4      	b.n	8000dc8 <__udivmoddi4+0x1f0>
 8000e7e:	4660      	mov	r0, ip
 8000e80:	e7e9      	b.n	8000e56 <__udivmoddi4+0x27e>
 8000e82:	4618      	mov	r0, r3
 8000e84:	e795      	b.n	8000db2 <__udivmoddi4+0x1da>
 8000e86:	4667      	mov	r7, ip
 8000e88:	e7d1      	b.n	8000e2e <__udivmoddi4+0x256>
 8000e8a:	4681      	mov	r9, r0
 8000e8c:	e77c      	b.n	8000d88 <__udivmoddi4+0x1b0>
 8000e8e:	3802      	subs	r0, #2
 8000e90:	442c      	add	r4, r5
 8000e92:	e747      	b.n	8000d24 <__udivmoddi4+0x14c>
 8000e94:	f1ac 0c02 	sub.w	ip, ip, #2
 8000e98:	442b      	add	r3, r5
 8000e9a:	e72f      	b.n	8000cfc <__udivmoddi4+0x124>
 8000e9c:	4638      	mov	r0, r7
 8000e9e:	e708      	b.n	8000cb2 <__udivmoddi4+0xda>
 8000ea0:	4637      	mov	r7, r6
 8000ea2:	e6e9      	b.n	8000c78 <__udivmoddi4+0xa0>

08000ea4 <__aeabi_idiv0>:
 8000ea4:	4770      	bx	lr
 8000ea6:	bf00      	nop

08000ea8 <MX_ADC1_Init>:
ADC_HandleTypeDef hadc1;
DMA_HandleTypeDef hdma_adc1;

/* ADC1 init function */
void MX_ADC1_Init(void)
{
 8000ea8:	b580      	push	{r7, lr}
 8000eaa:	b086      	sub	sp, #24
 8000eac:	af00      	add	r7, sp, #0
  ADC_ChannelConfTypeDef sConfig = {0};
 8000eae:	463b      	mov	r3, r7
 8000eb0:	2200      	movs	r2, #0
 8000eb2:	601a      	str	r2, [r3, #0]
 8000eb4:	605a      	str	r2, [r3, #4]
 8000eb6:	609a      	str	r2, [r3, #8]
 8000eb8:	60da      	str	r2, [r3, #12]
 8000eba:	611a      	str	r2, [r3, #16]
 8000ebc:	615a      	str	r2, [r3, #20]

  /** Common config
  */
  hadc1.Instance = ADC1;
 8000ebe:	4b50      	ldr	r3, [pc, #320]	; (8001000 <MX_ADC1_Init+0x158>)
 8000ec0:	4a50      	ldr	r2, [pc, #320]	; (8001004 <MX_ADC1_Init+0x15c>)
 8000ec2:	601a      	str	r2, [r3, #0]
  hadc1.Init.ClockPrescaler = ADC_CLOCK_ASYNC_DIV1;
 8000ec4:	4b4e      	ldr	r3, [pc, #312]	; (8001000 <MX_ADC1_Init+0x158>)
 8000ec6:	2200      	movs	r2, #0
 8000ec8:	605a      	str	r2, [r3, #4]
  hadc1.Init.Resolution = ADC_RESOLUTION_12B;
 8000eca:	4b4d      	ldr	r3, [pc, #308]	; (8001000 <MX_ADC1_Init+0x158>)
 8000ecc:	2200      	movs	r2, #0
 8000ece:	609a      	str	r2, [r3, #8]
  hadc1.Init.DataAlign = ADC_DATAALIGN_RIGHT;
 8000ed0:	4b4b      	ldr	r3, [pc, #300]	; (8001000 <MX_ADC1_Init+0x158>)
 8000ed2:	2200      	movs	r2, #0
 8000ed4:	60da      	str	r2, [r3, #12]
  hadc1.Init.ScanConvMode = ADC_SCAN_ENABLE;
 8000ed6:	4b4a      	ldr	r3, [pc, #296]	; (8001000 <MX_ADC1_Init+0x158>)
 8000ed8:	2201      	movs	r2, #1
 8000eda:	611a      	str	r2, [r3, #16]
  hadc1.Init.EOCSelection = ADC_EOC_SEQ_CONV;
 8000edc:	4b48      	ldr	r3, [pc, #288]	; (8001000 <MX_ADC1_Init+0x158>)
 8000ede:	2208      	movs	r2, #8
 8000ee0:	615a      	str	r2, [r3, #20]
  hadc1.Init.LowPowerAutoWait = DISABLE;
 8000ee2:	4b47      	ldr	r3, [pc, #284]	; (8001000 <MX_ADC1_Init+0x158>)
 8000ee4:	2200      	movs	r2, #0
 8000ee6:	761a      	strb	r2, [r3, #24]
  hadc1.Init.ContinuousConvMode = DISABLE;
 8000ee8:	4b45      	ldr	r3, [pc, #276]	; (8001000 <MX_ADC1_Init+0x158>)
 8000eea:	2200      	movs	r2, #0
 8000eec:	765a      	strb	r2, [r3, #25]
  hadc1.Init.NbrOfConversion = 6;
 8000eee:	4b44      	ldr	r3, [pc, #272]	; (8001000 <MX_ADC1_Init+0x158>)
 8000ef0:	2206      	movs	r2, #6
 8000ef2:	61da      	str	r2, [r3, #28]
  hadc1.Init.DiscontinuousConvMode = DISABLE;
 8000ef4:	4b42      	ldr	r3, [pc, #264]	; (8001000 <MX_ADC1_Init+0x158>)
 8000ef6:	2200      	movs	r2, #0
 8000ef8:	f883 2020 	strb.w	r2, [r3, #32]
  hadc1.Init.ExternalTrigConv = ADC_EXTERNALTRIG_T2_TRGO;
 8000efc:	4b40      	ldr	r3, [pc, #256]	; (8001000 <MX_ADC1_Init+0x158>)
 8000efe:	f44f 62d8 	mov.w	r2, #1728	; 0x6c0
 8000f02:	629a      	str	r2, [r3, #40]	; 0x28
  hadc1.Init.ExternalTrigConvEdge = ADC_EXTERNALTRIGCONVEDGE_RISING;
 8000f04:	4b3e      	ldr	r3, [pc, #248]	; (8001000 <MX_ADC1_Init+0x158>)
 8000f06:	f44f 6280 	mov.w	r2, #1024	; 0x400
 8000f0a:	62da      	str	r2, [r3, #44]	; 0x2c
  hadc1.Init.DMAContinuousRequests = ENABLE;
 8000f0c:	4b3c      	ldr	r3, [pc, #240]	; (8001000 <MX_ADC1_Init+0x158>)
 8000f0e:	2201      	movs	r2, #1
 8000f10:	f883 2030 	strb.w	r2, [r3, #48]	; 0x30
  hadc1.Init.Overrun = ADC_OVR_DATA_PRESERVED;
 8000f14:	4b3a      	ldr	r3, [pc, #232]	; (8001000 <MX_ADC1_Init+0x158>)
 8000f16:	2200      	movs	r2, #0
 8000f18:	635a      	str	r2, [r3, #52]	; 0x34
  hadc1.Init.OversamplingMode = DISABLE;
 8000f1a:	4b39      	ldr	r3, [pc, #228]	; (8001000 <MX_ADC1_Init+0x158>)
 8000f1c:	2200      	movs	r2, #0
 8000f1e:	f883 2038 	strb.w	r2, [r3, #56]	; 0x38
  if (HAL_ADC_Init(&hadc1) != HAL_OK)
 8000f22:	4837      	ldr	r0, [pc, #220]	; (8001000 <MX_ADC1_Init+0x158>)
 8000f24:	f002 fb2a 	bl	800357c <HAL_ADC_Init>
 8000f28:	4603      	mov	r3, r0
 8000f2a:	2b00      	cmp	r3, #0
 8000f2c:	d001      	beq.n	8000f32 <MX_ADC1_Init+0x8a>
  {
    Error_Handler();
 8000f2e:	f000 fed5 	bl	8001cdc <Error_Handler>
  }
  /** Configure Regular Channel
  */
  sConfig.Channel = ADC_CHANNEL_8;
 8000f32:	4b35      	ldr	r3, [pc, #212]	; (8001008 <MX_ADC1_Init+0x160>)
 8000f34:	603b      	str	r3, [r7, #0]
  sConfig.Rank = ADC_REGULAR_RANK_1;
 8000f36:	2306      	movs	r3, #6
 8000f38:	607b      	str	r3, [r7, #4]
  sConfig.SamplingTime = ADC_SAMPLETIME_12CYCLES_5;
 8000f3a:	2302      	movs	r3, #2
 8000f3c:	60bb      	str	r3, [r7, #8]
  sConfig.SingleDiff = ADC_SINGLE_ENDED;
 8000f3e:	237f      	movs	r3, #127	; 0x7f
 8000f40:	60fb      	str	r3, [r7, #12]
  sConfig.OffsetNumber = ADC_OFFSET_NONE;
 8000f42:	2304      	movs	r3, #4
 8000f44:	613b      	str	r3, [r7, #16]
  sConfig.Offset = 0;
 8000f46:	2300      	movs	r3, #0
 8000f48:	617b      	str	r3, [r7, #20]
  if (HAL_ADC_ConfigChannel(&hadc1, &sConfig) != HAL_OK)
 8000f4a:	463b      	mov	r3, r7
 8000f4c:	4619      	mov	r1, r3
 8000f4e:	482c      	ldr	r0, [pc, #176]	; (8001000 <MX_ADC1_Init+0x158>)
 8000f50:	f002 fce8 	bl	8003924 <HAL_ADC_ConfigChannel>
 8000f54:	4603      	mov	r3, r0
 8000f56:	2b00      	cmp	r3, #0
 8000f58:	d001      	beq.n	8000f5e <MX_ADC1_Init+0xb6>
  {
    Error_Handler();
 8000f5a:	f000 febf 	bl	8001cdc <Error_Handler>
  }
  /** Configure Regular Channel
  */
  sConfig.Channel = ADC_CHANNEL_5;
 8000f5e:	4b2b      	ldr	r3, [pc, #172]	; (800100c <MX_ADC1_Init+0x164>)
 8000f60:	603b      	str	r3, [r7, #0]
  sConfig.Rank = ADC_REGULAR_RANK_2;
 8000f62:	230c      	movs	r3, #12
 8000f64:	607b      	str	r3, [r7, #4]
  if (HAL_ADC_ConfigChannel(&hadc1, &sConfig) != HAL_OK)
 8000f66:	463b      	mov	r3, r7
 8000f68:	4619      	mov	r1, r3
 8000f6a:	4825      	ldr	r0, [pc, #148]	; (8001000 <MX_ADC1_Init+0x158>)
 8000f6c:	f002 fcda 	bl	8003924 <HAL_ADC_ConfigChannel>
 8000f70:	4603      	mov	r3, r0
 8000f72:	2b00      	cmp	r3, #0
 8000f74:	d001      	beq.n	8000f7a <MX_ADC1_Init+0xd2>
  {
    Error_Handler();
 8000f76:	f000 feb1 	bl	8001cdc <Error_Handler>
  }
  /** Configure Regular Channel
  */
  sConfig.Channel = ADC_CHANNEL_6;
 8000f7a:	4b25      	ldr	r3, [pc, #148]	; (8001010 <MX_ADC1_Init+0x168>)
 8000f7c:	603b      	str	r3, [r7, #0]
  sConfig.Rank = ADC_REGULAR_RANK_3;
 8000f7e:	2312      	movs	r3, #18
 8000f80:	607b      	str	r3, [r7, #4]
  if (HAL_ADC_ConfigChannel(&hadc1, &sConfig) != HAL_OK)
 8000f82:	463b      	mov	r3, r7
 8000f84:	4619      	mov	r1, r3
 8000f86:	481e      	ldr	r0, [pc, #120]	; (8001000 <MX_ADC1_Init+0x158>)
 8000f88:	f002 fccc 	bl	8003924 <HAL_ADC_ConfigChannel>
 8000f8c:	4603      	mov	r3, r0
 8000f8e:	2b00      	cmp	r3, #0
 8000f90:	d001      	beq.n	8000f96 <MX_ADC1_Init+0xee>
  {
    Error_Handler();
 8000f92:	f000 fea3 	bl	8001cdc <Error_Handler>
  }
  /** Configure Regular Channel
  */
  sConfig.Channel = ADC_CHANNEL_11;
 8000f96:	4b1f      	ldr	r3, [pc, #124]	; (8001014 <MX_ADC1_Init+0x16c>)
 8000f98:	603b      	str	r3, [r7, #0]
  sConfig.Rank = ADC_REGULAR_RANK_4;
 8000f9a:	2318      	movs	r3, #24
 8000f9c:	607b      	str	r3, [r7, #4]
  sConfig.SamplingTime = ADC_SAMPLETIME_2CYCLES_5;
 8000f9e:	2300      	movs	r3, #0
 8000fa0:	60bb      	str	r3, [r7, #8]
  if (HAL_ADC_ConfigChannel(&hadc1, &sConfig) != HAL_OK)
 8000fa2:	463b      	mov	r3, r7
 8000fa4:	4619      	mov	r1, r3
 8000fa6:	4816      	ldr	r0, [pc, #88]	; (8001000 <MX_ADC1_Init+0x158>)
 8000fa8:	f002 fcbc 	bl	8003924 <HAL_ADC_ConfigChannel>
 8000fac:	4603      	mov	r3, r0
 8000fae:	2b00      	cmp	r3, #0
 8000fb0:	d001      	beq.n	8000fb6 <MX_ADC1_Init+0x10e>
  {
    Error_Handler();
 8000fb2:	f000 fe93 	bl	8001cdc <Error_Handler>
  }
  /** Configure Regular Channel
  */
  sConfig.Channel = ADC_CHANNEL_12;
 8000fb6:	4b18      	ldr	r3, [pc, #96]	; (8001018 <MX_ADC1_Init+0x170>)
 8000fb8:	603b      	str	r3, [r7, #0]
  sConfig.Rank = ADC_REGULAR_RANK_5;
 8000fba:	f44f 7380 	mov.w	r3, #256	; 0x100
 8000fbe:	607b      	str	r3, [r7, #4]
  sConfig.SamplingTime = ADC_SAMPLETIME_12CYCLES_5;
 8000fc0:	2302      	movs	r3, #2
 8000fc2:	60bb      	str	r3, [r7, #8]
  if (HAL_ADC_ConfigChannel(&hadc1, &sConfig) != HAL_OK)
 8000fc4:	463b      	mov	r3, r7
 8000fc6:	4619      	mov	r1, r3
 8000fc8:	480d      	ldr	r0, [pc, #52]	; (8001000 <MX_ADC1_Init+0x158>)
 8000fca:	f002 fcab 	bl	8003924 <HAL_ADC_ConfigChannel>
 8000fce:	4603      	mov	r3, r0
 8000fd0:	2b00      	cmp	r3, #0
 8000fd2:	d001      	beq.n	8000fd8 <MX_ADC1_Init+0x130>
  {
    Error_Handler();
 8000fd4:	f000 fe82 	bl	8001cdc <Error_Handler>
  }
  /** Configure Regular Channel
  */
  sConfig.Channel = ADC_CHANNEL_15;
 8000fd8:	4b10      	ldr	r3, [pc, #64]	; (800101c <MX_ADC1_Init+0x174>)
 8000fda:	603b      	str	r3, [r7, #0]
  sConfig.Rank = ADC_REGULAR_RANK_6;
 8000fdc:	f44f 7383 	mov.w	r3, #262	; 0x106
 8000fe0:	607b      	str	r3, [r7, #4]
  if (HAL_ADC_ConfigChannel(&hadc1, &sConfig) != HAL_OK)
 8000fe2:	463b      	mov	r3, r7
 8000fe4:	4619      	mov	r1, r3
 8000fe6:	4806      	ldr	r0, [pc, #24]	; (8001000 <MX_ADC1_Init+0x158>)
 8000fe8:	f002 fc9c 	bl	8003924 <HAL_ADC_ConfigChannel>
 8000fec:	4603      	mov	r3, r0
 8000fee:	2b00      	cmp	r3, #0
 8000ff0:	d001      	beq.n	8000ff6 <MX_ADC1_Init+0x14e>
  {
    Error_Handler();
 8000ff2:	f000 fe73 	bl	8001cdc <Error_Handler>
  }

}
 8000ff6:	bf00      	nop
 8000ff8:	3718      	adds	r7, #24
 8000ffa:	46bd      	mov	sp, r7
 8000ffc:	bd80      	pop	{r7, pc}
 8000ffe:	bf00      	nop
 8001000:	20000e00 	.word	0x20000e00
 8001004:	50040000 	.word	0x50040000
 8001008:	21800100 	.word	0x21800100
 800100c:	14f00020 	.word	0x14f00020
 8001010:	19200040 	.word	0x19200040
 8001014:	2e300800 	.word	0x2e300800
 8001018:	32601000 	.word	0x32601000
 800101c:	3ef08000 	.word	0x3ef08000

08001020 <HAL_ADC_MspInit>:

void HAL_ADC_MspInit(ADC_HandleTypeDef* adcHandle)
{
 8001020:	b580      	push	{r7, lr}
 8001022:	b08a      	sub	sp, #40	; 0x28
 8001024:	af00      	add	r7, sp, #0
 8001026:	6078      	str	r0, [r7, #4]

  GPIO_InitTypeDef GPIO_InitStruct = {0};
 8001028:	f107 0314 	add.w	r3, r7, #20
 800102c:	2200      	movs	r2, #0
 800102e:	601a      	str	r2, [r3, #0]
 8001030:	605a      	str	r2, [r3, #4]
 8001032:	609a      	str	r2, [r3, #8]
 8001034:	60da      	str	r2, [r3, #12]
 8001036:	611a      	str	r2, [r3, #16]
  if(adcHandle->Instance==ADC1)
 8001038:	687b      	ldr	r3, [r7, #4]
 800103a:	681b      	ldr	r3, [r3, #0]
 800103c:	4a37      	ldr	r2, [pc, #220]	; (800111c <HAL_ADC_MspInit+0xfc>)
 800103e:	4293      	cmp	r3, r2
 8001040:	d168      	bne.n	8001114 <HAL_ADC_MspInit+0xf4>
  {
  /* USER CODE BEGIN ADC1_MspInit 0 */

  /* USER CODE END ADC1_MspInit 0 */
    /* ADC1 clock enable */
    __HAL_RCC_ADC_CLK_ENABLE();
 8001042:	4b37      	ldr	r3, [pc, #220]	; (8001120 <HAL_ADC_MspInit+0x100>)
 8001044:	6cdb      	ldr	r3, [r3, #76]	; 0x4c
 8001046:	4a36      	ldr	r2, [pc, #216]	; (8001120 <HAL_ADC_MspInit+0x100>)
 8001048:	f443 5300 	orr.w	r3, r3, #8192	; 0x2000
 800104c:	64d3      	str	r3, [r2, #76]	; 0x4c
 800104e:	4b34      	ldr	r3, [pc, #208]	; (8001120 <HAL_ADC_MspInit+0x100>)
 8001050:	6cdb      	ldr	r3, [r3, #76]	; 0x4c
 8001052:	f403 5300 	and.w	r3, r3, #8192	; 0x2000
 8001056:	613b      	str	r3, [r7, #16]
 8001058:	693b      	ldr	r3, [r7, #16]

    __HAL_RCC_GPIOA_CLK_ENABLE();
 800105a:	4b31      	ldr	r3, [pc, #196]	; (8001120 <HAL_ADC_MspInit+0x100>)
 800105c:	6cdb      	ldr	r3, [r3, #76]	; 0x4c
 800105e:	4a30      	ldr	r2, [pc, #192]	; (8001120 <HAL_ADC_MspInit+0x100>)
 8001060:	f043 0301 	orr.w	r3, r3, #1
 8001064:	64d3      	str	r3, [r2, #76]	; 0x4c
 8001066:	4b2e      	ldr	r3, [pc, #184]	; (8001120 <HAL_ADC_MspInit+0x100>)
 8001068:	6cdb      	ldr	r3, [r3, #76]	; 0x4c
 800106a:	f003 0301 	and.w	r3, r3, #1
 800106e:	60fb      	str	r3, [r7, #12]
 8001070:	68fb      	ldr	r3, [r7, #12]
    __HAL_RCC_GPIOB_CLK_ENABLE();
 8001072:	4b2b      	ldr	r3, [pc, #172]	; (8001120 <HAL_ADC_MspInit+0x100>)
 8001074:	6cdb      	ldr	r3, [r3, #76]	; 0x4c
 8001076:	4a2a      	ldr	r2, [pc, #168]	; (8001120 <HAL_ADC_MspInit+0x100>)
 8001078:	f043 0302 	orr.w	r3, r3, #2
 800107c:	64d3      	str	r3, [r2, #76]	; 0x4c
 800107e:	4b28      	ldr	r3, [pc, #160]	; (8001120 <HAL_ADC_MspInit+0x100>)
 8001080:	6cdb      	ldr	r3, [r3, #76]	; 0x4c
 8001082:	f003 0302 	and.w	r3, r3, #2
 8001086:	60bb      	str	r3, [r7, #8]
 8001088:	68bb      	ldr	r3, [r7, #8]
    PA3     ------> ADC1_IN8
    PA6     ------> ADC1_IN11
    PA7     ------> ADC1_IN12
    PB0     ------> ADC1_IN15
    */
    GPIO_InitStruct.Pin = GPIO_PIN_0|GPIO_PIN_1|GPIO_PIN_3|GPIO_PIN_6
 800108a:	23cb      	movs	r3, #203	; 0xcb
 800108c:	617b      	str	r3, [r7, #20]
                          |GPIO_PIN_7;
    GPIO_InitStruct.Mode = GPIO_MODE_ANALOG_ADC_CONTROL;
 800108e:	230b      	movs	r3, #11
 8001090:	61bb      	str	r3, [r7, #24]
    GPIO_InitStruct.Pull = GPIO_NOPULL;
 8001092:	2300      	movs	r3, #0
 8001094:	61fb      	str	r3, [r7, #28]
    HAL_GPIO_Init(GPIOA, &GPIO_InitStruct);
 8001096:	f107 0314 	add.w	r3, r7, #20
 800109a:	4619      	mov	r1, r3
 800109c:	f04f 4090 	mov.w	r0, #1207959552	; 0x48000000
 80010a0:	f003 feb8 	bl	8004e14 <HAL_GPIO_Init>

    GPIO_InitStruct.Pin = GPIO_PIN_0;
 80010a4:	2301      	movs	r3, #1
 80010a6:	617b      	str	r3, [r7, #20]
    GPIO_InitStruct.Mode = GPIO_MODE_ANALOG_ADC_CONTROL;
 80010a8:	230b      	movs	r3, #11
 80010aa:	61bb      	str	r3, [r7, #24]
    GPIO_InitStruct.Pull = GPIO_NOPULL;
 80010ac:	2300      	movs	r3, #0
 80010ae:	61fb      	str	r3, [r7, #28]
    HAL_GPIO_Init(GPIOB, &GPIO_InitStruct);
 80010b0:	f107 0314 	add.w	r3, r7, #20
 80010b4:	4619      	mov	r1, r3
 80010b6:	481b      	ldr	r0, [pc, #108]	; (8001124 <HAL_ADC_MspInit+0x104>)
 80010b8:	f003 feac 	bl	8004e14 <HAL_GPIO_Init>

    /* ADC1 DMA Init */
    /* ADC1 Init */
    hdma_adc1.Instance = DMA1_Channel1;
 80010bc:	4b1a      	ldr	r3, [pc, #104]	; (8001128 <HAL_ADC_MspInit+0x108>)
 80010be:	4a1b      	ldr	r2, [pc, #108]	; (800112c <HAL_ADC_MspInit+0x10c>)
 80010c0:	601a      	str	r2, [r3, #0]
    hdma_adc1.Init.Request = DMA_REQUEST_0;
 80010c2:	4b19      	ldr	r3, [pc, #100]	; (8001128 <HAL_ADC_MspInit+0x108>)
 80010c4:	2200      	movs	r2, #0
 80010c6:	605a      	str	r2, [r3, #4]
    hdma_adc1.Init.Direction = DMA_PERIPH_TO_MEMORY;
 80010c8:	4b17      	ldr	r3, [pc, #92]	; (8001128 <HAL_ADC_MspInit+0x108>)
 80010ca:	2200      	movs	r2, #0
 80010cc:	609a      	str	r2, [r3, #8]
    hdma_adc1.Init.PeriphInc = DMA_PINC_DISABLE;
 80010ce:	4b16      	ldr	r3, [pc, #88]	; (8001128 <HAL_ADC_MspInit+0x108>)
 80010d0:	2200      	movs	r2, #0
 80010d2:	60da      	str	r2, [r3, #12]
    hdma_adc1.Init.MemInc = DMA_MINC_ENABLE;
 80010d4:	4b14      	ldr	r3, [pc, #80]	; (8001128 <HAL_ADC_MspInit+0x108>)
 80010d6:	2280      	movs	r2, #128	; 0x80
 80010d8:	611a      	str	r2, [r3, #16]
    hdma_adc1.Init.PeriphDataAlignment = DMA_PDATAALIGN_HALFWORD;
 80010da:	4b13      	ldr	r3, [pc, #76]	; (8001128 <HAL_ADC_MspInit+0x108>)
 80010dc:	f44f 7280 	mov.w	r2, #256	; 0x100
 80010e0:	615a      	str	r2, [r3, #20]
    hdma_adc1.Init.MemDataAlignment = DMA_MDATAALIGN_HALFWORD;
 80010e2:	4b11      	ldr	r3, [pc, #68]	; (8001128 <HAL_ADC_MspInit+0x108>)
 80010e4:	f44f 6280 	mov.w	r2, #1024	; 0x400
 80010e8:	619a      	str	r2, [r3, #24]
    hdma_adc1.Init.Mode = DMA_CIRCULAR;
 80010ea:	4b0f      	ldr	r3, [pc, #60]	; (8001128 <HAL_ADC_MspInit+0x108>)
 80010ec:	2220      	movs	r2, #32
 80010ee:	61da      	str	r2, [r3, #28]
    hdma_adc1.Init.Priority = DMA_PRIORITY_HIGH;
 80010f0:	4b0d      	ldr	r3, [pc, #52]	; (8001128 <HAL_ADC_MspInit+0x108>)
 80010f2:	f44f 5200 	mov.w	r2, #8192	; 0x2000
 80010f6:	621a      	str	r2, [r3, #32]
    if (HAL_DMA_Init(&hdma_adc1) != HAL_OK)
 80010f8:	480b      	ldr	r0, [pc, #44]	; (8001128 <HAL_ADC_MspInit+0x108>)
 80010fa:	f003 fc93 	bl	8004a24 <HAL_DMA_Init>
 80010fe:	4603      	mov	r3, r0
 8001100:	2b00      	cmp	r3, #0
 8001102:	d001      	beq.n	8001108 <HAL_ADC_MspInit+0xe8>
    {
      Error_Handler();
 8001104:	f000 fdea 	bl	8001cdc <Error_Handler>
    }

    __HAL_LINKDMA(adcHandle,DMA_Handle,hdma_adc1);
 8001108:	687b      	ldr	r3, [r7, #4]
 800110a:	4a07      	ldr	r2, [pc, #28]	; (8001128 <HAL_ADC_MspInit+0x108>)
 800110c:	64da      	str	r2, [r3, #76]	; 0x4c
 800110e:	4a06      	ldr	r2, [pc, #24]	; (8001128 <HAL_ADC_MspInit+0x108>)
 8001110:	687b      	ldr	r3, [r7, #4]
 8001112:	6293      	str	r3, [r2, #40]	; 0x28

  /* USER CODE BEGIN ADC1_MspInit 1 */

  /* USER CODE END ADC1_MspInit 1 */
  }
}
 8001114:	bf00      	nop
 8001116:	3728      	adds	r7, #40	; 0x28
 8001118:	46bd      	mov	sp, r7
 800111a:	bd80      	pop	{r7, pc}
 800111c:	50040000 	.word	0x50040000
 8001120:	40021000 	.word	0x40021000
 8001124:	48000400 	.word	0x48000400
 8001128:	20000e64 	.word	0x20000e64
 800112c:	40020008 	.word	0x40020008

08001130 <MX_DAC1_Init>:
DMA_HandleTypeDef hdma_dac_ch1;
DMA_HandleTypeDef hdma_dac_ch2;

/* DAC1 init function */
void MX_DAC1_Init(void)
{
 8001130:	b580      	push	{r7, lr}
 8001132:	b08a      	sub	sp, #40	; 0x28
 8001134:	af00      	add	r7, sp, #0
  DAC_ChannelConfTypeDef sConfig = {0};
 8001136:	1d3b      	adds	r3, r7, #4
 8001138:	2224      	movs	r2, #36	; 0x24
 800113a:	2100      	movs	r1, #0
 800113c:	4618      	mov	r0, r3
 800113e:	f006 fdc5 	bl	8007ccc <memset>

  /** DAC Initialization
  */
  hdac1.Instance = DAC1;
 8001142:	4b18      	ldr	r3, [pc, #96]	; (80011a4 <MX_DAC1_Init+0x74>)
 8001144:	4a18      	ldr	r2, [pc, #96]	; (80011a8 <MX_DAC1_Init+0x78>)
 8001146:	601a      	str	r2, [r3, #0]
  if (HAL_DAC_Init(&hdac1) != HAL_OK)
 8001148:	4816      	ldr	r0, [pc, #88]	; (80011a4 <MX_DAC1_Init+0x74>)
 800114a:	f003 f9c8 	bl	80044de <HAL_DAC_Init>
 800114e:	4603      	mov	r3, r0
 8001150:	2b00      	cmp	r3, #0
 8001152:	d001      	beq.n	8001158 <MX_DAC1_Init+0x28>
  {
    Error_Handler();
 8001154:	f000 fdc2 	bl	8001cdc <Error_Handler>
  }
  /** DAC channel OUT1 config
  */
  sConfig.DAC_SampleAndHold = DAC_SAMPLEANDHOLD_DISABLE;
 8001158:	2300      	movs	r3, #0
 800115a:	607b      	str	r3, [r7, #4]
  sConfig.DAC_Trigger = DAC_TRIGGER_T2_TRGO;
 800115c:	2324      	movs	r3, #36	; 0x24
 800115e:	60bb      	str	r3, [r7, #8]
  sConfig.DAC_OutputBuffer = DAC_OUTPUTBUFFER_ENABLE;
 8001160:	2300      	movs	r3, #0
 8001162:	60fb      	str	r3, [r7, #12]
  sConfig.DAC_ConnectOnChipPeripheral = DAC_CHIPCONNECT_DISABLE;
 8001164:	2300      	movs	r3, #0
 8001166:	613b      	str	r3, [r7, #16]
  sConfig.DAC_UserTrimming = DAC_TRIMMING_FACTORY;
 8001168:	2300      	movs	r3, #0
 800116a:	617b      	str	r3, [r7, #20]
  if (HAL_DAC_ConfigChannel(&hdac1, &sConfig, DAC_CHANNEL_1) != HAL_OK)
 800116c:	1d3b      	adds	r3, r7, #4
 800116e:	2200      	movs	r2, #0
 8001170:	4619      	mov	r1, r3
 8001172:	480c      	ldr	r0, [pc, #48]	; (80011a4 <MX_DAC1_Init+0x74>)
 8001174:	f003 fab2 	bl	80046dc <HAL_DAC_ConfigChannel>
 8001178:	4603      	mov	r3, r0
 800117a:	2b00      	cmp	r3, #0
 800117c:	d001      	beq.n	8001182 <MX_DAC1_Init+0x52>
  {
    Error_Handler();
 800117e:	f000 fdad 	bl	8001cdc <Error_Handler>
  }
  /** DAC channel OUT2 config
  */
  sConfig.DAC_ConnectOnChipPeripheral = DAC_CHIPCONNECT_DISABLE;
 8001182:	2300      	movs	r3, #0
 8001184:	613b      	str	r3, [r7, #16]
  if (HAL_DAC_ConfigChannel(&hdac1, &sConfig, DAC_CHANNEL_2) != HAL_OK)
 8001186:	1d3b      	adds	r3, r7, #4
 8001188:	2210      	movs	r2, #16
 800118a:	4619      	mov	r1, r3
 800118c:	4805      	ldr	r0, [pc, #20]	; (80011a4 <MX_DAC1_Init+0x74>)
 800118e:	f003 faa5 	bl	80046dc <HAL_DAC_ConfigChannel>
 8001192:	4603      	mov	r3, r0
 8001194:	2b00      	cmp	r3, #0
 8001196:	d001      	beq.n	800119c <MX_DAC1_Init+0x6c>
  {
    Error_Handler();
 8001198:	f000 fda0 	bl	8001cdc <Error_Handler>
  }

}
 800119c:	bf00      	nop
 800119e:	3728      	adds	r7, #40	; 0x28
 80011a0:	46bd      	mov	sp, r7
 80011a2:	bd80      	pop	{r7, pc}
 80011a4:	20000eac 	.word	0x20000eac
 80011a8:	40007400 	.word	0x40007400

080011ac <HAL_DAC_MspInit>:

void HAL_DAC_MspInit(DAC_HandleTypeDef* dacHandle)
{
 80011ac:	b580      	push	{r7, lr}
 80011ae:	b08a      	sub	sp, #40	; 0x28
 80011b0:	af00      	add	r7, sp, #0
 80011b2:	6078      	str	r0, [r7, #4]

  GPIO_InitTypeDef GPIO_InitStruct = {0};
 80011b4:	f107 0314 	add.w	r3, r7, #20
 80011b8:	2200      	movs	r2, #0
 80011ba:	601a      	str	r2, [r3, #0]
 80011bc:	605a      	str	r2, [r3, #4]
 80011be:	609a      	str	r2, [r3, #8]
 80011c0:	60da      	str	r2, [r3, #12]
 80011c2:	611a      	str	r2, [r3, #16]
  if(dacHandle->Instance==DAC1)
 80011c4:	687b      	ldr	r3, [r7, #4]
 80011c6:	681b      	ldr	r3, [r3, #0]
 80011c8:	4a41      	ldr	r2, [pc, #260]	; (80012d0 <HAL_DAC_MspInit+0x124>)
 80011ca:	4293      	cmp	r3, r2
 80011cc:	d17c      	bne.n	80012c8 <HAL_DAC_MspInit+0x11c>
  {
  /* USER CODE BEGIN DAC1_MspInit 0 */

  /* USER CODE END DAC1_MspInit 0 */
    /* DAC1 clock enable */
    __HAL_RCC_DAC1_CLK_ENABLE();
 80011ce:	4b41      	ldr	r3, [pc, #260]	; (80012d4 <HAL_DAC_MspInit+0x128>)
 80011d0:	6d9b      	ldr	r3, [r3, #88]	; 0x58
 80011d2:	4a40      	ldr	r2, [pc, #256]	; (80012d4 <HAL_DAC_MspInit+0x128>)
 80011d4:	f043 5300 	orr.w	r3, r3, #536870912	; 0x20000000
 80011d8:	6593      	str	r3, [r2, #88]	; 0x58
 80011da:	4b3e      	ldr	r3, [pc, #248]	; (80012d4 <HAL_DAC_MspInit+0x128>)
 80011dc:	6d9b      	ldr	r3, [r3, #88]	; 0x58
 80011de:	f003 5300 	and.w	r3, r3, #536870912	; 0x20000000
 80011e2:	613b      	str	r3, [r7, #16]
 80011e4:	693b      	ldr	r3, [r7, #16]

    __HAL_RCC_GPIOA_CLK_ENABLE();
 80011e6:	4b3b      	ldr	r3, [pc, #236]	; (80012d4 <HAL_DAC_MspInit+0x128>)
 80011e8:	6cdb      	ldr	r3, [r3, #76]	; 0x4c
 80011ea:	4a3a      	ldr	r2, [pc, #232]	; (80012d4 <HAL_DAC_MspInit+0x128>)
 80011ec:	f043 0301 	orr.w	r3, r3, #1
 80011f0:	64d3      	str	r3, [r2, #76]	; 0x4c
 80011f2:	4b38      	ldr	r3, [pc, #224]	; (80012d4 <HAL_DAC_MspInit+0x128>)
 80011f4:	6cdb      	ldr	r3, [r3, #76]	; 0x4c
 80011f6:	f003 0301 	and.w	r3, r3, #1
 80011fa:	60fb      	str	r3, [r7, #12]
 80011fc:	68fb      	ldr	r3, [r7, #12]
    /**DAC1 GPIO Configuration
    PA4     ------> DAC1_OUT1
    PA5     ------> DAC1_OUT2
    */
    GPIO_InitStruct.Pin = GPIO_PIN_4|GPIO_PIN_5;
 80011fe:	2330      	movs	r3, #48	; 0x30
 8001200:	617b      	str	r3, [r7, #20]
    GPIO_InitStruct.Mode = GPIO_MODE_ANALOG;
 8001202:	2303      	movs	r3, #3
 8001204:	61bb      	str	r3, [r7, #24]
    GPIO_InitStruct.Pull = GPIO_NOPULL;
 8001206:	2300      	movs	r3, #0
 8001208:	61fb      	str	r3, [r7, #28]
    HAL_GPIO_Init(GPIOA, &GPIO_InitStruct);
 800120a:	f107 0314 	add.w	r3, r7, #20
 800120e:	4619      	mov	r1, r3
 8001210:	f04f 4090 	mov.w	r0, #1207959552	; 0x48000000
 8001214:	f003 fdfe 	bl	8004e14 <HAL_GPIO_Init>

    /* DAC1 DMA Init */
    /* DAC_CH1 Init */
    hdma_dac_ch1.Instance = DMA1_Channel3;
 8001218:	4b2f      	ldr	r3, [pc, #188]	; (80012d8 <HAL_DAC_MspInit+0x12c>)
 800121a:	4a30      	ldr	r2, [pc, #192]	; (80012dc <HAL_DAC_MspInit+0x130>)
 800121c:	601a      	str	r2, [r3, #0]
    hdma_dac_ch1.Init.Request = DMA_REQUEST_6;
 800121e:	4b2e      	ldr	r3, [pc, #184]	; (80012d8 <HAL_DAC_MspInit+0x12c>)
 8001220:	2206      	movs	r2, #6
 8001222:	605a      	str	r2, [r3, #4]
    hdma_dac_ch1.Init.Direction = DMA_MEMORY_TO_PERIPH;
 8001224:	4b2c      	ldr	r3, [pc, #176]	; (80012d8 <HAL_DAC_MspInit+0x12c>)
 8001226:	2210      	movs	r2, #16
 8001228:	609a      	str	r2, [r3, #8]
    hdma_dac_ch1.Init.PeriphInc = DMA_PINC_DISABLE;
 800122a:	4b2b      	ldr	r3, [pc, #172]	; (80012d8 <HAL_DAC_MspInit+0x12c>)
 800122c:	2200      	movs	r2, #0
 800122e:	60da      	str	r2, [r3, #12]
    hdma_dac_ch1.Init.MemInc = DMA_MINC_ENABLE;
 8001230:	4b29      	ldr	r3, [pc, #164]	; (80012d8 <HAL_DAC_MspInit+0x12c>)
 8001232:	2280      	movs	r2, #128	; 0x80
 8001234:	611a      	str	r2, [r3, #16]
    hdma_dac_ch1.Init.PeriphDataAlignment = DMA_PDATAALIGN_HALFWORD;
 8001236:	4b28      	ldr	r3, [pc, #160]	; (80012d8 <HAL_DAC_MspInit+0x12c>)
 8001238:	f44f 7280 	mov.w	r2, #256	; 0x100
 800123c:	615a      	str	r2, [r3, #20]
    hdma_dac_ch1.Init.MemDataAlignment = DMA_MDATAALIGN_HALFWORD;
 800123e:	4b26      	ldr	r3, [pc, #152]	; (80012d8 <HAL_DAC_MspInit+0x12c>)
 8001240:	f44f 6280 	mov.w	r2, #1024	; 0x400
 8001244:	619a      	str	r2, [r3, #24]
    hdma_dac_ch1.Init.Mode = DMA_CIRCULAR;
 8001246:	4b24      	ldr	r3, [pc, #144]	; (80012d8 <HAL_DAC_MspInit+0x12c>)
 8001248:	2220      	movs	r2, #32
 800124a:	61da      	str	r2, [r3, #28]
    hdma_dac_ch1.Init.Priority = DMA_PRIORITY_HIGH;
 800124c:	4b22      	ldr	r3, [pc, #136]	; (80012d8 <HAL_DAC_MspInit+0x12c>)
 800124e:	f44f 5200 	mov.w	r2, #8192	; 0x2000
 8001252:	621a      	str	r2, [r3, #32]
    if (HAL_DMA_Init(&hdma_dac_ch1) != HAL_OK)
 8001254:	4820      	ldr	r0, [pc, #128]	; (80012d8 <HAL_DAC_MspInit+0x12c>)
 8001256:	f003 fbe5 	bl	8004a24 <HAL_DMA_Init>
 800125a:	4603      	mov	r3, r0
 800125c:	2b00      	cmp	r3, #0
 800125e:	d001      	beq.n	8001264 <HAL_DAC_MspInit+0xb8>
    {
      Error_Handler();
 8001260:	f000 fd3c 	bl	8001cdc <Error_Handler>
    }

    __HAL_LINKDMA(dacHandle,DMA_Handle1,hdma_dac_ch1);
 8001264:	687b      	ldr	r3, [r7, #4]
 8001266:	4a1c      	ldr	r2, [pc, #112]	; (80012d8 <HAL_DAC_MspInit+0x12c>)
 8001268:	609a      	str	r2, [r3, #8]
 800126a:	4a1b      	ldr	r2, [pc, #108]	; (80012d8 <HAL_DAC_MspInit+0x12c>)
 800126c:	687b      	ldr	r3, [r7, #4]
 800126e:	6293      	str	r3, [r2, #40]	; 0x28

    /* DAC_CH2 Init */
    hdma_dac_ch2.Instance = DMA1_Channel4;
 8001270:	4b1b      	ldr	r3, [pc, #108]	; (80012e0 <HAL_DAC_MspInit+0x134>)
 8001272:	4a1c      	ldr	r2, [pc, #112]	; (80012e4 <HAL_DAC_MspInit+0x138>)
 8001274:	601a      	str	r2, [r3, #0]
    hdma_dac_ch2.Init.Request = DMA_REQUEST_5;
 8001276:	4b1a      	ldr	r3, [pc, #104]	; (80012e0 <HAL_DAC_MspInit+0x134>)
 8001278:	2205      	movs	r2, #5
 800127a:	605a      	str	r2, [r3, #4]
    hdma_dac_ch2.Init.Direction = DMA_MEMORY_TO_PERIPH;
 800127c:	4b18      	ldr	r3, [pc, #96]	; (80012e0 <HAL_DAC_MspInit+0x134>)
 800127e:	2210      	movs	r2, #16
 8001280:	609a      	str	r2, [r3, #8]
    hdma_dac_ch2.Init.PeriphInc = DMA_PINC_DISABLE;
 8001282:	4b17      	ldr	r3, [pc, #92]	; (80012e0 <HAL_DAC_MspInit+0x134>)
 8001284:	2200      	movs	r2, #0
 8001286:	60da      	str	r2, [r3, #12]
    hdma_dac_ch2.Init.MemInc = DMA_MINC_ENABLE;
 8001288:	4b15      	ldr	r3, [pc, #84]	; (80012e0 <HAL_DAC_MspInit+0x134>)
 800128a:	2280      	movs	r2, #128	; 0x80
 800128c:	611a      	str	r2, [r3, #16]
    hdma_dac_ch2.Init.PeriphDataAlignment = DMA_PDATAALIGN_HALFWORD;
 800128e:	4b14      	ldr	r3, [pc, #80]	; (80012e0 <HAL_DAC_MspInit+0x134>)
 8001290:	f44f 7280 	mov.w	r2, #256	; 0x100
 8001294:	615a      	str	r2, [r3, #20]
    hdma_dac_ch2.Init.MemDataAlignment = DMA_MDATAALIGN_HALFWORD;
 8001296:	4b12      	ldr	r3, [pc, #72]	; (80012e0 <HAL_DAC_MspInit+0x134>)
 8001298:	f44f 6280 	mov.w	r2, #1024	; 0x400
 800129c:	619a      	str	r2, [r3, #24]
    hdma_dac_ch2.Init.Mode = DMA_CIRCULAR;
 800129e:	4b10      	ldr	r3, [pc, #64]	; (80012e0 <HAL_DAC_MspInit+0x134>)
 80012a0:	2220      	movs	r2, #32
 80012a2:	61da      	str	r2, [r3, #28]
    hdma_dac_ch2.Init.Priority = DMA_PRIORITY_HIGH;
 80012a4:	4b0e      	ldr	r3, [pc, #56]	; (80012e0 <HAL_DAC_MspInit+0x134>)
 80012a6:	f44f 5200 	mov.w	r2, #8192	; 0x2000
 80012aa:	621a      	str	r2, [r3, #32]
    if (HAL_DMA_Init(&hdma_dac_ch2) != HAL_OK)
 80012ac:	480c      	ldr	r0, [pc, #48]	; (80012e0 <HAL_DAC_MspInit+0x134>)
 80012ae:	f003 fbb9 	bl	8004a24 <HAL_DMA_Init>
 80012b2:	4603      	mov	r3, r0
 80012b4:	2b00      	cmp	r3, #0
 80012b6:	d001      	beq.n	80012bc <HAL_DAC_MspInit+0x110>
    {
      Error_Handler();
 80012b8:	f000 fd10 	bl	8001cdc <Error_Handler>
    }

    __HAL_LINKDMA(dacHandle,DMA_Handle2,hdma_dac_ch2);
 80012bc:	687b      	ldr	r3, [r7, #4]
 80012be:	4a08      	ldr	r2, [pc, #32]	; (80012e0 <HAL_DAC_MspInit+0x134>)
 80012c0:	60da      	str	r2, [r3, #12]
 80012c2:	4a07      	ldr	r2, [pc, #28]	; (80012e0 <HAL_DAC_MspInit+0x134>)
 80012c4:	687b      	ldr	r3, [r7, #4]
 80012c6:	6293      	str	r3, [r2, #40]	; 0x28

  /* USER CODE BEGIN DAC1_MspInit 1 */

  /* USER CODE END DAC1_MspInit 1 */
  }
}
 80012c8:	bf00      	nop
 80012ca:	3728      	adds	r7, #40	; 0x28
 80012cc:	46bd      	mov	sp, r7
 80012ce:	bd80      	pop	{r7, pc}
 80012d0:	40007400 	.word	0x40007400
 80012d4:	40021000 	.word	0x40021000
 80012d8:	20000ec0 	.word	0x20000ec0
 80012dc:	40020030 	.word	0x40020030
 80012e0:	20000f08 	.word	0x20000f08
 80012e4:	40020044 	.word	0x40020044

080012e8 <MX_DMA_Init>:

/**
  * Enable DMA controller clock
  */
void MX_DMA_Init(void)
{
 80012e8:	b580      	push	{r7, lr}
 80012ea:	b082      	sub	sp, #8
 80012ec:	af00      	add	r7, sp, #0

  /* DMA controller clock enable */
  __HAL_RCC_DMA1_CLK_ENABLE();
 80012ee:	4b18      	ldr	r3, [pc, #96]	; (8001350 <MX_DMA_Init+0x68>)
 80012f0:	6c9b      	ldr	r3, [r3, #72]	; 0x48
 80012f2:	4a17      	ldr	r2, [pc, #92]	; (8001350 <MX_DMA_Init+0x68>)
 80012f4:	f043 0301 	orr.w	r3, r3, #1
 80012f8:	6493      	str	r3, [r2, #72]	; 0x48
 80012fa:	4b15      	ldr	r3, [pc, #84]	; (8001350 <MX_DMA_Init+0x68>)
 80012fc:	6c9b      	ldr	r3, [r3, #72]	; 0x48
 80012fe:	f003 0301 	and.w	r3, r3, #1
 8001302:	607b      	str	r3, [r7, #4]
 8001304:	687b      	ldr	r3, [r7, #4]

  /* DMA interrupt init */
  /* DMA1_Channel1_IRQn interrupt configuration */
  HAL_NVIC_SetPriority(DMA1_Channel1_IRQn, 0, 0);
 8001306:	2200      	movs	r2, #0
 8001308:	2100      	movs	r1, #0
 800130a:	200b      	movs	r0, #11
 800130c:	f003 f8b1 	bl	8004472 <HAL_NVIC_SetPriority>
  HAL_NVIC_EnableIRQ(DMA1_Channel1_IRQn);
 8001310:	200b      	movs	r0, #11
 8001312:	f003 f8ca 	bl	80044aa <HAL_NVIC_EnableIRQ>
  /* DMA1_Channel3_IRQn interrupt configuration */
  HAL_NVIC_SetPriority(DMA1_Channel3_IRQn, 0, 0);
 8001316:	2200      	movs	r2, #0
 8001318:	2100      	movs	r1, #0
 800131a:	200d      	movs	r0, #13
 800131c:	f003 f8a9 	bl	8004472 <HAL_NVIC_SetPriority>
  HAL_NVIC_EnableIRQ(DMA1_Channel3_IRQn);
 8001320:	200d      	movs	r0, #13
 8001322:	f003 f8c2 	bl	80044aa <HAL_NVIC_EnableIRQ>
  /* DMA1_Channel4_IRQn interrupt configuration */
  HAL_NVIC_SetPriority(DMA1_Channel4_IRQn, 0, 0);
 8001326:	2200      	movs	r2, #0
 8001328:	2100      	movs	r1, #0
 800132a:	200e      	movs	r0, #14
 800132c:	f003 f8a1 	bl	8004472 <HAL_NVIC_SetPriority>
  HAL_NVIC_EnableIRQ(DMA1_Channel4_IRQn);
 8001330:	200e      	movs	r0, #14
 8001332:	f003 f8ba 	bl	80044aa <HAL_NVIC_EnableIRQ>
  /* DMA1_Channel6_IRQn interrupt configuration */
  HAL_NVIC_SetPriority(DMA1_Channel6_IRQn, 0, 0);
 8001336:	2200      	movs	r2, #0
 8001338:	2100      	movs	r1, #0
 800133a:	2010      	movs	r0, #16
 800133c:	f003 f899 	bl	8004472 <HAL_NVIC_SetPriority>
  HAL_NVIC_EnableIRQ(DMA1_Channel6_IRQn);
 8001340:	2010      	movs	r0, #16
 8001342:	f003 f8b2 	bl	80044aa <HAL_NVIC_EnableIRQ>

}
 8001346:	bf00      	nop
 8001348:	3708      	adds	r7, #8
 800134a:	46bd      	mov	sp, r7
 800134c:	bd80      	pop	{r7, pc}
 800134e:	bf00      	nop
 8001350:	40021000 	.word	0x40021000

08001354 <get_note_frequency>:
extern uint8_t note_index;
extern ADC_HandleTypeDef hadc1;
extern DAC_HandleTypeDef hdac1;
extern uint8_t start_dsp;

float get_note_frequency(uint8_t desired_note_index){
 8001354:	b480      	push	{r7}
 8001356:	b083      	sub	sp, #12
 8001358:	af00      	add	r7, sp, #0
 800135a:	4603      	mov	r3, r0
 800135c:	71fb      	strb	r3, [r7, #7]
	return note[desired_note_index] ;
 800135e:	79fb      	ldrb	r3, [r7, #7]
 8001360:	4a06      	ldr	r2, [pc, #24]	; (800137c <get_note_frequency+0x28>)
 8001362:	009b      	lsls	r3, r3, #2
 8001364:	4413      	add	r3, r2
 8001366:	681b      	ldr	r3, [r3, #0]
 8001368:	ee07 3a90 	vmov	s15, r3
}
 800136c:	eeb0 0a67 	vmov.f32	s0, s15
 8001370:	370c      	adds	r7, #12
 8001372:	46bd      	mov	sp, r7
 8001374:	f85d 7b04 	ldr.w	r7, [sp], #4
 8001378:	4770      	bx	lr
 800137a:	bf00      	nop
 800137c:	0800a95c 	.word	0x0800a95c

08001380 <changePitch>:


void changePitch(uint8_t desired_note_index){
 8001380:	b580      	push	{r7, lr}
 8001382:	b084      	sub	sp, #16
 8001384:	af00      	add	r7, sp, #0
 8001386:	4603      	mov	r3, r0
 8001388:	71fb      	strb	r3, [r7, #7]
	float desired_frequency = get_note_frequency(desired_note_index) * num_ech;
 800138a:	79fb      	ldrb	r3, [r7, #7]
 800138c:	4618      	mov	r0, r3
 800138e:	f7ff ffe1 	bl	8001354 <get_note_frequency>
 8001392:	eeb0 7a40 	vmov.f32	s14, s0
 8001396:	4b10      	ldr	r3, [pc, #64]	; (80013d8 <changePitch+0x58>)
 8001398:	edd3 7a00 	vldr	s15, [r3]
 800139c:	ee67 7a27 	vmul.f32	s15, s14, s15
 80013a0:	edc7 7a03 	vstr	s15, [r7, #12]
	//Calcul du Counter Period de TIM6

	TIM2->ARR = (int)(timer_clock/desired_frequency -1);
 80013a4:	4b0d      	ldr	r3, [pc, #52]	; (80013dc <changePitch+0x5c>)
 80013a6:	681b      	ldr	r3, [r3, #0]
 80013a8:	ee07 3a90 	vmov	s15, r3
 80013ac:	eef8 6a67 	vcvt.f32.u32	s13, s15
 80013b0:	ed97 7a03 	vldr	s14, [r7, #12]
 80013b4:	eec6 7a87 	vdiv.f32	s15, s13, s14
 80013b8:	eeb7 7a00 	vmov.f32	s14, #112	; 0x3f800000  1.0
 80013bc:	ee77 7ac7 	vsub.f32	s15, s15, s14
 80013c0:	eefd 7ae7 	vcvt.s32.f32	s15, s15
 80013c4:	f04f 4380 	mov.w	r3, #1073741824	; 0x40000000
 80013c8:	ee17 2a90 	vmov	r2, s15
 80013cc:	62da      	str	r2, [r3, #44]	; 0x2c
}
 80013ce:	bf00      	nop
 80013d0:	3710      	adds	r7, #16
 80013d2:	46bd      	mov	sp, r7
 80013d4:	bd80      	pop	{r7, pc}
 80013d6:	bf00      	nop
 80013d8:	20000640 	.word	0x20000640
 80013dc:	20000644 	.word	0x20000644

080013e0 <dsp_init>:

void dsp_init(){
 80013e0:	b580      	push	{r7, lr}
 80013e2:	b082      	sub	sp, #8
 80013e4:	af02      	add	r7, sp, #8
	HAL_ADC_Start_DMA(&hadc1 , (uint32_t *) adc_buffer, ADC_BUFFER_SIZE);
 80013e6:	f44f 6296 	mov.w	r2, #1200	; 0x4b0
 80013ea:	490d      	ldr	r1, [pc, #52]	; (8001420 <dsp_init+0x40>)
 80013ec:	480d      	ldr	r0, [pc, #52]	; (8001424 <dsp_init+0x44>)
 80013ee:	f002 fa0b 	bl	8003808 <HAL_ADC_Start_DMA>
	//  HAL_Delay(1);
	HAL_DAC_Start_DMA(&hdac1,DAC_CHANNEL_1 , (uint32_t *) dac_buffer_1, DAC_BUFFER_1_SIZE, DAC_ALIGN_12B_R);
 80013f2:	2300      	movs	r3, #0
 80013f4:	9300      	str	r3, [sp, #0]
 80013f6:	23c8      	movs	r3, #200	; 0xc8
 80013f8:	4a0b      	ldr	r2, [pc, #44]	; (8001428 <dsp_init+0x48>)
 80013fa:	2100      	movs	r1, #0
 80013fc:	480b      	ldr	r0, [pc, #44]	; (800142c <dsp_init+0x4c>)
 80013fe:	f003 f891 	bl	8004524 <HAL_DAC_Start_DMA>
	HAL_DAC_Start_DMA(&hdac1,DAC_CHANNEL_2 , (uint32_t *) dac_buffer_2, DAC_BUFFER_2_SIZE, DAC_ALIGN_12B_R);
 8001402:	2300      	movs	r3, #0
 8001404:	9300      	str	r3, [sp, #0]
 8001406:	23c8      	movs	r3, #200	; 0xc8
 8001408:	4a09      	ldr	r2, [pc, #36]	; (8001430 <dsp_init+0x50>)
 800140a:	2110      	movs	r1, #16
 800140c:	4807      	ldr	r0, [pc, #28]	; (800142c <dsp_init+0x4c>)
 800140e:	f003 f889 	bl	8004524 <HAL_DAC_Start_DMA>
	HAL_TIM_Base_Start(&htim2);
 8001412:	4808      	ldr	r0, [pc, #32]	; (8001434 <dsp_init+0x54>)
 8001414:	f005 fd72 	bl	8006efc <HAL_TIM_Base_Start>
}
 8001418:	bf00      	nop
 800141a:	46bd      	mov	sp, r7
 800141c:	bd80      	pop	{r7, pc}
 800141e:	bf00      	nop
 8001420:	20001284 	.word	0x20001284
 8001424:	20000e00 	.word	0x20000e00
 8001428:	20000f50 	.word	0x20000f50
 800142c:	20000eac 	.word	0x20000eac
 8001430:	200010ec 	.word	0x200010ec
 8001434:	20001c80 	.word	0x20001c80

08001438 <processDSP>:

void processDSP(){
 8001438:	b580      	push	{r7, lr}
 800143a:	b084      	sub	sp, #16
 800143c:	af00      	add	r7, sp, #0
	__NOP();
 800143e:	bf00      	nop

	//Get pitch from CV0 & CV1 input
	int16_t CV0_average =0;
 8001440:	2300      	movs	r3, #0
 8001442:	81fb      	strh	r3, [r7, #14]
	int16_t CV1_average =0;
 8001444:	2300      	movs	r3, #0
 8001446:	81bb      	strh	r3, [r7, #12]
	int16_t CV2_average =0;
 8001448:	2300      	movs	r3, #0
 800144a:	817b      	strh	r3, [r7, #10]
	for(uint8_t i=0;i!=10;i++){
 800144c:	2300      	movs	r3, #0
 800144e:	727b      	strb	r3, [r7, #9]
 8001450:	e029      	b.n	80014a6 <processDSP+0x6e>
		CV0_average +=adc_buffer[6*i+1];
 8001452:	7a7a      	ldrb	r2, [r7, #9]
 8001454:	4613      	mov	r3, r2
 8001456:	005b      	lsls	r3, r3, #1
 8001458:	4413      	add	r3, r2
 800145a:	005b      	lsls	r3, r3, #1
 800145c:	3301      	adds	r3, #1
 800145e:	4ab4      	ldr	r2, [pc, #720]	; (8001730 <processDSP+0x2f8>)
 8001460:	f832 2013 	ldrh.w	r2, [r2, r3, lsl #1]
 8001464:	89fb      	ldrh	r3, [r7, #14]
 8001466:	4413      	add	r3, r2
 8001468:	b29b      	uxth	r3, r3
 800146a:	81fb      	strh	r3, [r7, #14]
		CV1_average +=adc_buffer[6*i+2];
 800146c:	7a7a      	ldrb	r2, [r7, #9]
 800146e:	4613      	mov	r3, r2
 8001470:	005b      	lsls	r3, r3, #1
 8001472:	4413      	add	r3, r2
 8001474:	005b      	lsls	r3, r3, #1
 8001476:	3302      	adds	r3, #2
 8001478:	4aad      	ldr	r2, [pc, #692]	; (8001730 <processDSP+0x2f8>)
 800147a:	f832 2013 	ldrh.w	r2, [r2, r3, lsl #1]
 800147e:	89bb      	ldrh	r3, [r7, #12]
 8001480:	4413      	add	r3, r2
 8001482:	b29b      	uxth	r3, r3
 8001484:	81bb      	strh	r3, [r7, #12]
		CV2_average +=adc_buffer[6*i+3];
 8001486:	7a7a      	ldrb	r2, [r7, #9]
 8001488:	4613      	mov	r3, r2
 800148a:	005b      	lsls	r3, r3, #1
 800148c:	4413      	add	r3, r2
 800148e:	005b      	lsls	r3, r3, #1
 8001490:	3303      	adds	r3, #3
 8001492:	4aa7      	ldr	r2, [pc, #668]	; (8001730 <processDSP+0x2f8>)
 8001494:	f832 2013 	ldrh.w	r2, [r2, r3, lsl #1]
 8001498:	897b      	ldrh	r3, [r7, #10]
 800149a:	4413      	add	r3, r2
 800149c:	b29b      	uxth	r3, r3
 800149e:	817b      	strh	r3, [r7, #10]
	for(uint8_t i=0;i!=10;i++){
 80014a0:	7a7b      	ldrb	r3, [r7, #9]
 80014a2:	3301      	adds	r3, #1
 80014a4:	727b      	strb	r3, [r7, #9]
 80014a6:	7a7b      	ldrb	r3, [r7, #9]
 80014a8:	2b0a      	cmp	r3, #10
 80014aa:	d1d2      	bne.n	8001452 <processDSP+0x1a>
	}

	//Get average
	CV0_average = CV0_average/10;
 80014ac:	f9b7 300e 	ldrsh.w	r3, [r7, #14]
 80014b0:	4aa0      	ldr	r2, [pc, #640]	; (8001734 <processDSP+0x2fc>)
 80014b2:	fb82 1203 	smull	r1, r2, r2, r3
 80014b6:	1092      	asrs	r2, r2, #2
 80014b8:	17db      	asrs	r3, r3, #31
 80014ba:	1ad3      	subs	r3, r2, r3
 80014bc:	81fb      	strh	r3, [r7, #14]
	CV1_average = CV1_average/10;
 80014be:	f9b7 300c 	ldrsh.w	r3, [r7, #12]
 80014c2:	4a9c      	ldr	r2, [pc, #624]	; (8001734 <processDSP+0x2fc>)
 80014c4:	fb82 1203 	smull	r1, r2, r2, r3
 80014c8:	1092      	asrs	r2, r2, #2
 80014ca:	17db      	asrs	r3, r3, #31
 80014cc:	1ad3      	subs	r3, r2, r3
 80014ce:	81bb      	strh	r3, [r7, #12]
	CV2_average = CV2_average/10;
 80014d0:	f9b7 300a 	ldrsh.w	r3, [r7, #10]
 80014d4:	4a97      	ldr	r2, [pc, #604]	; (8001734 <processDSP+0x2fc>)
 80014d6:	fb82 1203 	smull	r1, r2, r2, r3
 80014da:	1092      	asrs	r2, r2, #2
 80014dc:	17db      	asrs	r3, r3, #31
 80014de:	1ad3      	subs	r3, r2, r3
 80014e0:	817b      	strh	r3, [r7, #10]

	//Convert from 0->3.3V (0->4096) to -10 +10 (-2048->2048)input
	CV0_average = CV0_average - 2048;
 80014e2:	89fb      	ldrh	r3, [r7, #14]
 80014e4:	f5a3 6300 	sub.w	r3, r3, #2048	; 0x800
 80014e8:	b29b      	uxth	r3, r3
 80014ea:	81fb      	strh	r3, [r7, #14]
	CV1_average = CV1_average - 2048;
 80014ec:	89bb      	ldrh	r3, [r7, #12]
 80014ee:	f5a3 6300 	sub.w	r3, r3, #2048	; 0x800
 80014f2:	b29b      	uxth	r3, r3
 80014f4:	81bb      	strh	r3, [r7, #12]
	CV2_average = CV2_average - 2048;
 80014f6:	897b      	ldrh	r3, [r7, #10]
 80014f8:	f5a3 6300 	sub.w	r3, r3, #2048	; 0x800
 80014fc:	b29b      	uxth	r3, r3
 80014fe:	817b      	strh	r3, [r7, #10]
	//CVx value between -10 to 10 (integer)
	CV0_average = CV0_average *(10/2048);
 8001500:	2300      	movs	r3, #0
 8001502:	81fb      	strh	r3, [r7, #14]
	CV1_average = CV1_average *(10/2048);
 8001504:	2300      	movs	r3, #0
 8001506:	81bb      	strh	r3, [r7, #12]
	CV2_average = CV2_average *(10/2048);
 8001508:	2300      	movs	r3, #0
 800150a:	817b      	strh	r3, [r7, #10]

	//Change pitch
	note_index = note_index + 12*CV0_average;
 800150c:	89fb      	ldrh	r3, [r7, #14]
 800150e:	b2db      	uxtb	r3, r3
 8001510:	461a      	mov	r2, r3
 8001512:	0052      	lsls	r2, r2, #1
 8001514:	4413      	add	r3, r2
 8001516:	009b      	lsls	r3, r3, #2
 8001518:	b2da      	uxtb	r2, r3
 800151a:	4b87      	ldr	r3, [pc, #540]	; (8001738 <processDSP+0x300>)
 800151c:	781b      	ldrb	r3, [r3, #0]
 800151e:	4413      	add	r3, r2
 8001520:	b2da      	uxtb	r2, r3
 8001522:	4b85      	ldr	r3, [pc, #532]	; (8001738 <processDSP+0x300>)
 8001524:	701a      	strb	r2, [r3, #0]
	if(note_index < 0){
		note_index = 0;
	}
	if(note_index >95){
 8001526:	4b84      	ldr	r3, [pc, #528]	; (8001738 <processDSP+0x300>)
 8001528:	781b      	ldrb	r3, [r3, #0]
 800152a:	2b5f      	cmp	r3, #95	; 0x5f
 800152c:	d902      	bls.n	8001534 <processDSP+0xfc>
		note_index = 95;
 800152e:	4b82      	ldr	r3, [pc, #520]	; (8001738 <processDSP+0x300>)
 8001530:	225f      	movs	r2, #95	; 0x5f
 8001532:	701a      	strb	r2, [r3, #0]
	}
	changePitch(note_index);
 8001534:	4b80      	ldr	r3, [pc, #512]	; (8001738 <processDSP+0x300>)
 8001536:	781b      	ldrb	r3, [r3, #0]
 8001538:	4618      	mov	r0, r3
 800153a:	f7ff ff21 	bl	8001380 <changePitch>

	//Change x and y
	x= x + CV1_average/10;
 800153e:	f9b7 300c 	ldrsh.w	r3, [r7, #12]
 8001542:	4a7c      	ldr	r2, [pc, #496]	; (8001734 <processDSP+0x2fc>)
 8001544:	fb82 1203 	smull	r1, r2, r2, r3
 8001548:	1092      	asrs	r2, r2, #2
 800154a:	17db      	asrs	r3, r3, #31
 800154c:	1ad3      	subs	r3, r2, r3
 800154e:	b21b      	sxth	r3, r3
 8001550:	ee07 3a90 	vmov	s15, r3
 8001554:	eeb8 7ae7 	vcvt.f32.s32	s14, s15
 8001558:	4b78      	ldr	r3, [pc, #480]	; (800173c <processDSP+0x304>)
 800155a:	edd3 7a00 	vldr	s15, [r3]
 800155e:	ee77 7a27 	vadd.f32	s15, s14, s15
 8001562:	4b76      	ldr	r3, [pc, #472]	; (800173c <processDSP+0x304>)
 8001564:	edc3 7a00 	vstr	s15, [r3]
	y= y + CV2_average/10;
 8001568:	f9b7 300a 	ldrsh.w	r3, [r7, #10]
 800156c:	4a71      	ldr	r2, [pc, #452]	; (8001734 <processDSP+0x2fc>)
 800156e:	fb82 1203 	smull	r1, r2, r2, r3
 8001572:	1092      	asrs	r2, r2, #2
 8001574:	17db      	asrs	r3, r3, #31
 8001576:	1ad3      	subs	r3, r2, r3
 8001578:	b21b      	sxth	r3, r3
 800157a:	ee07 3a90 	vmov	s15, r3
 800157e:	eeb8 7ae7 	vcvt.f32.s32	s14, s15
 8001582:	4b6f      	ldr	r3, [pc, #444]	; (8001740 <processDSP+0x308>)
 8001584:	edd3 7a00 	vldr	s15, [r3]
 8001588:	ee77 7a27 	vadd.f32	s15, s14, s15
 800158c:	4b6c      	ldr	r3, [pc, #432]	; (8001740 <processDSP+0x308>)
 800158e:	edc3 7a00 	vstr	s15, [r3]

	if(x <0){x =0;}
 8001592:	4b6a      	ldr	r3, [pc, #424]	; (800173c <processDSP+0x304>)
 8001594:	edd3 7a00 	vldr	s15, [r3]
 8001598:	eef5 7ac0 	vcmpe.f32	s15, #0.0
 800159c:	eef1 fa10 	vmrs	APSR_nzcv, fpscr
 80015a0:	d503      	bpl.n	80015aa <processDSP+0x172>
 80015a2:	4b66      	ldr	r3, [pc, #408]	; (800173c <processDSP+0x304>)
 80015a4:	f04f 0200 	mov.w	r2, #0
 80015a8:	601a      	str	r2, [r3, #0]
	if(x >1){x =1;}
 80015aa:	4b64      	ldr	r3, [pc, #400]	; (800173c <processDSP+0x304>)
 80015ac:	edd3 7a00 	vldr	s15, [r3]
 80015b0:	eeb7 7a00 	vmov.f32	s14, #112	; 0x3f800000  1.0
 80015b4:	eef4 7ac7 	vcmpe.f32	s15, s14
 80015b8:	eef1 fa10 	vmrs	APSR_nzcv, fpscr
 80015bc:	dd03      	ble.n	80015c6 <processDSP+0x18e>
 80015be:	4b5f      	ldr	r3, [pc, #380]	; (800173c <processDSP+0x304>)
 80015c0:	f04f 527e 	mov.w	r2, #1065353216	; 0x3f800000
 80015c4:	601a      	str	r2, [r3, #0]
	if(y <0){y =0;}
 80015c6:	4b5e      	ldr	r3, [pc, #376]	; (8001740 <processDSP+0x308>)
 80015c8:	edd3 7a00 	vldr	s15, [r3]
 80015cc:	eef5 7ac0 	vcmpe.f32	s15, #0.0
 80015d0:	eef1 fa10 	vmrs	APSR_nzcv, fpscr
 80015d4:	d503      	bpl.n	80015de <processDSP+0x1a6>
 80015d6:	4b5a      	ldr	r3, [pc, #360]	; (8001740 <processDSP+0x308>)
 80015d8:	f04f 0200 	mov.w	r2, #0
 80015dc:	601a      	str	r2, [r3, #0]
	if(y >1){y =1;}
 80015de:	4b58      	ldr	r3, [pc, #352]	; (8001740 <processDSP+0x308>)
 80015e0:	edd3 7a00 	vldr	s15, [r3]
 80015e4:	eeb7 7a00 	vmov.f32	s14, #112	; 0x3f800000  1.0
 80015e8:	eef4 7ac7 	vcmpe.f32	s15, s14
 80015ec:	eef1 fa10 	vmrs	APSR_nzcv, fpscr
 80015f0:	dd03      	ble.n	80015fa <processDSP+0x1c2>
 80015f2:	4b53      	ldr	r3, [pc, #332]	; (8001740 <processDSP+0x308>)
 80015f4:	f04f 527e 	mov.w	r2, #1065353216	; 0x3f800000
 80015f8:	601a      	str	r2, [r3, #0]

	//Get amplitude of wave
	sin_amplitude = (1-x)*(1-y);
 80015fa:	4b50      	ldr	r3, [pc, #320]	; (800173c <processDSP+0x304>)
 80015fc:	edd3 7a00 	vldr	s15, [r3]
 8001600:	eeb7 7a00 	vmov.f32	s14, #112	; 0x3f800000  1.0
 8001604:	ee37 7a67 	vsub.f32	s14, s14, s15
 8001608:	4b4d      	ldr	r3, [pc, #308]	; (8001740 <processDSP+0x308>)
 800160a:	edd3 7a00 	vldr	s15, [r3]
 800160e:	eef7 6a00 	vmov.f32	s13, #112	; 0x3f800000  1.0
 8001612:	ee76 7ae7 	vsub.f32	s15, s13, s15
 8001616:	ee67 7a27 	vmul.f32	s15, s14, s15
 800161a:	4b4a      	ldr	r3, [pc, #296]	; (8001744 <processDSP+0x30c>)
 800161c:	edc3 7a00 	vstr	s15, [r3]
	triangle_amplitude = x*(1-y);
 8001620:	4b47      	ldr	r3, [pc, #284]	; (8001740 <processDSP+0x308>)
 8001622:	edd3 7a00 	vldr	s15, [r3]
 8001626:	eeb7 7a00 	vmov.f32	s14, #112	; 0x3f800000  1.0
 800162a:	ee37 7a67 	vsub.f32	s14, s14, s15
 800162e:	4b43      	ldr	r3, [pc, #268]	; (800173c <processDSP+0x304>)
 8001630:	edd3 7a00 	vldr	s15, [r3]
 8001634:	ee67 7a27 	vmul.f32	s15, s14, s15
 8001638:	4b43      	ldr	r3, [pc, #268]	; (8001748 <processDSP+0x310>)
 800163a:	edc3 7a00 	vstr	s15, [r3]
	square_amplitude = (1-x)*y;
 800163e:	4b3f      	ldr	r3, [pc, #252]	; (800173c <processDSP+0x304>)
 8001640:	edd3 7a00 	vldr	s15, [r3]
 8001644:	eeb7 7a00 	vmov.f32	s14, #112	; 0x3f800000  1.0
 8001648:	ee37 7a67 	vsub.f32	s14, s14, s15
 800164c:	4b3c      	ldr	r3, [pc, #240]	; (8001740 <processDSP+0x308>)
 800164e:	edd3 7a00 	vldr	s15, [r3]
 8001652:	ee67 7a27 	vmul.f32	s15, s14, s15
 8001656:	4b3d      	ldr	r3, [pc, #244]	; (800174c <processDSP+0x314>)
 8001658:	edc3 7a00 	vstr	s15, [r3]
	saw_amplitude = x*y;
 800165c:	4b37      	ldr	r3, [pc, #220]	; (800173c <processDSP+0x304>)
 800165e:	ed93 7a00 	vldr	s14, [r3]
 8001662:	4b37      	ldr	r3, [pc, #220]	; (8001740 <processDSP+0x308>)
 8001664:	edd3 7a00 	vldr	s15, [r3]
 8001668:	ee67 7a27 	vmul.f32	s15, s14, s15
 800166c:	4b38      	ldr	r3, [pc, #224]	; (8001750 <processDSP+0x318>)
 800166e:	edc3 7a00 	vstr	s15, [r3]

	//For DAC 2 (OUT_1)
	for(uint16_t i=0; i!= SAMPLES_LENGTH/2; i++){
 8001672:	2300      	movs	r3, #0
 8001674:	80fb      	strh	r3, [r7, #6]
 8001676:	e053      	b.n	8001720 <processDSP+0x2e8>
		out_buffer_2_ptr[i] = sin_amplitude*in_buffer_ptr_1[i] + triangle_amplitude*in_buffer_ptr_2[i]+ square_amplitude*in_buffer_ptr_3[i]+in_buffer_ptr_4[i]*saw_amplitude;
 8001678:	4b36      	ldr	r3, [pc, #216]	; (8001754 <processDSP+0x31c>)
 800167a:	681a      	ldr	r2, [r3, #0]
 800167c:	88fb      	ldrh	r3, [r7, #6]
 800167e:	005b      	lsls	r3, r3, #1
 8001680:	4413      	add	r3, r2
 8001682:	881b      	ldrh	r3, [r3, #0]
 8001684:	b29b      	uxth	r3, r3
 8001686:	ee07 3a90 	vmov	s15, r3
 800168a:	eeb8 7ae7 	vcvt.f32.s32	s14, s15
 800168e:	4b2d      	ldr	r3, [pc, #180]	; (8001744 <processDSP+0x30c>)
 8001690:	edd3 7a00 	vldr	s15, [r3]
 8001694:	ee27 7a27 	vmul.f32	s14, s14, s15
 8001698:	4b2f      	ldr	r3, [pc, #188]	; (8001758 <processDSP+0x320>)
 800169a:	681a      	ldr	r2, [r3, #0]
 800169c:	88fb      	ldrh	r3, [r7, #6]
 800169e:	005b      	lsls	r3, r3, #1
 80016a0:	4413      	add	r3, r2
 80016a2:	881b      	ldrh	r3, [r3, #0]
 80016a4:	b29b      	uxth	r3, r3
 80016a6:	ee07 3a90 	vmov	s15, r3
 80016aa:	eef8 6ae7 	vcvt.f32.s32	s13, s15
 80016ae:	4b26      	ldr	r3, [pc, #152]	; (8001748 <processDSP+0x310>)
 80016b0:	edd3 7a00 	vldr	s15, [r3]
 80016b4:	ee66 7aa7 	vmul.f32	s15, s13, s15
 80016b8:	ee37 7a27 	vadd.f32	s14, s14, s15
 80016bc:	4b27      	ldr	r3, [pc, #156]	; (800175c <processDSP+0x324>)
 80016be:	681a      	ldr	r2, [r3, #0]
 80016c0:	88fb      	ldrh	r3, [r7, #6]
 80016c2:	005b      	lsls	r3, r3, #1
 80016c4:	4413      	add	r3, r2
 80016c6:	881b      	ldrh	r3, [r3, #0]
 80016c8:	b29b      	uxth	r3, r3
 80016ca:	ee07 3a90 	vmov	s15, r3
 80016ce:	eef8 6ae7 	vcvt.f32.s32	s13, s15
 80016d2:	4b1e      	ldr	r3, [pc, #120]	; (800174c <processDSP+0x314>)
 80016d4:	edd3 7a00 	vldr	s15, [r3]
 80016d8:	ee66 7aa7 	vmul.f32	s15, s13, s15
 80016dc:	ee37 7a27 	vadd.f32	s14, s14, s15
 80016e0:	4b1f      	ldr	r3, [pc, #124]	; (8001760 <processDSP+0x328>)
 80016e2:	681a      	ldr	r2, [r3, #0]
 80016e4:	88fb      	ldrh	r3, [r7, #6]
 80016e6:	005b      	lsls	r3, r3, #1
 80016e8:	4413      	add	r3, r2
 80016ea:	881b      	ldrh	r3, [r3, #0]
 80016ec:	b29b      	uxth	r3, r3
 80016ee:	ee07 3a90 	vmov	s15, r3
 80016f2:	eef8 6ae7 	vcvt.f32.s32	s13, s15
 80016f6:	4b16      	ldr	r3, [pc, #88]	; (8001750 <processDSP+0x318>)
 80016f8:	edd3 7a00 	vldr	s15, [r3]
 80016fc:	ee66 7aa7 	vmul.f32	s15, s13, s15
 8001700:	ee77 7a27 	vadd.f32	s15, s14, s15
 8001704:	4b17      	ldr	r3, [pc, #92]	; (8001764 <processDSP+0x32c>)
 8001706:	681a      	ldr	r2, [r3, #0]
 8001708:	88fb      	ldrh	r3, [r7, #6]
 800170a:	005b      	lsls	r3, r3, #1
 800170c:	4413      	add	r3, r2
 800170e:	eefc 7ae7 	vcvt.u32.f32	s15, s15
 8001712:	ee17 2a90 	vmov	r2, s15
 8001716:	b292      	uxth	r2, r2
 8001718:	801a      	strh	r2, [r3, #0]
	for(uint16_t i=0; i!= SAMPLES_LENGTH/2; i++){
 800171a:	88fb      	ldrh	r3, [r7, #6]
 800171c:	3301      	adds	r3, #1
 800171e:	80fb      	strh	r3, [r7, #6]
 8001720:	88fb      	ldrh	r3, [r7, #6]
 8001722:	2b64      	cmp	r3, #100	; 0x64
 8001724:	d1a8      	bne.n	8001678 <processDSP+0x240>
	//For DAC 1 (OUT_2)
	/*for(uint16_t i=0; i!= SAMPLES_LENGTH/2; i++){
		out_buffer_2_ptr[i] = in_buffer_ptr_1[6*i];
		out_buffer_2_ptr[i] = in_buffer_ptr_1[i];
	}*/
}
 8001726:	bf00      	nop
 8001728:	3710      	adds	r7, #16
 800172a:	46bd      	mov	sp, r7
 800172c:	bd80      	pop	{r7, pc}
 800172e:	bf00      	nop
 8001730:	20001284 	.word	0x20001284
 8001734:	66666667 	.word	0x66666667
 8001738:	200009e0 	.word	0x200009e0
 800173c:	20000650 	.word	0x20000650
 8001740:	200009e4 	.word	0x200009e4
 8001744:	200009d0 	.word	0x200009d0
 8001748:	200009d4 	.word	0x200009d4
 800174c:	200009d8 	.word	0x200009d8
 8001750:	200009dc 	.word	0x200009dc
 8001754:	2000127c 	.word	0x2000127c
 8001758:	200010e4 	.word	0x200010e4
 800175c:	20001be8 	.word	0x20001be8
 8001760:	20001be4 	.word	0x20001be4
 8001764:	200010e8 	.word	0x200010e8

08001768 <HAL_ADC_ConvHalfCpltCallback>:

void HAL_ADC_ConvHalfCpltCallback(ADC_HandleTypeDef* hadc){
 8001768:	b480      	push	{r7}
 800176a:	b083      	sub	sp, #12
 800176c:	af00      	add	r7, sp, #0
 800176e:	6078      	str	r0, [r7, #4]
	__NOP();
 8001770:	bf00      	nop
	//First half ot the buffer is full
	in_buffer_ptr_adc =  &adc_buffer[0];
 8001772:	4b0f      	ldr	r3, [pc, #60]	; (80017b0 <HAL_ADC_ConvHalfCpltCallback+0x48>)
 8001774:	4a0f      	ldr	r2, [pc, #60]	; (80017b4 <HAL_ADC_ConvHalfCpltCallback+0x4c>)
 8001776:	601a      	str	r2, [r3, #0]
	in_buffer_ptr_1 =  &sin_wave[0];
 8001778:	4b0f      	ldr	r3, [pc, #60]	; (80017b8 <HAL_ADC_ConvHalfCpltCallback+0x50>)
 800177a:	4a10      	ldr	r2, [pc, #64]	; (80017bc <HAL_ADC_ConvHalfCpltCallback+0x54>)
 800177c:	601a      	str	r2, [r3, #0]
	in_buffer_ptr_2 =  &triangle_wave[0];
 800177e:	4b10      	ldr	r3, [pc, #64]	; (80017c0 <HAL_ADC_ConvHalfCpltCallback+0x58>)
 8001780:	4a10      	ldr	r2, [pc, #64]	; (80017c4 <HAL_ADC_ConvHalfCpltCallback+0x5c>)
 8001782:	601a      	str	r2, [r3, #0]
	in_buffer_ptr_3 =  &square_wave[0];
 8001784:	4b10      	ldr	r3, [pc, #64]	; (80017c8 <HAL_ADC_ConvHalfCpltCallback+0x60>)
 8001786:	4a11      	ldr	r2, [pc, #68]	; (80017cc <HAL_ADC_ConvHalfCpltCallback+0x64>)
 8001788:	601a      	str	r2, [r3, #0]
	in_buffer_ptr_4 =  &sawtooth_wave[0];
 800178a:	4b11      	ldr	r3, [pc, #68]	; (80017d0 <HAL_ADC_ConvHalfCpltCallback+0x68>)
 800178c:	4a11      	ldr	r2, [pc, #68]	; (80017d4 <HAL_ADC_ConvHalfCpltCallback+0x6c>)
 800178e:	601a      	str	r2, [r3, #0]
	out_buffer_1_ptr = &dac_buffer_1[DAC_BUFFER_1_HALF_SIZE];
 8001790:	4b11      	ldr	r3, [pc, #68]	; (80017d8 <HAL_ADC_ConvHalfCpltCallback+0x70>)
 8001792:	4a12      	ldr	r2, [pc, #72]	; (80017dc <HAL_ADC_ConvHalfCpltCallback+0x74>)
 8001794:	601a      	str	r2, [r3, #0]
	out_buffer_2_ptr = &dac_buffer_2[DAC_BUFFER_2_HALF_SIZE];
 8001796:	4b12      	ldr	r3, [pc, #72]	; (80017e0 <HAL_ADC_ConvHalfCpltCallback+0x78>)
 8001798:	4a12      	ldr	r2, [pc, #72]	; (80017e4 <HAL_ADC_ConvHalfCpltCallback+0x7c>)
 800179a:	601a      	str	r2, [r3, #0]
	start_dsp = 1;
 800179c:	4b12      	ldr	r3, [pc, #72]	; (80017e8 <HAL_ADC_ConvHalfCpltCallback+0x80>)
 800179e:	2201      	movs	r2, #1
 80017a0:	701a      	strb	r2, [r3, #0]
}
 80017a2:	bf00      	nop
 80017a4:	370c      	adds	r7, #12
 80017a6:	46bd      	mov	sp, r7
 80017a8:	f85d 7b04 	ldr.w	r7, [sp], #4
 80017ac:	4770      	bx	lr
 80017ae:	bf00      	nop
 80017b0:	20001280 	.word	0x20001280
 80017b4:	20001284 	.word	0x20001284
 80017b8:	2000127c 	.word	0x2000127c
 80017bc:	20000000 	.word	0x20000000
 80017c0:	200010e4 	.word	0x200010e4
 80017c4:	20000190 	.word	0x20000190
 80017c8:	20001be8 	.word	0x20001be8
 80017cc:	20000320 	.word	0x20000320
 80017d0:	20001be4 	.word	0x20001be4
 80017d4:	200004b0 	.word	0x200004b0
 80017d8:	200010e0 	.word	0x200010e0
 80017dc:	20001018 	.word	0x20001018
 80017e0:	200010e8 	.word	0x200010e8
 80017e4:	200011b4 	.word	0x200011b4
 80017e8:	200009e1 	.word	0x200009e1

080017ec <HAL_ADC_ConvCpltCallback>:

void HAL_ADC_ConvCpltCallback(ADC_HandleTypeDef* hadc){
 80017ec:	b480      	push	{r7}
 80017ee:	b083      	sub	sp, #12
 80017f0:	af00      	add	r7, sp, #0
 80017f2:	6078      	str	r0, [r7, #4]
	__NOP();
 80017f4:	bf00      	nop
	//The buffer is now full
	in_buffer_ptr_adc = &adc_buffer[ADC_BUFFER_HALF_SIZE];
 80017f6:	4b0f      	ldr	r3, [pc, #60]	; (8001834 <HAL_ADC_ConvCpltCallback+0x48>)
 80017f8:	4a0f      	ldr	r2, [pc, #60]	; (8001838 <HAL_ADC_ConvCpltCallback+0x4c>)
 80017fa:	601a      	str	r2, [r3, #0]
	in_buffer_ptr_1 = &sin_wave[100];
 80017fc:	4b0f      	ldr	r3, [pc, #60]	; (800183c <HAL_ADC_ConvCpltCallback+0x50>)
 80017fe:	4a10      	ldr	r2, [pc, #64]	; (8001840 <HAL_ADC_ConvCpltCallback+0x54>)
 8001800:	601a      	str	r2, [r3, #0]
	in_buffer_ptr_2 =  &triangle_wave[100];
 8001802:	4b10      	ldr	r3, [pc, #64]	; (8001844 <HAL_ADC_ConvCpltCallback+0x58>)
 8001804:	4a10      	ldr	r2, [pc, #64]	; (8001848 <HAL_ADC_ConvCpltCallback+0x5c>)
 8001806:	601a      	str	r2, [r3, #0]
	in_buffer_ptr_3 =  &square_wave[100];
 8001808:	4b10      	ldr	r3, [pc, #64]	; (800184c <HAL_ADC_ConvCpltCallback+0x60>)
 800180a:	4a11      	ldr	r2, [pc, #68]	; (8001850 <HAL_ADC_ConvCpltCallback+0x64>)
 800180c:	601a      	str	r2, [r3, #0]
	in_buffer_ptr_4 =  &sawtooth_wave[100];
 800180e:	4b11      	ldr	r3, [pc, #68]	; (8001854 <HAL_ADC_ConvCpltCallback+0x68>)
 8001810:	4a11      	ldr	r2, [pc, #68]	; (8001858 <HAL_ADC_ConvCpltCallback+0x6c>)
 8001812:	601a      	str	r2, [r3, #0]
	out_buffer_1_ptr = &dac_buffer_1[0];
 8001814:	4b11      	ldr	r3, [pc, #68]	; (800185c <HAL_ADC_ConvCpltCallback+0x70>)
 8001816:	4a12      	ldr	r2, [pc, #72]	; (8001860 <HAL_ADC_ConvCpltCallback+0x74>)
 8001818:	601a      	str	r2, [r3, #0]
	out_buffer_2_ptr = &dac_buffer_2[0];
 800181a:	4b12      	ldr	r3, [pc, #72]	; (8001864 <HAL_ADC_ConvCpltCallback+0x78>)
 800181c:	4a12      	ldr	r2, [pc, #72]	; (8001868 <HAL_ADC_ConvCpltCallback+0x7c>)
 800181e:	601a      	str	r2, [r3, #0]
	start_dsp = 1;
 8001820:	4b12      	ldr	r3, [pc, #72]	; (800186c <HAL_ADC_ConvCpltCallback+0x80>)
 8001822:	2201      	movs	r2, #1
 8001824:	701a      	strb	r2, [r3, #0]
}
 8001826:	bf00      	nop
 8001828:	370c      	adds	r7, #12
 800182a:	46bd      	mov	sp, r7
 800182c:	f85d 7b04 	ldr.w	r7, [sp], #4
 8001830:	4770      	bx	lr
 8001832:	bf00      	nop
 8001834:	20001280 	.word	0x20001280
 8001838:	20001734 	.word	0x20001734
 800183c:	2000127c 	.word	0x2000127c
 8001840:	200000c8 	.word	0x200000c8
 8001844:	200010e4 	.word	0x200010e4
 8001848:	20000258 	.word	0x20000258
 800184c:	20001be8 	.word	0x20001be8
 8001850:	200003e8 	.word	0x200003e8
 8001854:	20001be4 	.word	0x20001be4
 8001858:	20000578 	.word	0x20000578
 800185c:	200010e0 	.word	0x200010e0
 8001860:	20000f50 	.word	0x20000f50
 8001864:	200010e8 	.word	0x200010e8
 8001868:	200010ec 	.word	0x200010ec
 800186c:	200009e1 	.word	0x200009e1

08001870 <MX_GPIO_Init>:
        * Output
        * EVENT_OUT
        * EXTI
*/
void MX_GPIO_Init(void)
{
 8001870:	b580      	push	{r7, lr}
 8001872:	b088      	sub	sp, #32
 8001874:	af00      	add	r7, sp, #0

  GPIO_InitTypeDef GPIO_InitStruct = {0};
 8001876:	f107 030c 	add.w	r3, r7, #12
 800187a:	2200      	movs	r2, #0
 800187c:	601a      	str	r2, [r3, #0]
 800187e:	605a      	str	r2, [r3, #4]
 8001880:	609a      	str	r2, [r3, #8]
 8001882:	60da      	str	r2, [r3, #12]
 8001884:	611a      	str	r2, [r3, #16]

  /* GPIO Ports Clock Enable */
  __HAL_RCC_GPIOC_CLK_ENABLE();
 8001886:	4b38      	ldr	r3, [pc, #224]	; (8001968 <MX_GPIO_Init+0xf8>)
 8001888:	6cdb      	ldr	r3, [r3, #76]	; 0x4c
 800188a:	4a37      	ldr	r2, [pc, #220]	; (8001968 <MX_GPIO_Init+0xf8>)
 800188c:	f043 0304 	orr.w	r3, r3, #4
 8001890:	64d3      	str	r3, [r2, #76]	; 0x4c
 8001892:	4b35      	ldr	r3, [pc, #212]	; (8001968 <MX_GPIO_Init+0xf8>)
 8001894:	6cdb      	ldr	r3, [r3, #76]	; 0x4c
 8001896:	f003 0304 	and.w	r3, r3, #4
 800189a:	60bb      	str	r3, [r7, #8]
 800189c:	68bb      	ldr	r3, [r7, #8]
  __HAL_RCC_GPIOA_CLK_ENABLE();
 800189e:	4b32      	ldr	r3, [pc, #200]	; (8001968 <MX_GPIO_Init+0xf8>)
 80018a0:	6cdb      	ldr	r3, [r3, #76]	; 0x4c
 80018a2:	4a31      	ldr	r2, [pc, #196]	; (8001968 <MX_GPIO_Init+0xf8>)
 80018a4:	f043 0301 	orr.w	r3, r3, #1
 80018a8:	64d3      	str	r3, [r2, #76]	; 0x4c
 80018aa:	4b2f      	ldr	r3, [pc, #188]	; (8001968 <MX_GPIO_Init+0xf8>)
 80018ac:	6cdb      	ldr	r3, [r3, #76]	; 0x4c
 80018ae:	f003 0301 	and.w	r3, r3, #1
 80018b2:	607b      	str	r3, [r7, #4]
 80018b4:	687b      	ldr	r3, [r7, #4]
  __HAL_RCC_GPIOB_CLK_ENABLE();
 80018b6:	4b2c      	ldr	r3, [pc, #176]	; (8001968 <MX_GPIO_Init+0xf8>)
 80018b8:	6cdb      	ldr	r3, [r3, #76]	; 0x4c
 80018ba:	4a2b      	ldr	r2, [pc, #172]	; (8001968 <MX_GPIO_Init+0xf8>)
 80018bc:	f043 0302 	orr.w	r3, r3, #2
 80018c0:	64d3      	str	r3, [r2, #76]	; 0x4c
 80018c2:	4b29      	ldr	r3, [pc, #164]	; (8001968 <MX_GPIO_Init+0xf8>)
 80018c4:	6cdb      	ldr	r3, [r3, #76]	; 0x4c
 80018c6:	f003 0302 	and.w	r3, r3, #2
 80018ca:	603b      	str	r3, [r7, #0]
 80018cc:	683b      	ldr	r3, [r7, #0]

  /*Configure GPIO pin Output Level */
  HAL_GPIO_WritePin(LD3_GPIO_Port, LD3_Pin, GPIO_PIN_RESET);
 80018ce:	2200      	movs	r2, #0
 80018d0:	2108      	movs	r1, #8
 80018d2:	4826      	ldr	r0, [pc, #152]	; (800196c <MX_GPIO_Init+0xfc>)
 80018d4:	f003 fc20 	bl	8005118 <HAL_GPIO_WritePin>

  /*Configure GPIO pin : PB1 */
  GPIO_InitStruct.Pin = GPIO_PIN_1;
 80018d8:	2302      	movs	r3, #2
 80018da:	60fb      	str	r3, [r7, #12]
  GPIO_InitStruct.Mode = GPIO_MODE_IT_FALLING;
 80018dc:	4b24      	ldr	r3, [pc, #144]	; (8001970 <MX_GPIO_Init+0x100>)
 80018de:	613b      	str	r3, [r7, #16]
  GPIO_InitStruct.Pull = GPIO_NOPULL;
 80018e0:	2300      	movs	r3, #0
 80018e2:	617b      	str	r3, [r7, #20]
  HAL_GPIO_Init(GPIOB, &GPIO_InitStruct);
 80018e4:	f107 030c 	add.w	r3, r7, #12
 80018e8:	4619      	mov	r1, r3
 80018ea:	4820      	ldr	r0, [pc, #128]	; (800196c <MX_GPIO_Init+0xfc>)
 80018ec:	f003 fa92 	bl	8004e14 <HAL_GPIO_Init>

  /*Configure GPIO pin : PtPin */
  GPIO_InitStruct.Pin = KNOB_SWITCH_Pin;
 80018f0:	f44f 7380 	mov.w	r3, #256	; 0x100
 80018f4:	60fb      	str	r3, [r7, #12]
  GPIO_InitStruct.Mode = GPIO_MODE_IT_RISING;
 80018f6:	4b1f      	ldr	r3, [pc, #124]	; (8001974 <MX_GPIO_Init+0x104>)
 80018f8:	613b      	str	r3, [r7, #16]
  GPIO_InitStruct.Pull = GPIO_NOPULL;
 80018fa:	2300      	movs	r3, #0
 80018fc:	617b      	str	r3, [r7, #20]
  HAL_GPIO_Init(KNOB_SWITCH_GPIO_Port, &GPIO_InitStruct);
 80018fe:	f107 030c 	add.w	r3, r7, #12
 8001902:	4619      	mov	r1, r3
 8001904:	f04f 4090 	mov.w	r0, #1207959552	; 0x48000000
 8001908:	f003 fa84 	bl	8004e14 <HAL_GPIO_Init>

  /*Configure GPIO pin : PtPin */
  GPIO_InitStruct.Pin = LD3_Pin;
 800190c:	2308      	movs	r3, #8
 800190e:	60fb      	str	r3, [r7, #12]
  GPIO_InitStruct.Mode = GPIO_MODE_OUTPUT_PP;
 8001910:	2301      	movs	r3, #1
 8001912:	613b      	str	r3, [r7, #16]
  GPIO_InitStruct.Pull = GPIO_NOPULL;
 8001914:	2300      	movs	r3, #0
 8001916:	617b      	str	r3, [r7, #20]
  GPIO_InitStruct.Speed = GPIO_SPEED_FREQ_LOW;
 8001918:	2300      	movs	r3, #0
 800191a:	61bb      	str	r3, [r7, #24]
  HAL_GPIO_Init(LD3_GPIO_Port, &GPIO_InitStruct);
 800191c:	f107 030c 	add.w	r3, r7, #12
 8001920:	4619      	mov	r1, r3
 8001922:	4812      	ldr	r0, [pc, #72]	; (800196c <MX_GPIO_Init+0xfc>)
 8001924:	f003 fa76 	bl	8004e14 <HAL_GPIO_Init>

  /*Configure GPIO pin : PtPin */
  GPIO_InitStruct.Pin = KNOB_CH_A_Pin;
 8001928:	2340      	movs	r3, #64	; 0x40
 800192a:	60fb      	str	r3, [r7, #12]
  GPIO_InitStruct.Mode = GPIO_MODE_INPUT;
 800192c:	2300      	movs	r3, #0
 800192e:	613b      	str	r3, [r7, #16]
  GPIO_InitStruct.Pull = GPIO_PULLUP;
 8001930:	2301      	movs	r3, #1
 8001932:	617b      	str	r3, [r7, #20]
  HAL_GPIO_Init(KNOB_CH_A_GPIO_Port, &GPIO_InitStruct);
 8001934:	f107 030c 	add.w	r3, r7, #12
 8001938:	4619      	mov	r1, r3
 800193a:	480c      	ldr	r0, [pc, #48]	; (800196c <MX_GPIO_Init+0xfc>)
 800193c:	f003 fa6a 	bl	8004e14 <HAL_GPIO_Init>

  /* EXTI interrupt init*/
  HAL_NVIC_SetPriority(EXTI1_IRQn, 0, 0);
 8001940:	2200      	movs	r2, #0
 8001942:	2100      	movs	r1, #0
 8001944:	2007      	movs	r0, #7
 8001946:	f002 fd94 	bl	8004472 <HAL_NVIC_SetPriority>
  HAL_NVIC_EnableIRQ(EXTI1_IRQn);
 800194a:	2007      	movs	r0, #7
 800194c:	f002 fdad 	bl	80044aa <HAL_NVIC_EnableIRQ>

  HAL_NVIC_SetPriority(EXTI9_5_IRQn, 1, 0);
 8001950:	2200      	movs	r2, #0
 8001952:	2101      	movs	r1, #1
 8001954:	2017      	movs	r0, #23
 8001956:	f002 fd8c 	bl	8004472 <HAL_NVIC_SetPriority>
  HAL_NVIC_EnableIRQ(EXTI9_5_IRQn);
 800195a:	2017      	movs	r0, #23
 800195c:	f002 fda5 	bl	80044aa <HAL_NVIC_EnableIRQ>

}
 8001960:	bf00      	nop
 8001962:	3720      	adds	r7, #32
 8001964:	46bd      	mov	sp, r7
 8001966:	bd80      	pop	{r7, pc}
 8001968:	40021000 	.word	0x40021000
 800196c:	48000400 	.word	0x48000400
 8001970:	10210000 	.word	0x10210000
 8001974:	10110000 	.word	0x10110000

08001978 <MX_I2C1_Init>:
I2C_HandleTypeDef hi2c1;
DMA_HandleTypeDef hdma_i2c1_tx;

/* I2C1 init function */
void MX_I2C1_Init(void)
{
 8001978:	b580      	push	{r7, lr}
 800197a:	af00      	add	r7, sp, #0

  hi2c1.Instance = I2C1;
 800197c:	4b1d      	ldr	r3, [pc, #116]	; (80019f4 <MX_I2C1_Init+0x7c>)
 800197e:	4a1e      	ldr	r2, [pc, #120]	; (80019f8 <MX_I2C1_Init+0x80>)
 8001980:	601a      	str	r2, [r3, #0]
  hi2c1.Init.Timing = 0x00300F33;
 8001982:	4b1c      	ldr	r3, [pc, #112]	; (80019f4 <MX_I2C1_Init+0x7c>)
 8001984:	4a1d      	ldr	r2, [pc, #116]	; (80019fc <MX_I2C1_Init+0x84>)
 8001986:	605a      	str	r2, [r3, #4]
  hi2c1.Init.OwnAddress1 = 0;
 8001988:	4b1a      	ldr	r3, [pc, #104]	; (80019f4 <MX_I2C1_Init+0x7c>)
 800198a:	2200      	movs	r2, #0
 800198c:	609a      	str	r2, [r3, #8]
  hi2c1.Init.AddressingMode = I2C_ADDRESSINGMODE_7BIT;
 800198e:	4b19      	ldr	r3, [pc, #100]	; (80019f4 <MX_I2C1_Init+0x7c>)
 8001990:	2201      	movs	r2, #1
 8001992:	60da      	str	r2, [r3, #12]
  hi2c1.Init.DualAddressMode = I2C_DUALADDRESS_DISABLE;
 8001994:	4b17      	ldr	r3, [pc, #92]	; (80019f4 <MX_I2C1_Init+0x7c>)
 8001996:	2200      	movs	r2, #0
 8001998:	611a      	str	r2, [r3, #16]
  hi2c1.Init.OwnAddress2 = 0;
 800199a:	4b16      	ldr	r3, [pc, #88]	; (80019f4 <MX_I2C1_Init+0x7c>)
 800199c:	2200      	movs	r2, #0
 800199e:	615a      	str	r2, [r3, #20]
  hi2c1.Init.OwnAddress2Masks = I2C_OA2_NOMASK;
 80019a0:	4b14      	ldr	r3, [pc, #80]	; (80019f4 <MX_I2C1_Init+0x7c>)
 80019a2:	2200      	movs	r2, #0
 80019a4:	619a      	str	r2, [r3, #24]
  hi2c1.Init.GeneralCallMode = I2C_GENERALCALL_DISABLE;
 80019a6:	4b13      	ldr	r3, [pc, #76]	; (80019f4 <MX_I2C1_Init+0x7c>)
 80019a8:	2200      	movs	r2, #0
 80019aa:	61da      	str	r2, [r3, #28]
  hi2c1.Init.NoStretchMode = I2C_NOSTRETCH_DISABLE;
 80019ac:	4b11      	ldr	r3, [pc, #68]	; (80019f4 <MX_I2C1_Init+0x7c>)
 80019ae:	2200      	movs	r2, #0
 80019b0:	621a      	str	r2, [r3, #32]
  if (HAL_I2C_Init(&hi2c1) != HAL_OK)
 80019b2:	4810      	ldr	r0, [pc, #64]	; (80019f4 <MX_I2C1_Init+0x7c>)
 80019b4:	f003 fbe0 	bl	8005178 <HAL_I2C_Init>
 80019b8:	4603      	mov	r3, r0
 80019ba:	2b00      	cmp	r3, #0
 80019bc:	d001      	beq.n	80019c2 <MX_I2C1_Init+0x4a>
  {
    Error_Handler();
 80019be:	f000 f98d 	bl	8001cdc <Error_Handler>
  }
  /** Configure Analogue filter
  */
  if (HAL_I2CEx_ConfigAnalogFilter(&hi2c1, I2C_ANALOGFILTER_ENABLE) != HAL_OK)
 80019c2:	2100      	movs	r1, #0
 80019c4:	480b      	ldr	r0, [pc, #44]	; (80019f4 <MX_I2C1_Init+0x7c>)
 80019c6:	f003 ffff 	bl	80059c8 <HAL_I2CEx_ConfigAnalogFilter>
 80019ca:	4603      	mov	r3, r0
 80019cc:	2b00      	cmp	r3, #0
 80019ce:	d001      	beq.n	80019d4 <MX_I2C1_Init+0x5c>
  {
    Error_Handler();
 80019d0:	f000 f984 	bl	8001cdc <Error_Handler>
  }
  /** Configure Digital filter
  */
  if (HAL_I2CEx_ConfigDigitalFilter(&hi2c1, 0) != HAL_OK)
 80019d4:	2100      	movs	r1, #0
 80019d6:	4807      	ldr	r0, [pc, #28]	; (80019f4 <MX_I2C1_Init+0x7c>)
 80019d8:	f004 f841 	bl	8005a5e <HAL_I2CEx_ConfigDigitalFilter>
 80019dc:	4603      	mov	r3, r0
 80019de:	2b00      	cmp	r3, #0
 80019e0:	d001      	beq.n	80019e6 <MX_I2C1_Init+0x6e>
  {
    Error_Handler();
 80019e2:	f000 f97b 	bl	8001cdc <Error_Handler>
  }
  /** I2C Fast mode Plus enable
  */
  HAL_I2CEx_EnableFastModePlus(I2C_FASTMODEPLUS_I2C1);
 80019e6:	f44f 1080 	mov.w	r0, #1048576	; 0x100000
 80019ea:	f004 f885 	bl	8005af8 <HAL_I2CEx_EnableFastModePlus>

}
 80019ee:	bf00      	nop
 80019f0:	bd80      	pop	{r7, pc}
 80019f2:	bf00      	nop
 80019f4:	20001c34 	.word	0x20001c34
 80019f8:	40005400 	.word	0x40005400
 80019fc:	00300f33 	.word	0x00300f33

08001a00 <HAL_I2C_MspInit>:

void HAL_I2C_MspInit(I2C_HandleTypeDef* i2cHandle)
{
 8001a00:	b580      	push	{r7, lr}
 8001a02:	b08a      	sub	sp, #40	; 0x28
 8001a04:	af00      	add	r7, sp, #0
 8001a06:	6078      	str	r0, [r7, #4]

  GPIO_InitTypeDef GPIO_InitStruct = {0};
 8001a08:	f107 0314 	add.w	r3, r7, #20
 8001a0c:	2200      	movs	r2, #0
 8001a0e:	601a      	str	r2, [r3, #0]
 8001a10:	605a      	str	r2, [r3, #4]
 8001a12:	609a      	str	r2, [r3, #8]
 8001a14:	60da      	str	r2, [r3, #12]
 8001a16:	611a      	str	r2, [r3, #16]
  if(i2cHandle->Instance==I2C1)
 8001a18:	687b      	ldr	r3, [r7, #4]
 8001a1a:	681b      	ldr	r3, [r3, #0]
 8001a1c:	4a31      	ldr	r2, [pc, #196]	; (8001ae4 <HAL_I2C_MspInit+0xe4>)
 8001a1e:	4293      	cmp	r3, r2
 8001a20:	d15b      	bne.n	8001ada <HAL_I2C_MspInit+0xda>
  {
  /* USER CODE BEGIN I2C1_MspInit 0 */

  /* USER CODE END I2C1_MspInit 0 */

    __HAL_RCC_GPIOA_CLK_ENABLE();
 8001a22:	4b31      	ldr	r3, [pc, #196]	; (8001ae8 <HAL_I2C_MspInit+0xe8>)
 8001a24:	6cdb      	ldr	r3, [r3, #76]	; 0x4c
 8001a26:	4a30      	ldr	r2, [pc, #192]	; (8001ae8 <HAL_I2C_MspInit+0xe8>)
 8001a28:	f043 0301 	orr.w	r3, r3, #1
 8001a2c:	64d3      	str	r3, [r2, #76]	; 0x4c
 8001a2e:	4b2e      	ldr	r3, [pc, #184]	; (8001ae8 <HAL_I2C_MspInit+0xe8>)
 8001a30:	6cdb      	ldr	r3, [r3, #76]	; 0x4c
 8001a32:	f003 0301 	and.w	r3, r3, #1
 8001a36:	613b      	str	r3, [r7, #16]
 8001a38:	693b      	ldr	r3, [r7, #16]
    /**I2C1 GPIO Configuration
    PA9     ------> I2C1_SCL
    PA10     ------> I2C1_SDA
    */
    GPIO_InitStruct.Pin = GPIO_PIN_9|GPIO_PIN_10;
 8001a3a:	f44f 63c0 	mov.w	r3, #1536	; 0x600
 8001a3e:	617b      	str	r3, [r7, #20]
    GPIO_InitStruct.Mode = GPIO_MODE_AF_OD;
 8001a40:	2312      	movs	r3, #18
 8001a42:	61bb      	str	r3, [r7, #24]
    GPIO_InitStruct.Pull = GPIO_PULLUP;
 8001a44:	2301      	movs	r3, #1
 8001a46:	61fb      	str	r3, [r7, #28]
    GPIO_InitStruct.Speed = GPIO_SPEED_FREQ_VERY_HIGH;
 8001a48:	2303      	movs	r3, #3
 8001a4a:	623b      	str	r3, [r7, #32]
    GPIO_InitStruct.Alternate = GPIO_AF4_I2C1;
 8001a4c:	2304      	movs	r3, #4
 8001a4e:	627b      	str	r3, [r7, #36]	; 0x24
    HAL_GPIO_Init(GPIOA, &GPIO_InitStruct);
 8001a50:	f107 0314 	add.w	r3, r7, #20
 8001a54:	4619      	mov	r1, r3
 8001a56:	f04f 4090 	mov.w	r0, #1207959552	; 0x48000000
 8001a5a:	f003 f9db 	bl	8004e14 <HAL_GPIO_Init>

    /* I2C1 clock enable */
    __HAL_RCC_I2C1_CLK_ENABLE();
 8001a5e:	4b22      	ldr	r3, [pc, #136]	; (8001ae8 <HAL_I2C_MspInit+0xe8>)
 8001a60:	6d9b      	ldr	r3, [r3, #88]	; 0x58
 8001a62:	4a21      	ldr	r2, [pc, #132]	; (8001ae8 <HAL_I2C_MspInit+0xe8>)
 8001a64:	f443 1300 	orr.w	r3, r3, #2097152	; 0x200000
 8001a68:	6593      	str	r3, [r2, #88]	; 0x58
 8001a6a:	4b1f      	ldr	r3, [pc, #124]	; (8001ae8 <HAL_I2C_MspInit+0xe8>)
 8001a6c:	6d9b      	ldr	r3, [r3, #88]	; 0x58
 8001a6e:	f403 1300 	and.w	r3, r3, #2097152	; 0x200000
 8001a72:	60fb      	str	r3, [r7, #12]
 8001a74:	68fb      	ldr	r3, [r7, #12]

    /* I2C1 DMA Init */
    /* I2C1_TX Init */
    hdma_i2c1_tx.Instance = DMA1_Channel6;
 8001a76:	4b1d      	ldr	r3, [pc, #116]	; (8001aec <HAL_I2C_MspInit+0xec>)
 8001a78:	4a1d      	ldr	r2, [pc, #116]	; (8001af0 <HAL_I2C_MspInit+0xf0>)
 8001a7a:	601a      	str	r2, [r3, #0]
    hdma_i2c1_tx.Init.Request = DMA_REQUEST_3;
 8001a7c:	4b1b      	ldr	r3, [pc, #108]	; (8001aec <HAL_I2C_MspInit+0xec>)
 8001a7e:	2203      	movs	r2, #3
 8001a80:	605a      	str	r2, [r3, #4]
    hdma_i2c1_tx.Init.Direction = DMA_MEMORY_TO_PERIPH;
 8001a82:	4b1a      	ldr	r3, [pc, #104]	; (8001aec <HAL_I2C_MspInit+0xec>)
 8001a84:	2210      	movs	r2, #16
 8001a86:	609a      	str	r2, [r3, #8]
    hdma_i2c1_tx.Init.PeriphInc = DMA_PINC_DISABLE;
 8001a88:	4b18      	ldr	r3, [pc, #96]	; (8001aec <HAL_I2C_MspInit+0xec>)
 8001a8a:	2200      	movs	r2, #0
 8001a8c:	60da      	str	r2, [r3, #12]
    hdma_i2c1_tx.Init.MemInc = DMA_MINC_ENABLE;
 8001a8e:	4b17      	ldr	r3, [pc, #92]	; (8001aec <HAL_I2C_MspInit+0xec>)
 8001a90:	2280      	movs	r2, #128	; 0x80
 8001a92:	611a      	str	r2, [r3, #16]
    hdma_i2c1_tx.Init.PeriphDataAlignment = DMA_PDATAALIGN_BYTE;
 8001a94:	4b15      	ldr	r3, [pc, #84]	; (8001aec <HAL_I2C_MspInit+0xec>)
 8001a96:	2200      	movs	r2, #0
 8001a98:	615a      	str	r2, [r3, #20]
    hdma_i2c1_tx.Init.MemDataAlignment = DMA_MDATAALIGN_BYTE;
 8001a9a:	4b14      	ldr	r3, [pc, #80]	; (8001aec <HAL_I2C_MspInit+0xec>)
 8001a9c:	2200      	movs	r2, #0
 8001a9e:	619a      	str	r2, [r3, #24]
    hdma_i2c1_tx.Init.Mode = DMA_NORMAL;
 8001aa0:	4b12      	ldr	r3, [pc, #72]	; (8001aec <HAL_I2C_MspInit+0xec>)
 8001aa2:	2200      	movs	r2, #0
 8001aa4:	61da      	str	r2, [r3, #28]
    hdma_i2c1_tx.Init.Priority = DMA_PRIORITY_MEDIUM;
 8001aa6:	4b11      	ldr	r3, [pc, #68]	; (8001aec <HAL_I2C_MspInit+0xec>)
 8001aa8:	f44f 5280 	mov.w	r2, #4096	; 0x1000
 8001aac:	621a      	str	r2, [r3, #32]
    if (HAL_DMA_Init(&hdma_i2c1_tx) != HAL_OK)
 8001aae:	480f      	ldr	r0, [pc, #60]	; (8001aec <HAL_I2C_MspInit+0xec>)
 8001ab0:	f002 ffb8 	bl	8004a24 <HAL_DMA_Init>
 8001ab4:	4603      	mov	r3, r0
 8001ab6:	2b00      	cmp	r3, #0
 8001ab8:	d001      	beq.n	8001abe <HAL_I2C_MspInit+0xbe>
    {
      Error_Handler();
 8001aba:	f000 f90f 	bl	8001cdc <Error_Handler>
    }

    __HAL_LINKDMA(i2cHandle,hdmatx,hdma_i2c1_tx);
 8001abe:	687b      	ldr	r3, [r7, #4]
 8001ac0:	4a0a      	ldr	r2, [pc, #40]	; (8001aec <HAL_I2C_MspInit+0xec>)
 8001ac2:	639a      	str	r2, [r3, #56]	; 0x38
 8001ac4:	4a09      	ldr	r2, [pc, #36]	; (8001aec <HAL_I2C_MspInit+0xec>)
 8001ac6:	687b      	ldr	r3, [r7, #4]
 8001ac8:	6293      	str	r3, [r2, #40]	; 0x28

    /* I2C1 interrupt Init */
    HAL_NVIC_SetPriority(I2C1_EV_IRQn, 0, 0);
 8001aca:	2200      	movs	r2, #0
 8001acc:	2100      	movs	r1, #0
 8001ace:	201f      	movs	r0, #31
 8001ad0:	f002 fccf 	bl	8004472 <HAL_NVIC_SetPriority>
    HAL_NVIC_EnableIRQ(I2C1_EV_IRQn);
 8001ad4:	201f      	movs	r0, #31
 8001ad6:	f002 fce8 	bl	80044aa <HAL_NVIC_EnableIRQ>
  /* USER CODE BEGIN I2C1_MspInit 1 */

  /* USER CODE END I2C1_MspInit 1 */
  }
}
 8001ada:	bf00      	nop
 8001adc:	3728      	adds	r7, #40	; 0x28
 8001ade:	46bd      	mov	sp, r7
 8001ae0:	bd80      	pop	{r7, pc}
 8001ae2:	bf00      	nop
 8001ae4:	40005400 	.word	0x40005400
 8001ae8:	40021000 	.word	0x40021000
 8001aec:	20001bec 	.word	0x20001bec
 8001af0:	4002006c 	.word	0x4002006c

08001af4 <main>:
/**
  * @brief  The application entry point.
  * @retval int
  */
int main(void)
{
 8001af4:	b580      	push	{r7, lr}
 8001af6:	af00      	add	r7, sp, #0
  /* USER CODE END 1 */

  /* MCU Configuration--------------------------------------------------------*/

  /* Reset of all peripherals, Initializes the Flash interface and the Systick. */
  HAL_Init();
 8001af8:	f001 fae1 	bl	80030be <HAL_Init>
  /* USER CODE BEGIN Init */

  /* USER CODE END Init */

  /* Configure the system clock */
  SystemClock_Config();
 8001afc:	f000 f836 	bl	8001b6c <SystemClock_Config>
  /* USER CODE BEGIN SysInit */

  /* USER CODE END SysInit */

  /* Initialize all configured peripherals */
  MX_GPIO_Init();
 8001b00:	f7ff feb6 	bl	8001870 <MX_GPIO_Init>
  MX_DMA_Init();
 8001b04:	f7ff fbf0 	bl	80012e8 <MX_DMA_Init>
  MX_USART2_UART_Init();
 8001b08:	f001 fa2c 	bl	8002f64 <MX_USART2_UART_Init>
  MX_I2C1_Init();
 8001b0c:	f7ff ff34 	bl	8001978 <MX_I2C1_Init>
  MX_ADC1_Init();
 8001b10:	f7ff f9ca 	bl	8000ea8 <MX_ADC1_Init>
  MX_DAC1_Init();
 8001b14:	f7ff fb0c 	bl	8001130 <MX_DAC1_Init>
  MX_TIM2_Init();
 8001b18:	f001 f9b8 	bl	8002e8c <MX_TIM2_Init>
  /* USER CODE BEGIN 2 */

  dsp_init();
 8001b1c:	f7ff fc60 	bl	80013e0 <dsp_init>
  changePitch(note_index);
 8001b20:	4b0e      	ldr	r3, [pc, #56]	; (8001b5c <main+0x68>)
 8001b22:	781b      	ldrb	r3, [r3, #0]
 8001b24:	4618      	mov	r0, r3
 8001b26:	f7ff fc2b 	bl	8001380 <changePitch>

	if(init_menu()){
 8001b2a:	f000 f8db 	bl	8001ce4 <init_menu>
 8001b2e:	4603      	mov	r3, r0
 8001b30:	2b00      	cmp	r3, #0
 8001b32:	d003      	beq.n	8001b3c <main+0x48>
		printf(" <-- Eurorack --> \r\n");
 8001b34:	480a      	ldr	r0, [pc, #40]	; (8001b60 <main+0x6c>)
 8001b36:	f006 fda1 	bl	800867c <puts>
 8001b3a:	e002      	b.n	8001b42 <main+0x4e>
	}else{
		printf(" PB with LCD \r\n");
 8001b3c:	4809      	ldr	r0, [pc, #36]	; (8001b64 <main+0x70>)
 8001b3e:	f006 fd9d 	bl	800867c <puts>
	}

	set_home_menu();
 8001b42:	f000 f907 	bl	8001d54 <set_home_menu>
	  //printf("%ld %ld %ld\r\n", value[0],value[1],value[2]);

		  /*for (int i=0; i!= 512;i++){
			  printf("%u\r\n", adc_buffer[6*i+1]);
		  }*/
	  if(start_dsp){
 8001b46:	4b08      	ldr	r3, [pc, #32]	; (8001b68 <main+0x74>)
 8001b48:	781b      	ldrb	r3, [r3, #0]
 8001b4a:	2b00      	cmp	r3, #0
 8001b4c:	d004      	beq.n	8001b58 <main+0x64>
		  start_dsp = 0;
 8001b4e:	4b06      	ldr	r3, [pc, #24]	; (8001b68 <main+0x74>)
 8001b50:	2200      	movs	r2, #0
 8001b52:	701a      	strb	r2, [r3, #0]
		  processDSP();
 8001b54:	f7ff fc70 	bl	8001438 <processDSP>
	  }

	  __NOP();
 8001b58:	bf00      	nop
	  if(start_dsp){
 8001b5a:	e7f4      	b.n	8001b46 <main+0x52>
 8001b5c:	200009e0 	.word	0x200009e0
 8001b60:	0800a790 	.word	0x0800a790
 8001b64:	0800a7a4 	.word	0x0800a7a4
 8001b68:	200009e1 	.word	0x200009e1

08001b6c <SystemClock_Config>:
/**
  * @brief System Clock Configuration
  * @retval None
  */
void SystemClock_Config(void)
{
 8001b6c:	b580      	push	{r7, lr}
 8001b6e:	b0ac      	sub	sp, #176	; 0xb0
 8001b70:	af00      	add	r7, sp, #0
  RCC_OscInitTypeDef RCC_OscInitStruct = {0};
 8001b72:	f107 036c 	add.w	r3, r7, #108	; 0x6c
 8001b76:	2244      	movs	r2, #68	; 0x44
 8001b78:	2100      	movs	r1, #0
 8001b7a:	4618      	mov	r0, r3
 8001b7c:	f006 f8a6 	bl	8007ccc <memset>
  RCC_ClkInitTypeDef RCC_ClkInitStruct = {0};
 8001b80:	f107 0358 	add.w	r3, r7, #88	; 0x58
 8001b84:	2200      	movs	r2, #0
 8001b86:	601a      	str	r2, [r3, #0]
 8001b88:	605a      	str	r2, [r3, #4]
 8001b8a:	609a      	str	r2, [r3, #8]
 8001b8c:	60da      	str	r2, [r3, #12]
 8001b8e:	611a      	str	r2, [r3, #16]
  RCC_PeriphCLKInitTypeDef PeriphClkInit = {0};
 8001b90:	1d3b      	adds	r3, r7, #4
 8001b92:	2254      	movs	r2, #84	; 0x54
 8001b94:	2100      	movs	r1, #0
 8001b96:	4618      	mov	r0, r3
 8001b98:	f006 f898 	bl	8007ccc <memset>

  /** Configure LSE Drive Capability
  */
  HAL_PWR_EnableBkUpAccess();
 8001b9c:	f003 ffcc 	bl	8005b38 <HAL_PWR_EnableBkUpAccess>
  __HAL_RCC_LSEDRIVE_CONFIG(RCC_LSEDRIVE_LOW);
 8001ba0:	4b3c      	ldr	r3, [pc, #240]	; (8001c94 <SystemClock_Config+0x128>)
 8001ba2:	f8d3 3090 	ldr.w	r3, [r3, #144]	; 0x90
 8001ba6:	4a3b      	ldr	r2, [pc, #236]	; (8001c94 <SystemClock_Config+0x128>)
 8001ba8:	f023 0318 	bic.w	r3, r3, #24
 8001bac:	f8c2 3090 	str.w	r3, [r2, #144]	; 0x90
  /** Initializes the RCC Oscillators according to the specified parameters
  * in the RCC_OscInitTypeDef structure.
  */
  RCC_OscInitStruct.OscillatorType = RCC_OSCILLATORTYPE_LSE|RCC_OSCILLATORTYPE_MSI;
 8001bb0:	2314      	movs	r3, #20
 8001bb2:	66fb      	str	r3, [r7, #108]	; 0x6c
  RCC_OscInitStruct.LSEState = RCC_LSE_ON;
 8001bb4:	2301      	movs	r3, #1
 8001bb6:	677b      	str	r3, [r7, #116]	; 0x74
  RCC_OscInitStruct.MSIState = RCC_MSI_ON;
 8001bb8:	2301      	movs	r3, #1
 8001bba:	f8c7 3084 	str.w	r3, [r7, #132]	; 0x84
  RCC_OscInitStruct.MSICalibrationValue = 0;
 8001bbe:	2300      	movs	r3, #0
 8001bc0:	f8c7 3088 	str.w	r3, [r7, #136]	; 0x88
  RCC_OscInitStruct.MSIClockRange = RCC_MSIRANGE_6;
 8001bc4:	2360      	movs	r3, #96	; 0x60
 8001bc6:	f8c7 308c 	str.w	r3, [r7, #140]	; 0x8c
  RCC_OscInitStruct.PLL.PLLState = RCC_PLL_ON;
 8001bca:	2302      	movs	r3, #2
 8001bcc:	f8c7 3094 	str.w	r3, [r7, #148]	; 0x94
  RCC_OscInitStruct.PLL.PLLSource = RCC_PLLSOURCE_MSI;
 8001bd0:	2301      	movs	r3, #1
 8001bd2:	f8c7 3098 	str.w	r3, [r7, #152]	; 0x98
  RCC_OscInitStruct.PLL.PLLM = 1;
 8001bd6:	2301      	movs	r3, #1
 8001bd8:	f8c7 309c 	str.w	r3, [r7, #156]	; 0x9c
  RCC_OscInitStruct.PLL.PLLN = 40;
 8001bdc:	2328      	movs	r3, #40	; 0x28
 8001bde:	f8c7 30a0 	str.w	r3, [r7, #160]	; 0xa0
  RCC_OscInitStruct.PLL.PLLP = RCC_PLLP_DIV7;
 8001be2:	2307      	movs	r3, #7
 8001be4:	f8c7 30a4 	str.w	r3, [r7, #164]	; 0xa4
  RCC_OscInitStruct.PLL.PLLQ = RCC_PLLQ_DIV2;
 8001be8:	2302      	movs	r3, #2
 8001bea:	f8c7 30a8 	str.w	r3, [r7, #168]	; 0xa8
  RCC_OscInitStruct.PLL.PLLR = RCC_PLLR_DIV2;
 8001bee:	2302      	movs	r3, #2
 8001bf0:	f8c7 30ac 	str.w	r3, [r7, #172]	; 0xac
  if (HAL_RCC_OscConfig(&RCC_OscInitStruct) != HAL_OK)
 8001bf4:	f107 036c 	add.w	r3, r7, #108	; 0x6c
 8001bf8:	4618      	mov	r0, r3
 8001bfa:	f004 f811 	bl	8005c20 <HAL_RCC_OscConfig>
 8001bfe:	4603      	mov	r3, r0
 8001c00:	2b00      	cmp	r3, #0
 8001c02:	d001      	beq.n	8001c08 <SystemClock_Config+0x9c>
  {
    Error_Handler();
 8001c04:	f000 f86a 	bl	8001cdc <Error_Handler>
  }
  /** Initializes the CPU, AHB and APB buses clocks
  */
  RCC_ClkInitStruct.ClockType = RCC_CLOCKTYPE_HCLK|RCC_CLOCKTYPE_SYSCLK
 8001c08:	230f      	movs	r3, #15
 8001c0a:	65bb      	str	r3, [r7, #88]	; 0x58
                              |RCC_CLOCKTYPE_PCLK1|RCC_CLOCKTYPE_PCLK2;
  RCC_ClkInitStruct.SYSCLKSource = RCC_SYSCLKSOURCE_PLLCLK;
 8001c0c:	2303      	movs	r3, #3
 8001c0e:	65fb      	str	r3, [r7, #92]	; 0x5c
  RCC_ClkInitStruct.AHBCLKDivider = RCC_SYSCLK_DIV1;
 8001c10:	2300      	movs	r3, #0
 8001c12:	663b      	str	r3, [r7, #96]	; 0x60
  RCC_ClkInitStruct.APB1CLKDivider = RCC_HCLK_DIV1;
 8001c14:	2300      	movs	r3, #0
 8001c16:	667b      	str	r3, [r7, #100]	; 0x64
  RCC_ClkInitStruct.APB2CLKDivider = RCC_HCLK_DIV1;
 8001c18:	2300      	movs	r3, #0
 8001c1a:	66bb      	str	r3, [r7, #104]	; 0x68

  if (HAL_RCC_ClockConfig(&RCC_ClkInitStruct, FLASH_LATENCY_4) != HAL_OK)
 8001c1c:	f107 0358 	add.w	r3, r7, #88	; 0x58
 8001c20:	2104      	movs	r1, #4
 8001c22:	4618      	mov	r0, r3
 8001c24:	f004 fc1c 	bl	8006460 <HAL_RCC_ClockConfig>
 8001c28:	4603      	mov	r3, r0
 8001c2a:	2b00      	cmp	r3, #0
 8001c2c:	d001      	beq.n	8001c32 <SystemClock_Config+0xc6>
  {
    Error_Handler();
 8001c2e:	f000 f855 	bl	8001cdc <Error_Handler>
  }
  PeriphClkInit.PeriphClockSelection = RCC_PERIPHCLK_USART2|RCC_PERIPHCLK_I2C1
 8001c32:	f244 0342 	movw	r3, #16450	; 0x4042
 8001c36:	607b      	str	r3, [r7, #4]
                              |RCC_PERIPHCLK_ADC;
  PeriphClkInit.Usart2ClockSelection = RCC_USART2CLKSOURCE_PCLK1;
 8001c38:	2300      	movs	r3, #0
 8001c3a:	62bb      	str	r3, [r7, #40]	; 0x28
  PeriphClkInit.I2c1ClockSelection = RCC_I2C1CLKSOURCE_PCLK1;
 8001c3c:	2300      	movs	r3, #0
 8001c3e:	633b      	str	r3, [r7, #48]	; 0x30
  PeriphClkInit.AdcClockSelection = RCC_ADCCLKSOURCE_PLLSAI1;
 8001c40:	f04f 5380 	mov.w	r3, #268435456	; 0x10000000
 8001c44:	64fb      	str	r3, [r7, #76]	; 0x4c
  PeriphClkInit.PLLSAI1.PLLSAI1Source = RCC_PLLSOURCE_MSI;
 8001c46:	2301      	movs	r3, #1
 8001c48:	60bb      	str	r3, [r7, #8]
  PeriphClkInit.PLLSAI1.PLLSAI1M = 1;
 8001c4a:	2301      	movs	r3, #1
 8001c4c:	60fb      	str	r3, [r7, #12]
  PeriphClkInit.PLLSAI1.PLLSAI1N = 16;
 8001c4e:	2310      	movs	r3, #16
 8001c50:	613b      	str	r3, [r7, #16]
  PeriphClkInit.PLLSAI1.PLLSAI1P = RCC_PLLP_DIV7;
 8001c52:	2307      	movs	r3, #7
 8001c54:	617b      	str	r3, [r7, #20]
  PeriphClkInit.PLLSAI1.PLLSAI1Q = RCC_PLLQ_DIV2;
 8001c56:	2302      	movs	r3, #2
 8001c58:	61bb      	str	r3, [r7, #24]
  PeriphClkInit.PLLSAI1.PLLSAI1R = RCC_PLLR_DIV2;
 8001c5a:	2302      	movs	r3, #2
 8001c5c:	61fb      	str	r3, [r7, #28]
  PeriphClkInit.PLLSAI1.PLLSAI1ClockOut = RCC_PLLSAI1_ADC1CLK;
 8001c5e:	f04f 7380 	mov.w	r3, #16777216	; 0x1000000
 8001c62:	623b      	str	r3, [r7, #32]
  if (HAL_RCCEx_PeriphCLKConfig(&PeriphClkInit) != HAL_OK)
 8001c64:	1d3b      	adds	r3, r7, #4
 8001c66:	4618      	mov	r0, r3
 8001c68:	f004 fdfe 	bl	8006868 <HAL_RCCEx_PeriphCLKConfig>
 8001c6c:	4603      	mov	r3, r0
 8001c6e:	2b00      	cmp	r3, #0
 8001c70:	d001      	beq.n	8001c76 <SystemClock_Config+0x10a>
  {
    Error_Handler();
 8001c72:	f000 f833 	bl	8001cdc <Error_Handler>
  }
  /** Configure the main internal regulator output voltage
  */
  if (HAL_PWREx_ControlVoltageScaling(PWR_REGULATOR_VOLTAGE_SCALE1) != HAL_OK)
 8001c76:	f44f 7000 	mov.w	r0, #512	; 0x200
 8001c7a:	f003 ff7b 	bl	8005b74 <HAL_PWREx_ControlVoltageScaling>
 8001c7e:	4603      	mov	r3, r0
 8001c80:	2b00      	cmp	r3, #0
 8001c82:	d001      	beq.n	8001c88 <SystemClock_Config+0x11c>
  {
    Error_Handler();
 8001c84:	f000 f82a 	bl	8001cdc <Error_Handler>
  }
  /** Enable MSI Auto calibration
  */
  HAL_RCCEx_EnableMSIPLLMode();
 8001c88:	f004 ffe0 	bl	8006c4c <HAL_RCCEx_EnableMSIPLLMode>
}
 8001c8c:	bf00      	nop
 8001c8e:	37b0      	adds	r7, #176	; 0xb0
 8001c90:	46bd      	mov	sp, r7
 8001c92:	bd80      	pop	{r7, pc}
 8001c94:	40021000 	.word	0x40021000

08001c98 <HAL_GPIO_EXTI_Callback>:

void HAL_I2C_ErrorCallback(I2C_HandleTypeDef* hi2c){
	__NOP();
}

void HAL_GPIO_EXTI_Callback(uint16_t GPIO_Pin){
 8001c98:	b580      	push	{r7, lr}
 8001c9a:	b082      	sub	sp, #8
 8001c9c:	af00      	add	r7, sp, #0
 8001c9e:	4603      	mov	r3, r0
 8001ca0:	80fb      	strh	r3, [r7, #6]
	//Pour le switch
	if(GPIO_Pin == KNOB_SWITCH_Pin){
 8001ca2:	88fb      	ldrh	r3, [r7, #6]
 8001ca4:	f5b3 7f80 	cmp.w	r3, #256	; 0x100
 8001ca8:	d102      	bne.n	8001cb0 <HAL_GPIO_EXTI_Callback+0x18>
		//On a appuy sur le bouton
		set_menu_SWITCH_EVENT();
 8001caa:	f000 f85f 	bl	8001d6c <set_menu_SWITCH_EVENT>
 8001cae:	e000      	b.n	8001cb2 <HAL_GPIO_EXTI_Callback+0x1a>

	}else{
		__NOP();
 8001cb0:	bf00      	nop
	}
	//Pour grer la roue codeuse
	if(GPIO_Pin == GPIO_PIN_1){
 8001cb2:	88fb      	ldrh	r3, [r7, #6]
 8001cb4:	2b02      	cmp	r3, #2
 8001cb6:	d10b      	bne.n	8001cd0 <HAL_GPIO_EXTI_Callback+0x38>
		//Gestion de l'interruption
		if(HAL_GPIO_ReadPin(KNOB_CH_A_GPIO_Port, KNOB_CH_A_Pin)){
 8001cb8:	2140      	movs	r1, #64	; 0x40
 8001cba:	4807      	ldr	r0, [pc, #28]	; (8001cd8 <HAL_GPIO_EXTI_Callback+0x40>)
 8001cbc:	f003 fa14 	bl	80050e8 <HAL_GPIO_ReadPin>
 8001cc0:	4603      	mov	r3, r0
 8001cc2:	2b00      	cmp	r3, #0
 8001cc4:	d002      	beq.n	8001ccc <HAL_GPIO_EXTI_Callback+0x34>
			set_menu_KNOB_EVENT_HIGH();
 8001cc6:	f000 f89d 	bl	8001e04 <set_menu_KNOB_EVENT_HIGH>
		}else{
			set_menu_KNOB_EVENT_LOW();
		}
	}
}
 8001cca:	e001      	b.n	8001cd0 <HAL_GPIO_EXTI_Callback+0x38>
			set_menu_KNOB_EVENT_LOW();
 8001ccc:	f000 f93a 	bl	8001f44 <set_menu_KNOB_EVENT_LOW>
}
 8001cd0:	bf00      	nop
 8001cd2:	3708      	adds	r7, #8
 8001cd4:	46bd      	mov	sp, r7
 8001cd6:	bd80      	pop	{r7, pc}
 8001cd8:	48000400 	.word	0x48000400

08001cdc <Error_Handler>:
/**
  * @brief  This function is executed in case of error occurrence.
  * @retval None
  */
void Error_Handler(void)
{
 8001cdc:	b480      	push	{r7}
 8001cde:	af00      	add	r7, sp, #0
  \details Disables IRQ interrupts by setting the I-bit in the CPSR.
           Can only be executed in Privileged modes.
 */
__STATIC_FORCEINLINE void __disable_irq(void)
{
  __ASM volatile ("cpsid i" : : : "memory");
 8001ce0:	b672      	cpsid	i
  /* USER CODE BEGIN Error_Handler_Debug */
  /* User can add his own implementation to report the HAL error return state */
  __disable_irq();
  while (1)
 8001ce2:	e7fe      	b.n	8001ce2 <Error_Handler+0x6>

08001ce4 <init_menu>:
//Variables externes
extern float x;
extern float y;
extern uint8_t note_index;

uint8_t init_menu(){
 8001ce4:	b580      	push	{r7, lr}
 8001ce6:	b082      	sub	sp, #8
 8001ce8:	af00      	add	r7, sp, #0
	uint8_t init = SSD1306_Init();
 8001cea:	f000 fc97 	bl	800261c <SSD1306_Init>
 8001cee:	4603      	mov	r3, r0
 8001cf0:	71fb      	strb	r3, [r7, #7]
	if(init != 1){
 8001cf2:	79fb      	ldrb	r3, [r7, #7]
 8001cf4:	2b01      	cmp	r3, #1
 8001cf6:	d002      	beq.n	8001cfe <init_menu+0x1a>
		printf("ERROR INIT");
 8001cf8:	4803      	ldr	r0, [pc, #12]	; (8001d08 <init_menu+0x24>)
 8001cfa:	f006 fc4b 	bl	8008594 <iprintf>
	}
	return init;
 8001cfe:	79fb      	ldrb	r3, [r7, #7]
}
 8001d00:	4618      	mov	r0, r3
 8001d02:	3708      	adds	r7, #8
 8001d04:	46bd      	mov	sp, r7
 8001d06:	bd80      	pop	{r7, pc}
 8001d08:	0800a934 	.word	0x0800a934

08001d0c <verifValue>:

//Patch crade pour rsoudre le problme de la range de x et y
void verifValue(){
 8001d0c:	b480      	push	{r7}
 8001d0e:	af00      	add	r7, sp, #0
	if(x < 0){x = 0;}
 8001d10:	4b0e      	ldr	r3, [pc, #56]	; (8001d4c <verifValue+0x40>)
 8001d12:	edd3 7a00 	vldr	s15, [r3]
 8001d16:	eef5 7ac0 	vcmpe.f32	s15, #0.0
 8001d1a:	eef1 fa10 	vmrs	APSR_nzcv, fpscr
 8001d1e:	d503      	bpl.n	8001d28 <verifValue+0x1c>
 8001d20:	4b0a      	ldr	r3, [pc, #40]	; (8001d4c <verifValue+0x40>)
 8001d22:	f04f 0200 	mov.w	r2, #0
 8001d26:	601a      	str	r2, [r3, #0]
	if(y < 0){y = 0;}
 8001d28:	4b09      	ldr	r3, [pc, #36]	; (8001d50 <verifValue+0x44>)
 8001d2a:	edd3 7a00 	vldr	s15, [r3]
 8001d2e:	eef5 7ac0 	vcmpe.f32	s15, #0.0
 8001d32:	eef1 fa10 	vmrs	APSR_nzcv, fpscr
 8001d36:	d400      	bmi.n	8001d3a <verifValue+0x2e>
}
 8001d38:	e003      	b.n	8001d42 <verifValue+0x36>
	if(y < 0){y = 0;}
 8001d3a:	4b05      	ldr	r3, [pc, #20]	; (8001d50 <verifValue+0x44>)
 8001d3c:	f04f 0200 	mov.w	r2, #0
 8001d40:	601a      	str	r2, [r3, #0]
}
 8001d42:	bf00      	nop
 8001d44:	46bd      	mov	sp, r7
 8001d46:	f85d 7b04 	ldr.w	r7, [sp], #4
 8001d4a:	4770      	bx	lr
 8001d4c:	20000650 	.word	0x20000650
 8001d50:	200009e4 	.word	0x200009e4

08001d54 <set_home_menu>:

void set_home_menu(){
 8001d54:	b580      	push	{r7, lr}
 8001d56:	af00      	add	r7, sp, #0
	affichageMenu(testMenu);
 8001d58:	4b03      	ldr	r3, [pc, #12]	; (8001d68 <set_home_menu+0x14>)
 8001d5a:	781b      	ldrb	r3, [r3, #0]
 8001d5c:	4618      	mov	r0, r3
 8001d5e:	f000 fc1f 	bl	80025a0 <affichageMenu>
}
 8001d62:	bf00      	nop
 8001d64:	bd80      	pop	{r7, pc}
 8001d66:	bf00      	nop
 8001d68:	200009e8 	.word	0x200009e8

08001d6c <set_menu_SWITCH_EVENT>:

void set_menu_SWITCH_EVENT(){
 8001d6c:	b580      	push	{r7, lr}
 8001d6e:	af00      	add	r7, sp, #0
	if(testMenu == MENU1)
 8001d70:	4b23      	ldr	r3, [pc, #140]	; (8001e00 <set_menu_SWITCH_EVENT+0x94>)
 8001d72:	781b      	ldrb	r3, [r3, #0]
 8001d74:	2b00      	cmp	r3, #0
 8001d76:	d103      	bne.n	8001d80 <set_menu_SWITCH_EVENT+0x14>
				testMenu = MENUPITCH;
 8001d78:	4b21      	ldr	r3, [pc, #132]	; (8001e00 <set_menu_SWITCH_EVENT+0x94>)
 8001d7a:	2204      	movs	r2, #4
 8001d7c:	701a      	strb	r2, [r3, #0]
 8001d7e:	e036      	b.n	8001dee <set_menu_SWITCH_EVENT+0x82>
			else if(testMenu == MENU2)
 8001d80:	4b1f      	ldr	r3, [pc, #124]	; (8001e00 <set_menu_SWITCH_EVENT+0x94>)
 8001d82:	781b      	ldrb	r3, [r3, #0]
 8001d84:	2b01      	cmp	r3, #1
 8001d86:	d103      	bne.n	8001d90 <set_menu_SWITCH_EVENT+0x24>
				testMenu = MENUX;
 8001d88:	4b1d      	ldr	r3, [pc, #116]	; (8001e00 <set_menu_SWITCH_EVENT+0x94>)
 8001d8a:	2205      	movs	r2, #5
 8001d8c:	701a      	strb	r2, [r3, #0]
 8001d8e:	e02e      	b.n	8001dee <set_menu_SWITCH_EVENT+0x82>
			else if(testMenu == MENU3)
 8001d90:	4b1b      	ldr	r3, [pc, #108]	; (8001e00 <set_menu_SWITCH_EVENT+0x94>)
 8001d92:	781b      	ldrb	r3, [r3, #0]
 8001d94:	2b02      	cmp	r3, #2
 8001d96:	d103      	bne.n	8001da0 <set_menu_SWITCH_EVENT+0x34>
				testMenu = MENUY;
 8001d98:	4b19      	ldr	r3, [pc, #100]	; (8001e00 <set_menu_SWITCH_EVENT+0x94>)
 8001d9a:	2206      	movs	r2, #6
 8001d9c:	701a      	strb	r2, [r3, #0]
 8001d9e:	e026      	b.n	8001dee <set_menu_SWITCH_EVENT+0x82>
			else if(testMenu == MENU3BIS)
 8001da0:	4b17      	ldr	r3, [pc, #92]	; (8001e00 <set_menu_SWITCH_EVENT+0x94>)
 8001da2:	781b      	ldrb	r3, [r3, #0]
 8001da4:	2b03      	cmp	r3, #3
 8001da6:	d103      	bne.n	8001db0 <set_menu_SWITCH_EVENT+0x44>
				testMenu = MENUXBIS;
 8001da8:	4b15      	ldr	r3, [pc, #84]	; (8001e00 <set_menu_SWITCH_EVENT+0x94>)
 8001daa:	2207      	movs	r2, #7
 8001dac:	701a      	strb	r2, [r3, #0]
 8001dae:	e01e      	b.n	8001dee <set_menu_SWITCH_EVENT+0x82>
			else if(testMenu == MENUPITCH)
 8001db0:	4b13      	ldr	r3, [pc, #76]	; (8001e00 <set_menu_SWITCH_EVENT+0x94>)
 8001db2:	781b      	ldrb	r3, [r3, #0]
 8001db4:	2b04      	cmp	r3, #4
 8001db6:	d103      	bne.n	8001dc0 <set_menu_SWITCH_EVENT+0x54>
				testMenu = MENU1;
 8001db8:	4b11      	ldr	r3, [pc, #68]	; (8001e00 <set_menu_SWITCH_EVENT+0x94>)
 8001dba:	2200      	movs	r2, #0
 8001dbc:	701a      	strb	r2, [r3, #0]
 8001dbe:	e016      	b.n	8001dee <set_menu_SWITCH_EVENT+0x82>
			else if(testMenu == MENUX)
 8001dc0:	4b0f      	ldr	r3, [pc, #60]	; (8001e00 <set_menu_SWITCH_EVENT+0x94>)
 8001dc2:	781b      	ldrb	r3, [r3, #0]
 8001dc4:	2b05      	cmp	r3, #5
 8001dc6:	d103      	bne.n	8001dd0 <set_menu_SWITCH_EVENT+0x64>
				testMenu = MENU2;
 8001dc8:	4b0d      	ldr	r3, [pc, #52]	; (8001e00 <set_menu_SWITCH_EVENT+0x94>)
 8001dca:	2201      	movs	r2, #1
 8001dcc:	701a      	strb	r2, [r3, #0]
 8001dce:	e00e      	b.n	8001dee <set_menu_SWITCH_EVENT+0x82>
			else if(testMenu == MENUY)
 8001dd0:	4b0b      	ldr	r3, [pc, #44]	; (8001e00 <set_menu_SWITCH_EVENT+0x94>)
 8001dd2:	781b      	ldrb	r3, [r3, #0]
 8001dd4:	2b06      	cmp	r3, #6
 8001dd6:	d103      	bne.n	8001de0 <set_menu_SWITCH_EVENT+0x74>
				testMenu = MENU3;
 8001dd8:	4b09      	ldr	r3, [pc, #36]	; (8001e00 <set_menu_SWITCH_EVENT+0x94>)
 8001dda:	2202      	movs	r2, #2
 8001ddc:	701a      	strb	r2, [r3, #0]
 8001dde:	e006      	b.n	8001dee <set_menu_SWITCH_EVENT+0x82>
			else if(testMenu == MENUXBIS)
 8001de0:	4b07      	ldr	r3, [pc, #28]	; (8001e00 <set_menu_SWITCH_EVENT+0x94>)
 8001de2:	781b      	ldrb	r3, [r3, #0]
 8001de4:	2b07      	cmp	r3, #7
 8001de6:	d102      	bne.n	8001dee <set_menu_SWITCH_EVENT+0x82>
				testMenu = MENU3BIS;
 8001de8:	4b05      	ldr	r3, [pc, #20]	; (8001e00 <set_menu_SWITCH_EVENT+0x94>)
 8001dea:	2203      	movs	r2, #3
 8001dec:	701a      	strb	r2, [r3, #0]

			verifValue();
 8001dee:	f7ff ff8d 	bl	8001d0c <verifValue>
			affichageMenu(testMenu);
 8001df2:	4b03      	ldr	r3, [pc, #12]	; (8001e00 <set_menu_SWITCH_EVENT+0x94>)
 8001df4:	781b      	ldrb	r3, [r3, #0]
 8001df6:	4618      	mov	r0, r3
 8001df8:	f000 fbd2 	bl	80025a0 <affichageMenu>
}
 8001dfc:	bf00      	nop
 8001dfe:	bd80      	pop	{r7, pc}
 8001e00:	200009e8 	.word	0x200009e8

08001e04 <set_menu_KNOB_EVENT_HIGH>:

void set_menu_KNOB_EVENT_HIGH(){
 8001e04:	b580      	push	{r7, lr}
 8001e06:	af00      	add	r7, sp, #0
	if(testMenu == MENU1 || testMenu == MENU2)
 8001e08:	4b49      	ldr	r3, [pc, #292]	; (8001f30 <set_menu_KNOB_EVENT_HIGH+0x12c>)
 8001e0a:	781b      	ldrb	r3, [r3, #0]
 8001e0c:	2b00      	cmp	r3, #0
 8001e0e:	d003      	beq.n	8001e18 <set_menu_KNOB_EVENT_HIGH+0x14>
 8001e10:	4b47      	ldr	r3, [pc, #284]	; (8001f30 <set_menu_KNOB_EVENT_HIGH+0x12c>)
 8001e12:	781b      	ldrb	r3, [r3, #0]
 8001e14:	2b01      	cmp	r3, #1
 8001e16:	d10d      	bne.n	8001e34 <set_menu_KNOB_EVENT_HIGH+0x30>
	{
		testMenu ++;
 8001e18:	4b45      	ldr	r3, [pc, #276]	; (8001f30 <set_menu_KNOB_EVENT_HIGH+0x12c>)
 8001e1a:	781b      	ldrb	r3, [r3, #0]
 8001e1c:	3301      	adds	r3, #1
 8001e1e:	b2da      	uxtb	r2, r3
 8001e20:	4b43      	ldr	r3, [pc, #268]	; (8001f30 <set_menu_KNOB_EVENT_HIGH+0x12c>)
 8001e22:	701a      	strb	r2, [r3, #0]
		verifValue();
 8001e24:	f7ff ff72 	bl	8001d0c <verifValue>
		affichageMenu(testMenu);
 8001e28:	4b41      	ldr	r3, [pc, #260]	; (8001f30 <set_menu_KNOB_EVENT_HIGH+0x12c>)
 8001e2a:	781b      	ldrb	r3, [r3, #0]
 8001e2c:	4618      	mov	r0, r3
 8001e2e:	f000 fbb7 	bl	80025a0 <affichageMenu>
 8001e32:	e07b      	b.n	8001f2c <set_menu_KNOB_EVENT_HIGH+0x128>
	}
	else if(testMenu == MENU3BIS)
 8001e34:	4b3e      	ldr	r3, [pc, #248]	; (8001f30 <set_menu_KNOB_EVENT_HIGH+0x12c>)
 8001e36:	781b      	ldrb	r3, [r3, #0]
 8001e38:	2b03      	cmp	r3, #3
 8001e3a:	d10a      	bne.n	8001e52 <set_menu_KNOB_EVENT_HIGH+0x4e>
	{
		testMenu = MENU3;
 8001e3c:	4b3c      	ldr	r3, [pc, #240]	; (8001f30 <set_menu_KNOB_EVENT_HIGH+0x12c>)
 8001e3e:	2202      	movs	r2, #2
 8001e40:	701a      	strb	r2, [r3, #0]
		verifValue();
 8001e42:	f7ff ff63 	bl	8001d0c <verifValue>
		affichageMenu(testMenu);
 8001e46:	4b3a      	ldr	r3, [pc, #232]	; (8001f30 <set_menu_KNOB_EVENT_HIGH+0x12c>)
 8001e48:	781b      	ldrb	r3, [r3, #0]
 8001e4a:	4618      	mov	r0, r3
 8001e4c:	f000 fba8 	bl	80025a0 <affichageMenu>
				verifValue();
				affichageMenu(testMenu);
			}
		}
	}
}
 8001e50:	e06c      	b.n	8001f2c <set_menu_KNOB_EVENT_HIGH+0x128>
	else if(testMenu == MENUX || testMenu == MENUY || testMenu == MENUXBIS || testMenu == MENUPITCH)
 8001e52:	4b37      	ldr	r3, [pc, #220]	; (8001f30 <set_menu_KNOB_EVENT_HIGH+0x12c>)
 8001e54:	781b      	ldrb	r3, [r3, #0]
 8001e56:	2b05      	cmp	r3, #5
 8001e58:	d00b      	beq.n	8001e72 <set_menu_KNOB_EVENT_HIGH+0x6e>
 8001e5a:	4b35      	ldr	r3, [pc, #212]	; (8001f30 <set_menu_KNOB_EVENT_HIGH+0x12c>)
 8001e5c:	781b      	ldrb	r3, [r3, #0]
 8001e5e:	2b06      	cmp	r3, #6
 8001e60:	d007      	beq.n	8001e72 <set_menu_KNOB_EVENT_HIGH+0x6e>
 8001e62:	4b33      	ldr	r3, [pc, #204]	; (8001f30 <set_menu_KNOB_EVENT_HIGH+0x12c>)
 8001e64:	781b      	ldrb	r3, [r3, #0]
 8001e66:	2b07      	cmp	r3, #7
 8001e68:	d003      	beq.n	8001e72 <set_menu_KNOB_EVENT_HIGH+0x6e>
 8001e6a:	4b31      	ldr	r3, [pc, #196]	; (8001f30 <set_menu_KNOB_EVENT_HIGH+0x12c>)
 8001e6c:	781b      	ldrb	r3, [r3, #0]
 8001e6e:	2b04      	cmp	r3, #4
 8001e70:	d15c      	bne.n	8001f2c <set_menu_KNOB_EVENT_HIGH+0x128>
		if(testMenu == MENUX || testMenu == MENUXBIS)
 8001e72:	4b2f      	ldr	r3, [pc, #188]	; (8001f30 <set_menu_KNOB_EVENT_HIGH+0x12c>)
 8001e74:	781b      	ldrb	r3, [r3, #0]
 8001e76:	2b05      	cmp	r3, #5
 8001e78:	d003      	beq.n	8001e82 <set_menu_KNOB_EVENT_HIGH+0x7e>
 8001e7a:	4b2d      	ldr	r3, [pc, #180]	; (8001f30 <set_menu_KNOB_EVENT_HIGH+0x12c>)
 8001e7c:	781b      	ldrb	r3, [r3, #0]
 8001e7e:	2b07      	cmp	r3, #7
 8001e80:	d11c      	bne.n	8001ebc <set_menu_KNOB_EVENT_HIGH+0xb8>
			if(x < 1)
 8001e82:	4b2c      	ldr	r3, [pc, #176]	; (8001f34 <set_menu_KNOB_EVENT_HIGH+0x130>)
 8001e84:	edd3 7a00 	vldr	s15, [r3]
 8001e88:	eeb7 7a00 	vmov.f32	s14, #112	; 0x3f800000  1.0
 8001e8c:	eef4 7ac7 	vcmpe.f32	s15, s14
 8001e90:	eef1 fa10 	vmrs	APSR_nzcv, fpscr
 8001e94:	d54a      	bpl.n	8001f2c <set_menu_KNOB_EVENT_HIGH+0x128>
				x += pas;
 8001e96:	4b27      	ldr	r3, [pc, #156]	; (8001f34 <set_menu_KNOB_EVENT_HIGH+0x130>)
 8001e98:	ed93 7a00 	vldr	s14, [r3]
 8001e9c:	4b26      	ldr	r3, [pc, #152]	; (8001f38 <set_menu_KNOB_EVENT_HIGH+0x134>)
 8001e9e:	edd3 7a00 	vldr	s15, [r3]
 8001ea2:	ee77 7a27 	vadd.f32	s15, s14, s15
 8001ea6:	4b23      	ldr	r3, [pc, #140]	; (8001f34 <set_menu_KNOB_EVENT_HIGH+0x130>)
 8001ea8:	edc3 7a00 	vstr	s15, [r3]
				verifValue();
 8001eac:	f7ff ff2e 	bl	8001d0c <verifValue>
				affichageMenu(testMenu);
 8001eb0:	4b1f      	ldr	r3, [pc, #124]	; (8001f30 <set_menu_KNOB_EVENT_HIGH+0x12c>)
 8001eb2:	781b      	ldrb	r3, [r3, #0]
 8001eb4:	4618      	mov	r0, r3
 8001eb6:	f000 fb73 	bl	80025a0 <affichageMenu>
			if(x < 1)
 8001eba:	e037      	b.n	8001f2c <set_menu_KNOB_EVENT_HIGH+0x128>
		else if(testMenu == MENUY)
 8001ebc:	4b1c      	ldr	r3, [pc, #112]	; (8001f30 <set_menu_KNOB_EVENT_HIGH+0x12c>)
 8001ebe:	781b      	ldrb	r3, [r3, #0]
 8001ec0:	2b06      	cmp	r3, #6
 8001ec2:	d11d      	bne.n	8001f00 <set_menu_KNOB_EVENT_HIGH+0xfc>
			if(y < 1)
 8001ec4:	4b1d      	ldr	r3, [pc, #116]	; (8001f3c <set_menu_KNOB_EVENT_HIGH+0x138>)
 8001ec6:	edd3 7a00 	vldr	s15, [r3]
 8001eca:	eeb7 7a00 	vmov.f32	s14, #112	; 0x3f800000  1.0
 8001ece:	eef4 7ac7 	vcmpe.f32	s15, s14
 8001ed2:	eef1 fa10 	vmrs	APSR_nzcv, fpscr
 8001ed6:	d400      	bmi.n	8001eda <set_menu_KNOB_EVENT_HIGH+0xd6>
}
 8001ed8:	e028      	b.n	8001f2c <set_menu_KNOB_EVENT_HIGH+0x128>
				y += pas;
 8001eda:	4b18      	ldr	r3, [pc, #96]	; (8001f3c <set_menu_KNOB_EVENT_HIGH+0x138>)
 8001edc:	ed93 7a00 	vldr	s14, [r3]
 8001ee0:	4b15      	ldr	r3, [pc, #84]	; (8001f38 <set_menu_KNOB_EVENT_HIGH+0x134>)
 8001ee2:	edd3 7a00 	vldr	s15, [r3]
 8001ee6:	ee77 7a27 	vadd.f32	s15, s14, s15
 8001eea:	4b14      	ldr	r3, [pc, #80]	; (8001f3c <set_menu_KNOB_EVENT_HIGH+0x138>)
 8001eec:	edc3 7a00 	vstr	s15, [r3]
				verifValue();
 8001ef0:	f7ff ff0c 	bl	8001d0c <verifValue>
				affichageMenu(testMenu);
 8001ef4:	4b0e      	ldr	r3, [pc, #56]	; (8001f30 <set_menu_KNOB_EVENT_HIGH+0x12c>)
 8001ef6:	781b      	ldrb	r3, [r3, #0]
 8001ef8:	4618      	mov	r0, r3
 8001efa:	f000 fb51 	bl	80025a0 <affichageMenu>
}
 8001efe:	e015      	b.n	8001f2c <set_menu_KNOB_EVENT_HIGH+0x128>
		else if(testMenu == MENUPITCH)
 8001f00:	4b0b      	ldr	r3, [pc, #44]	; (8001f30 <set_menu_KNOB_EVENT_HIGH+0x12c>)
 8001f02:	781b      	ldrb	r3, [r3, #0]
 8001f04:	2b04      	cmp	r3, #4
 8001f06:	d111      	bne.n	8001f2c <set_menu_KNOB_EVENT_HIGH+0x128>
			if(note_index < 95)
 8001f08:	4b0d      	ldr	r3, [pc, #52]	; (8001f40 <set_menu_KNOB_EVENT_HIGH+0x13c>)
 8001f0a:	781b      	ldrb	r3, [r3, #0]
 8001f0c:	2b5e      	cmp	r3, #94	; 0x5e
 8001f0e:	d80d      	bhi.n	8001f2c <set_menu_KNOB_EVENT_HIGH+0x128>
				note_index ++ ;
 8001f10:	4b0b      	ldr	r3, [pc, #44]	; (8001f40 <set_menu_KNOB_EVENT_HIGH+0x13c>)
 8001f12:	781b      	ldrb	r3, [r3, #0]
 8001f14:	3301      	adds	r3, #1
 8001f16:	b2da      	uxtb	r2, r3
 8001f18:	4b09      	ldr	r3, [pc, #36]	; (8001f40 <set_menu_KNOB_EVENT_HIGH+0x13c>)
 8001f1a:	701a      	strb	r2, [r3, #0]
				verifValue();
 8001f1c:	f7ff fef6 	bl	8001d0c <verifValue>
				affichageMenu(testMenu);
 8001f20:	4b03      	ldr	r3, [pc, #12]	; (8001f30 <set_menu_KNOB_EVENT_HIGH+0x12c>)
 8001f22:	781b      	ldrb	r3, [r3, #0]
 8001f24:	4618      	mov	r0, r3
 8001f26:	f000 fb3b 	bl	80025a0 <affichageMenu>
}
 8001f2a:	e7ff      	b.n	8001f2c <set_menu_KNOB_EVENT_HIGH+0x128>
 8001f2c:	bf00      	nop
 8001f2e:	bd80      	pop	{r7, pc}
 8001f30:	200009e8 	.word	0x200009e8
 8001f34:	20000650 	.word	0x20000650
 8001f38:	200007d4 	.word	0x200007d4
 8001f3c:	200009e4 	.word	0x200009e4
 8001f40:	200009e0 	.word	0x200009e0

08001f44 <set_menu_KNOB_EVENT_LOW>:

void set_menu_KNOB_EVENT_LOW(){
 8001f44:	b580      	push	{r7, lr}
 8001f46:	af00      	add	r7, sp, #0
	if(testMenu == MENU2 || testMenu == MENU3BIS)
 8001f48:	4b3e      	ldr	r3, [pc, #248]	; (8002044 <set_menu_KNOB_EVENT_LOW+0x100>)
 8001f4a:	781b      	ldrb	r3, [r3, #0]
 8001f4c:	2b01      	cmp	r3, #1
 8001f4e:	d003      	beq.n	8001f58 <set_menu_KNOB_EVENT_LOW+0x14>
 8001f50:	4b3c      	ldr	r3, [pc, #240]	; (8002044 <set_menu_KNOB_EVENT_LOW+0x100>)
 8001f52:	781b      	ldrb	r3, [r3, #0]
 8001f54:	2b03      	cmp	r3, #3
 8001f56:	d10a      	bne.n	8001f6e <set_menu_KNOB_EVENT_LOW+0x2a>
	{
		testMenu = MENU1;
 8001f58:	4b3a      	ldr	r3, [pc, #232]	; (8002044 <set_menu_KNOB_EVENT_LOW+0x100>)
 8001f5a:	2200      	movs	r2, #0
 8001f5c:	701a      	strb	r2, [r3, #0]
		verifValue();
 8001f5e:	f7ff fed5 	bl	8001d0c <verifValue>
		affichageMenu(testMenu);
 8001f62:	4b38      	ldr	r3, [pc, #224]	; (8002044 <set_menu_KNOB_EVENT_LOW+0x100>)
 8001f64:	781b      	ldrb	r3, [r3, #0]
 8001f66:	4618      	mov	r0, r3
 8001f68:	f000 fb1a 	bl	80025a0 <affichageMenu>
 8001f6c:	e067      	b.n	800203e <set_menu_KNOB_EVENT_LOW+0xfa>
	}
	else if(testMenu == MENU3)
 8001f6e:	4b35      	ldr	r3, [pc, #212]	; (8002044 <set_menu_KNOB_EVENT_LOW+0x100>)
 8001f70:	781b      	ldrb	r3, [r3, #0]
 8001f72:	2b02      	cmp	r3, #2
 8001f74:	d10a      	bne.n	8001f8c <set_menu_KNOB_EVENT_LOW+0x48>
	{
		testMenu = MENU3BIS;
 8001f76:	4b33      	ldr	r3, [pc, #204]	; (8002044 <set_menu_KNOB_EVENT_LOW+0x100>)
 8001f78:	2203      	movs	r2, #3
 8001f7a:	701a      	strb	r2, [r3, #0]
		verifValue();
 8001f7c:	f7ff fec6 	bl	8001d0c <verifValue>
		affichageMenu(testMenu);
 8001f80:	4b30      	ldr	r3, [pc, #192]	; (8002044 <set_menu_KNOB_EVENT_LOW+0x100>)
 8001f82:	781b      	ldrb	r3, [r3, #0]
 8001f84:	4618      	mov	r0, r3
 8001f86:	f000 fb0b 	bl	80025a0 <affichageMenu>
				verifValue();
				affichageMenu(testMenu);
			}
		}
	}
}
 8001f8a:	e058      	b.n	800203e <set_menu_KNOB_EVENT_LOW+0xfa>
		if(testMenu == MENUX || testMenu == MENUXBIS)
 8001f8c:	4b2d      	ldr	r3, [pc, #180]	; (8002044 <set_menu_KNOB_EVENT_LOW+0x100>)
 8001f8e:	781b      	ldrb	r3, [r3, #0]
 8001f90:	2b05      	cmp	r3, #5
 8001f92:	d003      	beq.n	8001f9c <set_menu_KNOB_EVENT_LOW+0x58>
 8001f94:	4b2b      	ldr	r3, [pc, #172]	; (8002044 <set_menu_KNOB_EVENT_LOW+0x100>)
 8001f96:	781b      	ldrb	r3, [r3, #0]
 8001f98:	2b07      	cmp	r3, #7
 8001f9a:	d11a      	bne.n	8001fd2 <set_menu_KNOB_EVENT_LOW+0x8e>
			if(x > 0)
 8001f9c:	4b2a      	ldr	r3, [pc, #168]	; (8002048 <set_menu_KNOB_EVENT_LOW+0x104>)
 8001f9e:	edd3 7a00 	vldr	s15, [r3]
 8001fa2:	eef5 7ac0 	vcmpe.f32	s15, #0.0
 8001fa6:	eef1 fa10 	vmrs	APSR_nzcv, fpscr
 8001faa:	dd48      	ble.n	800203e <set_menu_KNOB_EVENT_LOW+0xfa>
				x -= pas;
 8001fac:	4b26      	ldr	r3, [pc, #152]	; (8002048 <set_menu_KNOB_EVENT_LOW+0x104>)
 8001fae:	ed93 7a00 	vldr	s14, [r3]
 8001fb2:	4b26      	ldr	r3, [pc, #152]	; (800204c <set_menu_KNOB_EVENT_LOW+0x108>)
 8001fb4:	edd3 7a00 	vldr	s15, [r3]
 8001fb8:	ee77 7a67 	vsub.f32	s15, s14, s15
 8001fbc:	4b22      	ldr	r3, [pc, #136]	; (8002048 <set_menu_KNOB_EVENT_LOW+0x104>)
 8001fbe:	edc3 7a00 	vstr	s15, [r3]
				verifValue();
 8001fc2:	f7ff fea3 	bl	8001d0c <verifValue>
				affichageMenu(testMenu);
 8001fc6:	4b1f      	ldr	r3, [pc, #124]	; (8002044 <set_menu_KNOB_EVENT_LOW+0x100>)
 8001fc8:	781b      	ldrb	r3, [r3, #0]
 8001fca:	4618      	mov	r0, r3
 8001fcc:	f000 fae8 	bl	80025a0 <affichageMenu>
			if(x > 0)
 8001fd0:	e035      	b.n	800203e <set_menu_KNOB_EVENT_LOW+0xfa>
		else if(testMenu == MENUY)
 8001fd2:	4b1c      	ldr	r3, [pc, #112]	; (8002044 <set_menu_KNOB_EVENT_LOW+0x100>)
 8001fd4:	781b      	ldrb	r3, [r3, #0]
 8001fd6:	2b06      	cmp	r3, #6
 8001fd8:	d11b      	bne.n	8002012 <set_menu_KNOB_EVENT_LOW+0xce>
			if(y > 0)
 8001fda:	4b1d      	ldr	r3, [pc, #116]	; (8002050 <set_menu_KNOB_EVENT_LOW+0x10c>)
 8001fdc:	edd3 7a00 	vldr	s15, [r3]
 8001fe0:	eef5 7ac0 	vcmpe.f32	s15, #0.0
 8001fe4:	eef1 fa10 	vmrs	APSR_nzcv, fpscr
 8001fe8:	dc00      	bgt.n	8001fec <set_menu_KNOB_EVENT_LOW+0xa8>
}
 8001fea:	e028      	b.n	800203e <set_menu_KNOB_EVENT_LOW+0xfa>
				y -= pas;
 8001fec:	4b18      	ldr	r3, [pc, #96]	; (8002050 <set_menu_KNOB_EVENT_LOW+0x10c>)
 8001fee:	ed93 7a00 	vldr	s14, [r3]
 8001ff2:	4b16      	ldr	r3, [pc, #88]	; (800204c <set_menu_KNOB_EVENT_LOW+0x108>)
 8001ff4:	edd3 7a00 	vldr	s15, [r3]
 8001ff8:	ee77 7a67 	vsub.f32	s15, s14, s15
 8001ffc:	4b14      	ldr	r3, [pc, #80]	; (8002050 <set_menu_KNOB_EVENT_LOW+0x10c>)
 8001ffe:	edc3 7a00 	vstr	s15, [r3]
				verifValue();
 8002002:	f7ff fe83 	bl	8001d0c <verifValue>
				affichageMenu(testMenu);
 8002006:	4b0f      	ldr	r3, [pc, #60]	; (8002044 <set_menu_KNOB_EVENT_LOW+0x100>)
 8002008:	781b      	ldrb	r3, [r3, #0]
 800200a:	4618      	mov	r0, r3
 800200c:	f000 fac8 	bl	80025a0 <affichageMenu>
}
 8002010:	e015      	b.n	800203e <set_menu_KNOB_EVENT_LOW+0xfa>
		else if(testMenu == MENUPITCH)
 8002012:	4b0c      	ldr	r3, [pc, #48]	; (8002044 <set_menu_KNOB_EVENT_LOW+0x100>)
 8002014:	781b      	ldrb	r3, [r3, #0]
 8002016:	2b04      	cmp	r3, #4
 8002018:	d111      	bne.n	800203e <set_menu_KNOB_EVENT_LOW+0xfa>
			if(note_index > 0)
 800201a:	4b0e      	ldr	r3, [pc, #56]	; (8002054 <set_menu_KNOB_EVENT_LOW+0x110>)
 800201c:	781b      	ldrb	r3, [r3, #0]
 800201e:	2b00      	cmp	r3, #0
 8002020:	d00d      	beq.n	800203e <set_menu_KNOB_EVENT_LOW+0xfa>
				note_index -- ;
 8002022:	4b0c      	ldr	r3, [pc, #48]	; (8002054 <set_menu_KNOB_EVENT_LOW+0x110>)
 8002024:	781b      	ldrb	r3, [r3, #0]
 8002026:	3b01      	subs	r3, #1
 8002028:	b2da      	uxtb	r2, r3
 800202a:	4b0a      	ldr	r3, [pc, #40]	; (8002054 <set_menu_KNOB_EVENT_LOW+0x110>)
 800202c:	701a      	strb	r2, [r3, #0]
				verifValue();
 800202e:	f7ff fe6d 	bl	8001d0c <verifValue>
				affichageMenu(testMenu);
 8002032:	4b04      	ldr	r3, [pc, #16]	; (8002044 <set_menu_KNOB_EVENT_LOW+0x100>)
 8002034:	781b      	ldrb	r3, [r3, #0]
 8002036:	4618      	mov	r0, r3
 8002038:	f000 fab2 	bl	80025a0 <affichageMenu>
}
 800203c:	e7ff      	b.n	800203e <set_menu_KNOB_EVENT_LOW+0xfa>
 800203e:	bf00      	nop
 8002040:	bd80      	pop	{r7, pc}
 8002042:	bf00      	nop
 8002044:	200009e8 	.word	0x200009e8
 8002048:	20000650 	.word	0x20000650
 800204c:	200007d4 	.word	0x200007d4
 8002050:	200009e4 	.word	0x200009e4
 8002054:	200009e0 	.word	0x200009e0

08002058 <afficherMenu1>:

void afficherMenu1(){
 8002058:	b590      	push	{r4, r7, lr}
 800205a:	b087      	sub	sp, #28
 800205c:	af00      	add	r7, sp, #0
	char varX[10];
	sprintf(varX, "%f", x);
 800205e:	4b24      	ldr	r3, [pc, #144]	; (80020f0 <afficherMenu1+0x98>)
 8002060:	681b      	ldr	r3, [r3, #0]
 8002062:	4618      	mov	r0, r3
 8002064:	f7fe fa70 	bl	8000548 <__aeabi_f2d>
 8002068:	4603      	mov	r3, r0
 800206a:	460c      	mov	r4, r1
 800206c:	f107 000c 	add.w	r0, r7, #12
 8002070:	461a      	mov	r2, r3
 8002072:	4623      	mov	r3, r4
 8002074:	491f      	ldr	r1, [pc, #124]	; (80020f4 <afficherMenu1+0x9c>)
 8002076:	f006 fb09 	bl	800868c <siprintf>
	char varPitch[10];
	sprintf(varPitch, "%s", note_name[note_index]);
 800207a:	4b1f      	ldr	r3, [pc, #124]	; (80020f8 <afficherMenu1+0xa0>)
 800207c:	781b      	ldrb	r3, [r3, #0]
 800207e:	461a      	mov	r2, r3
 8002080:	4b1e      	ldr	r3, [pc, #120]	; (80020fc <afficherMenu1+0xa4>)
 8002082:	f853 2022 	ldr.w	r2, [r3, r2, lsl #2]
 8002086:	463b      	mov	r3, r7
 8002088:	4611      	mov	r1, r2
 800208a:	4618      	mov	r0, r3
 800208c:	f006 fb1e 	bl	80086cc <strcpy>

	SSD1306_Clear();
 8002090:	f000 fcf1 	bl	8002a76 <SSD1306_Clear>
	SSD1306_GotoXY(5,5);
 8002094:	2105      	movs	r1, #5
 8002096:	2005      	movs	r0, #5
 8002098:	f000 fc32 	bl	8002900 <SSD1306_GotoXY>
	SSD1306_Puts("PITCH", &Font_11x18, 0);
 800209c:	2200      	movs	r2, #0
 800209e:	4918      	ldr	r1, [pc, #96]	; (8002100 <afficherMenu1+0xa8>)
 80020a0:	4818      	ldr	r0, [pc, #96]	; (8002104 <afficherMenu1+0xac>)
 80020a2:	f000 fcc3 	bl	8002a2c <SSD1306_Puts>
	SSD1306_GotoXY(80,5);
 80020a6:	2105      	movs	r1, #5
 80020a8:	2050      	movs	r0, #80	; 0x50
 80020aa:	f000 fc29 	bl	8002900 <SSD1306_GotoXY>
	SSD1306_Puts(varPitch, &Font_11x18, 1);
 80020ae:	463b      	mov	r3, r7
 80020b0:	2201      	movs	r2, #1
 80020b2:	4913      	ldr	r1, [pc, #76]	; (8002100 <afficherMenu1+0xa8>)
 80020b4:	4618      	mov	r0, r3
 80020b6:	f000 fcb9 	bl	8002a2c <SSD1306_Puts>

	SSD1306_GotoXY(5,35);
 80020ba:	2123      	movs	r1, #35	; 0x23
 80020bc:	2005      	movs	r0, #5
 80020be:	f000 fc1f 	bl	8002900 <SSD1306_GotoXY>
	SSD1306_Puts("X", &Font_11x18, 1);
 80020c2:	2201      	movs	r2, #1
 80020c4:	490e      	ldr	r1, [pc, #56]	; (8002100 <afficherMenu1+0xa8>)
 80020c6:	4810      	ldr	r0, [pc, #64]	; (8002108 <afficherMenu1+0xb0>)
 80020c8:	f000 fcb0 	bl	8002a2c <SSD1306_Puts>
	SSD1306_GotoXY(80,35);
 80020cc:	2123      	movs	r1, #35	; 0x23
 80020ce:	2050      	movs	r0, #80	; 0x50
 80020d0:	f000 fc16 	bl	8002900 <SSD1306_GotoXY>
	SSD1306_Puts(varX, &Font_11x18, 1);
 80020d4:	f107 030c 	add.w	r3, r7, #12
 80020d8:	2201      	movs	r2, #1
 80020da:	4909      	ldr	r1, [pc, #36]	; (8002100 <afficherMenu1+0xa8>)
 80020dc:	4618      	mov	r0, r3
 80020de:	f000 fca5 	bl	8002a2c <SSD1306_Puts>
	SSD1306_UpdateScreen();
 80020e2:	f000 fb5f 	bl	80027a4 <SSD1306_UpdateScreen>
}
 80020e6:	bf00      	nop
 80020e8:	371c      	adds	r7, #28
 80020ea:	46bd      	mov	sp, r7
 80020ec:	bd90      	pop	{r4, r7, pc}
 80020ee:	bf00      	nop
 80020f0:	20000650 	.word	0x20000650
 80020f4:	0800a940 	.word	0x0800a940
 80020f8:	200009e0 	.word	0x200009e0
 80020fc:	20000654 	.word	0x20000654
 8002100:	20000648 	.word	0x20000648
 8002104:	0800a944 	.word	0x0800a944
 8002108:	0800a94c 	.word	0x0800a94c

0800210c <afficherMenu2>:

void afficherMenu2()
{
 800210c:	b590      	push	{r4, r7, lr}
 800210e:	b087      	sub	sp, #28
 8002110:	af00      	add	r7, sp, #0
	char varX[10];
	sprintf(varX, "%f", x);
 8002112:	4b24      	ldr	r3, [pc, #144]	; (80021a4 <afficherMenu2+0x98>)
 8002114:	681b      	ldr	r3, [r3, #0]
 8002116:	4618      	mov	r0, r3
 8002118:	f7fe fa16 	bl	8000548 <__aeabi_f2d>
 800211c:	4603      	mov	r3, r0
 800211e:	460c      	mov	r4, r1
 8002120:	f107 000c 	add.w	r0, r7, #12
 8002124:	461a      	mov	r2, r3
 8002126:	4623      	mov	r3, r4
 8002128:	491f      	ldr	r1, [pc, #124]	; (80021a8 <afficherMenu2+0x9c>)
 800212a:	f006 faaf 	bl	800868c <siprintf>
	char varPitch[10];
	sprintf(varPitch, "%s", note_name[note_index]);
 800212e:	4b1f      	ldr	r3, [pc, #124]	; (80021ac <afficherMenu2+0xa0>)
 8002130:	781b      	ldrb	r3, [r3, #0]
 8002132:	461a      	mov	r2, r3
 8002134:	4b1e      	ldr	r3, [pc, #120]	; (80021b0 <afficherMenu2+0xa4>)
 8002136:	f853 2022 	ldr.w	r2, [r3, r2, lsl #2]
 800213a:	463b      	mov	r3, r7
 800213c:	4611      	mov	r1, r2
 800213e:	4618      	mov	r0, r3
 8002140:	f006 fac4 	bl	80086cc <strcpy>

	SSD1306_Clear();
 8002144:	f000 fc97 	bl	8002a76 <SSD1306_Clear>

	SSD1306_GotoXY(5,5);
 8002148:	2105      	movs	r1, #5
 800214a:	2005      	movs	r0, #5
 800214c:	f000 fbd8 	bl	8002900 <SSD1306_GotoXY>
	SSD1306_Puts("PITCH", &Font_11x18, 1);
 8002150:	2201      	movs	r2, #1
 8002152:	4918      	ldr	r1, [pc, #96]	; (80021b4 <afficherMenu2+0xa8>)
 8002154:	4818      	ldr	r0, [pc, #96]	; (80021b8 <afficherMenu2+0xac>)
 8002156:	f000 fc69 	bl	8002a2c <SSD1306_Puts>
	SSD1306_GotoXY(80,5);
 800215a:	2105      	movs	r1, #5
 800215c:	2050      	movs	r0, #80	; 0x50
 800215e:	f000 fbcf 	bl	8002900 <SSD1306_GotoXY>
	SSD1306_Puts(varPitch, &Font_11x18, 1);
 8002162:	463b      	mov	r3, r7
 8002164:	2201      	movs	r2, #1
 8002166:	4913      	ldr	r1, [pc, #76]	; (80021b4 <afficherMenu2+0xa8>)
 8002168:	4618      	mov	r0, r3
 800216a:	f000 fc5f 	bl	8002a2c <SSD1306_Puts>

	SSD1306_GotoXY(5,35);
 800216e:	2123      	movs	r1, #35	; 0x23
 8002170:	2005      	movs	r0, #5
 8002172:	f000 fbc5 	bl	8002900 <SSD1306_GotoXY>
	SSD1306_Puts("X", &Font_11x18, 0);
 8002176:	2200      	movs	r2, #0
 8002178:	490e      	ldr	r1, [pc, #56]	; (80021b4 <afficherMenu2+0xa8>)
 800217a:	4810      	ldr	r0, [pc, #64]	; (80021bc <afficherMenu2+0xb0>)
 800217c:	f000 fc56 	bl	8002a2c <SSD1306_Puts>
	SSD1306_GotoXY(80,35);
 8002180:	2123      	movs	r1, #35	; 0x23
 8002182:	2050      	movs	r0, #80	; 0x50
 8002184:	f000 fbbc 	bl	8002900 <SSD1306_GotoXY>
	SSD1306_Puts(varX, &Font_11x18, 1);
 8002188:	f107 030c 	add.w	r3, r7, #12
 800218c:	2201      	movs	r2, #1
 800218e:	4909      	ldr	r1, [pc, #36]	; (80021b4 <afficherMenu2+0xa8>)
 8002190:	4618      	mov	r0, r3
 8002192:	f000 fc4b 	bl	8002a2c <SSD1306_Puts>
	SSD1306_UpdateScreen();
 8002196:	f000 fb05 	bl	80027a4 <SSD1306_UpdateScreen>
}
 800219a:	bf00      	nop
 800219c:	371c      	adds	r7, #28
 800219e:	46bd      	mov	sp, r7
 80021a0:	bd90      	pop	{r4, r7, pc}
 80021a2:	bf00      	nop
 80021a4:	20000650 	.word	0x20000650
 80021a8:	0800a940 	.word	0x0800a940
 80021ac:	200009e0 	.word	0x200009e0
 80021b0:	20000654 	.word	0x20000654
 80021b4:	20000648 	.word	0x20000648
 80021b8:	0800a944 	.word	0x0800a944
 80021bc:	0800a94c 	.word	0x0800a94c

080021c0 <afficherMenu3>:
void afficherMenu3(int test)
{
 80021c0:	b590      	push	{r4, r7, lr}
 80021c2:	b089      	sub	sp, #36	; 0x24
 80021c4:	af00      	add	r7, sp, #0
 80021c6:	6078      	str	r0, [r7, #4]
	char varX[10];
	sprintf(varX, "%f", x);
 80021c8:	4b3b      	ldr	r3, [pc, #236]	; (80022b8 <afficherMenu3+0xf8>)
 80021ca:	681b      	ldr	r3, [r3, #0]
 80021cc:	4618      	mov	r0, r3
 80021ce:	f7fe f9bb 	bl	8000548 <__aeabi_f2d>
 80021d2:	4603      	mov	r3, r0
 80021d4:	460c      	mov	r4, r1
 80021d6:	f107 0014 	add.w	r0, r7, #20
 80021da:	461a      	mov	r2, r3
 80021dc:	4623      	mov	r3, r4
 80021de:	4937      	ldr	r1, [pc, #220]	; (80022bc <afficherMenu3+0xfc>)
 80021e0:	f006 fa54 	bl	800868c <siprintf>
	char varY[10];
	sprintf(varY, "%f", y);
 80021e4:	4b36      	ldr	r3, [pc, #216]	; (80022c0 <afficherMenu3+0x100>)
 80021e6:	681b      	ldr	r3, [r3, #0]
 80021e8:	4618      	mov	r0, r3
 80021ea:	f7fe f9ad 	bl	8000548 <__aeabi_f2d>
 80021ee:	4603      	mov	r3, r0
 80021f0:	460c      	mov	r4, r1
 80021f2:	f107 0008 	add.w	r0, r7, #8
 80021f6:	461a      	mov	r2, r3
 80021f8:	4623      	mov	r3, r4
 80021fa:	4930      	ldr	r1, [pc, #192]	; (80022bc <afficherMenu3+0xfc>)
 80021fc:	f006 fa46 	bl	800868c <siprintf>
	SSD1306_Clear();
 8002200:	f000 fc39 	bl	8002a76 <SSD1306_Clear>
	if(test == 0)
 8002204:	687b      	ldr	r3, [r7, #4]
 8002206:	2b00      	cmp	r3, #0
 8002208:	d128      	bne.n	800225c <afficherMenu3+0x9c>
	{
		SSD1306_GotoXY(5,5);
 800220a:	2105      	movs	r1, #5
 800220c:	2005      	movs	r0, #5
 800220e:	f000 fb77 	bl	8002900 <SSD1306_GotoXY>
		SSD1306_Puts("X", &Font_11x18, 1);
 8002212:	2201      	movs	r2, #1
 8002214:	492b      	ldr	r1, [pc, #172]	; (80022c4 <afficherMenu3+0x104>)
 8002216:	482c      	ldr	r0, [pc, #176]	; (80022c8 <afficherMenu3+0x108>)
 8002218:	f000 fc08 	bl	8002a2c <SSD1306_Puts>
		SSD1306_GotoXY(80,5);
 800221c:	2105      	movs	r1, #5
 800221e:	2050      	movs	r0, #80	; 0x50
 8002220:	f000 fb6e 	bl	8002900 <SSD1306_GotoXY>
		SSD1306_Puts(varX, &Font_11x18, 1);
 8002224:	f107 0314 	add.w	r3, r7, #20
 8002228:	2201      	movs	r2, #1
 800222a:	4926      	ldr	r1, [pc, #152]	; (80022c4 <afficherMenu3+0x104>)
 800222c:	4618      	mov	r0, r3
 800222e:	f000 fbfd 	bl	8002a2c <SSD1306_Puts>

		SSD1306_GotoXY(5,35);
 8002232:	2123      	movs	r1, #35	; 0x23
 8002234:	2005      	movs	r0, #5
 8002236:	f000 fb63 	bl	8002900 <SSD1306_GotoXY>
		SSD1306_Puts("Y", &Font_11x18, 0);
 800223a:	2200      	movs	r2, #0
 800223c:	4921      	ldr	r1, [pc, #132]	; (80022c4 <afficherMenu3+0x104>)
 800223e:	4823      	ldr	r0, [pc, #140]	; (80022cc <afficherMenu3+0x10c>)
 8002240:	f000 fbf4 	bl	8002a2c <SSD1306_Puts>
		SSD1306_GotoXY(80,35);
 8002244:	2123      	movs	r1, #35	; 0x23
 8002246:	2050      	movs	r0, #80	; 0x50
 8002248:	f000 fb5a 	bl	8002900 <SSD1306_GotoXY>
		SSD1306_Puts(varY, &Font_11x18, 1);
 800224c:	f107 0308 	add.w	r3, r7, #8
 8002250:	2201      	movs	r2, #1
 8002252:	491c      	ldr	r1, [pc, #112]	; (80022c4 <afficherMenu3+0x104>)
 8002254:	4618      	mov	r0, r3
 8002256:	f000 fbe9 	bl	8002a2c <SSD1306_Puts>
 800225a:	e027      	b.n	80022ac <afficherMenu3+0xec>
	}
	else
	{
		SSD1306_GotoXY(5,5);
 800225c:	2105      	movs	r1, #5
 800225e:	2005      	movs	r0, #5
 8002260:	f000 fb4e 	bl	8002900 <SSD1306_GotoXY>
		SSD1306_Puts("X", &Font_11x18, 0);
 8002264:	2200      	movs	r2, #0
 8002266:	4917      	ldr	r1, [pc, #92]	; (80022c4 <afficherMenu3+0x104>)
 8002268:	4817      	ldr	r0, [pc, #92]	; (80022c8 <afficherMenu3+0x108>)
 800226a:	f000 fbdf 	bl	8002a2c <SSD1306_Puts>
		SSD1306_GotoXY(80,5);
 800226e:	2105      	movs	r1, #5
 8002270:	2050      	movs	r0, #80	; 0x50
 8002272:	f000 fb45 	bl	8002900 <SSD1306_GotoXY>
		SSD1306_Puts(varX, &Font_11x18, 1);
 8002276:	f107 0314 	add.w	r3, r7, #20
 800227a:	2201      	movs	r2, #1
 800227c:	4911      	ldr	r1, [pc, #68]	; (80022c4 <afficherMenu3+0x104>)
 800227e:	4618      	mov	r0, r3
 8002280:	f000 fbd4 	bl	8002a2c <SSD1306_Puts>

		SSD1306_GotoXY(5,35);
 8002284:	2123      	movs	r1, #35	; 0x23
 8002286:	2005      	movs	r0, #5
 8002288:	f000 fb3a 	bl	8002900 <SSD1306_GotoXY>
		SSD1306_Puts("Y", &Font_11x18, 1);
 800228c:	2201      	movs	r2, #1
 800228e:	490d      	ldr	r1, [pc, #52]	; (80022c4 <afficherMenu3+0x104>)
 8002290:	480e      	ldr	r0, [pc, #56]	; (80022cc <afficherMenu3+0x10c>)
 8002292:	f000 fbcb 	bl	8002a2c <SSD1306_Puts>
		SSD1306_GotoXY(80,35);
 8002296:	2123      	movs	r1, #35	; 0x23
 8002298:	2050      	movs	r0, #80	; 0x50
 800229a:	f000 fb31 	bl	8002900 <SSD1306_GotoXY>
		SSD1306_Puts(varY, &Font_11x18, 1);
 800229e:	f107 0308 	add.w	r3, r7, #8
 80022a2:	2201      	movs	r2, #1
 80022a4:	4907      	ldr	r1, [pc, #28]	; (80022c4 <afficherMenu3+0x104>)
 80022a6:	4618      	mov	r0, r3
 80022a8:	f000 fbc0 	bl	8002a2c <SSD1306_Puts>
	}
	SSD1306_UpdateScreen();
 80022ac:	f000 fa7a 	bl	80027a4 <SSD1306_UpdateScreen>
}
 80022b0:	bf00      	nop
 80022b2:	3724      	adds	r7, #36	; 0x24
 80022b4:	46bd      	mov	sp, r7
 80022b6:	bd90      	pop	{r4, r7, pc}
 80022b8:	20000650 	.word	0x20000650
 80022bc:	0800a940 	.word	0x0800a940
 80022c0:	200009e4 	.word	0x200009e4
 80022c4:	20000648 	.word	0x20000648
 80022c8:	0800a94c 	.word	0x0800a94c
 80022cc:	0800a950 	.word	0x0800a950

080022d0 <afficherMenuPitch>:
void afficherMenuPitch()
{
 80022d0:	b590      	push	{r4, r7, lr}
 80022d2:	b087      	sub	sp, #28
 80022d4:	af00      	add	r7, sp, #0
	char varX[10];
	sprintf(varX, "%f", x);
 80022d6:	4b24      	ldr	r3, [pc, #144]	; (8002368 <afficherMenuPitch+0x98>)
 80022d8:	681b      	ldr	r3, [r3, #0]
 80022da:	4618      	mov	r0, r3
 80022dc:	f7fe f934 	bl	8000548 <__aeabi_f2d>
 80022e0:	4603      	mov	r3, r0
 80022e2:	460c      	mov	r4, r1
 80022e4:	f107 000c 	add.w	r0, r7, #12
 80022e8:	461a      	mov	r2, r3
 80022ea:	4623      	mov	r3, r4
 80022ec:	491f      	ldr	r1, [pc, #124]	; (800236c <afficherMenuPitch+0x9c>)
 80022ee:	f006 f9cd 	bl	800868c <siprintf>
	char varPitch[10];
	sprintf(varPitch, "%s", note_name[note_index]);
 80022f2:	4b1f      	ldr	r3, [pc, #124]	; (8002370 <afficherMenuPitch+0xa0>)
 80022f4:	781b      	ldrb	r3, [r3, #0]
 80022f6:	461a      	mov	r2, r3
 80022f8:	4b1e      	ldr	r3, [pc, #120]	; (8002374 <afficherMenuPitch+0xa4>)
 80022fa:	f853 2022 	ldr.w	r2, [r3, r2, lsl #2]
 80022fe:	463b      	mov	r3, r7
 8002300:	4611      	mov	r1, r2
 8002302:	4618      	mov	r0, r3
 8002304:	f006 f9e2 	bl	80086cc <strcpy>
	SSD1306_Clear();
 8002308:	f000 fbb5 	bl	8002a76 <SSD1306_Clear>

	SSD1306_GotoXY(5,5);
 800230c:	2105      	movs	r1, #5
 800230e:	2005      	movs	r0, #5
 8002310:	f000 faf6 	bl	8002900 <SSD1306_GotoXY>
	SSD1306_Puts("PITCH", &Font_11x18, 1);
 8002314:	2201      	movs	r2, #1
 8002316:	4918      	ldr	r1, [pc, #96]	; (8002378 <afficherMenuPitch+0xa8>)
 8002318:	4818      	ldr	r0, [pc, #96]	; (800237c <afficherMenuPitch+0xac>)
 800231a:	f000 fb87 	bl	8002a2c <SSD1306_Puts>
	SSD1306_GotoXY(80,5);
 800231e:	2105      	movs	r1, #5
 8002320:	2050      	movs	r0, #80	; 0x50
 8002322:	f000 faed 	bl	8002900 <SSD1306_GotoXY>
	SSD1306_Puts(varPitch, &Font_11x18, 0);
 8002326:	463b      	mov	r3, r7
 8002328:	2200      	movs	r2, #0
 800232a:	4913      	ldr	r1, [pc, #76]	; (8002378 <afficherMenuPitch+0xa8>)
 800232c:	4618      	mov	r0, r3
 800232e:	f000 fb7d 	bl	8002a2c <SSD1306_Puts>

	SSD1306_GotoXY(5,35);
 8002332:	2123      	movs	r1, #35	; 0x23
 8002334:	2005      	movs	r0, #5
 8002336:	f000 fae3 	bl	8002900 <SSD1306_GotoXY>
	SSD1306_Puts("X", &Font_11x18, 1);
 800233a:	2201      	movs	r2, #1
 800233c:	490e      	ldr	r1, [pc, #56]	; (8002378 <afficherMenuPitch+0xa8>)
 800233e:	4810      	ldr	r0, [pc, #64]	; (8002380 <afficherMenuPitch+0xb0>)
 8002340:	f000 fb74 	bl	8002a2c <SSD1306_Puts>
	SSD1306_GotoXY(80,35);
 8002344:	2123      	movs	r1, #35	; 0x23
 8002346:	2050      	movs	r0, #80	; 0x50
 8002348:	f000 fada 	bl	8002900 <SSD1306_GotoXY>
	SSD1306_Puts(varX, &Font_11x18, 1);
 800234c:	f107 030c 	add.w	r3, r7, #12
 8002350:	2201      	movs	r2, #1
 8002352:	4909      	ldr	r1, [pc, #36]	; (8002378 <afficherMenuPitch+0xa8>)
 8002354:	4618      	mov	r0, r3
 8002356:	f000 fb69 	bl	8002a2c <SSD1306_Puts>

	SSD1306_UpdateScreen();
 800235a:	f000 fa23 	bl	80027a4 <SSD1306_UpdateScreen>
}
 800235e:	bf00      	nop
 8002360:	371c      	adds	r7, #28
 8002362:	46bd      	mov	sp, r7
 8002364:	bd90      	pop	{r4, r7, pc}
 8002366:	bf00      	nop
 8002368:	20000650 	.word	0x20000650
 800236c:	0800a940 	.word	0x0800a940
 8002370:	200009e0 	.word	0x200009e0
 8002374:	20000654 	.word	0x20000654
 8002378:	20000648 	.word	0x20000648
 800237c:	0800a944 	.word	0x0800a944
 8002380:	0800a94c 	.word	0x0800a94c

08002384 <afficherMenuX>:
void afficherMenuX()
{
 8002384:	b590      	push	{r4, r7, lr}
 8002386:	b087      	sub	sp, #28
 8002388:	af00      	add	r7, sp, #0
	char varX[10];
	sprintf(varX, "%f", x);
 800238a:	4b24      	ldr	r3, [pc, #144]	; (800241c <afficherMenuX+0x98>)
 800238c:	681b      	ldr	r3, [r3, #0]
 800238e:	4618      	mov	r0, r3
 8002390:	f7fe f8da 	bl	8000548 <__aeabi_f2d>
 8002394:	4603      	mov	r3, r0
 8002396:	460c      	mov	r4, r1
 8002398:	f107 000c 	add.w	r0, r7, #12
 800239c:	461a      	mov	r2, r3
 800239e:	4623      	mov	r3, r4
 80023a0:	491f      	ldr	r1, [pc, #124]	; (8002420 <afficherMenuX+0x9c>)
 80023a2:	f006 f973 	bl	800868c <siprintf>
	char varPitch[10];
	sprintf(varPitch, "%s", note_name[note_index]);
 80023a6:	4b1f      	ldr	r3, [pc, #124]	; (8002424 <afficherMenuX+0xa0>)
 80023a8:	781b      	ldrb	r3, [r3, #0]
 80023aa:	461a      	mov	r2, r3
 80023ac:	4b1e      	ldr	r3, [pc, #120]	; (8002428 <afficherMenuX+0xa4>)
 80023ae:	f853 2022 	ldr.w	r2, [r3, r2, lsl #2]
 80023b2:	463b      	mov	r3, r7
 80023b4:	4611      	mov	r1, r2
 80023b6:	4618      	mov	r0, r3
 80023b8:	f006 f988 	bl	80086cc <strcpy>
	SSD1306_Clear();
 80023bc:	f000 fb5b 	bl	8002a76 <SSD1306_Clear>

	SSD1306_GotoXY(5,5);
 80023c0:	2105      	movs	r1, #5
 80023c2:	2005      	movs	r0, #5
 80023c4:	f000 fa9c 	bl	8002900 <SSD1306_GotoXY>
	SSD1306_Puts("PITCH", &Font_11x18, 1);
 80023c8:	2201      	movs	r2, #1
 80023ca:	4918      	ldr	r1, [pc, #96]	; (800242c <afficherMenuX+0xa8>)
 80023cc:	4818      	ldr	r0, [pc, #96]	; (8002430 <afficherMenuX+0xac>)
 80023ce:	f000 fb2d 	bl	8002a2c <SSD1306_Puts>
	SSD1306_GotoXY(80,5);
 80023d2:	2105      	movs	r1, #5
 80023d4:	2050      	movs	r0, #80	; 0x50
 80023d6:	f000 fa93 	bl	8002900 <SSD1306_GotoXY>
	SSD1306_Puts(varPitch, &Font_11x18, 1);
 80023da:	463b      	mov	r3, r7
 80023dc:	2201      	movs	r2, #1
 80023de:	4913      	ldr	r1, [pc, #76]	; (800242c <afficherMenuX+0xa8>)
 80023e0:	4618      	mov	r0, r3
 80023e2:	f000 fb23 	bl	8002a2c <SSD1306_Puts>

	SSD1306_GotoXY(5,35);
 80023e6:	2123      	movs	r1, #35	; 0x23
 80023e8:	2005      	movs	r0, #5
 80023ea:	f000 fa89 	bl	8002900 <SSD1306_GotoXY>
	SSD1306_Puts("X", &Font_11x18, 1);
 80023ee:	2201      	movs	r2, #1
 80023f0:	490e      	ldr	r1, [pc, #56]	; (800242c <afficherMenuX+0xa8>)
 80023f2:	4810      	ldr	r0, [pc, #64]	; (8002434 <afficherMenuX+0xb0>)
 80023f4:	f000 fb1a 	bl	8002a2c <SSD1306_Puts>
	SSD1306_GotoXY(80,35);
 80023f8:	2123      	movs	r1, #35	; 0x23
 80023fa:	2050      	movs	r0, #80	; 0x50
 80023fc:	f000 fa80 	bl	8002900 <SSD1306_GotoXY>
	SSD1306_Puts(varX, &Font_11x18, 0);
 8002400:	f107 030c 	add.w	r3, r7, #12
 8002404:	2200      	movs	r2, #0
 8002406:	4909      	ldr	r1, [pc, #36]	; (800242c <afficherMenuX+0xa8>)
 8002408:	4618      	mov	r0, r3
 800240a:	f000 fb0f 	bl	8002a2c <SSD1306_Puts>

	SSD1306_UpdateScreen();
 800240e:	f000 f9c9 	bl	80027a4 <SSD1306_UpdateScreen>
}
 8002412:	bf00      	nop
 8002414:	371c      	adds	r7, #28
 8002416:	46bd      	mov	sp, r7
 8002418:	bd90      	pop	{r4, r7, pc}
 800241a:	bf00      	nop
 800241c:	20000650 	.word	0x20000650
 8002420:	0800a940 	.word	0x0800a940
 8002424:	200009e0 	.word	0x200009e0
 8002428:	20000654 	.word	0x20000654
 800242c:	20000648 	.word	0x20000648
 8002430:	0800a944 	.word	0x0800a944
 8002434:	0800a94c 	.word	0x0800a94c

08002438 <afficherMenuXbis>:
void afficherMenuXbis()
{
 8002438:	b590      	push	{r4, r7, lr}
 800243a:	b087      	sub	sp, #28
 800243c:	af00      	add	r7, sp, #0
	char varX[10];
	sprintf(varX, "%f", x);
 800243e:	4b25      	ldr	r3, [pc, #148]	; (80024d4 <afficherMenuXbis+0x9c>)
 8002440:	681b      	ldr	r3, [r3, #0]
 8002442:	4618      	mov	r0, r3
 8002444:	f7fe f880 	bl	8000548 <__aeabi_f2d>
 8002448:	4603      	mov	r3, r0
 800244a:	460c      	mov	r4, r1
 800244c:	f107 000c 	add.w	r0, r7, #12
 8002450:	461a      	mov	r2, r3
 8002452:	4623      	mov	r3, r4
 8002454:	4920      	ldr	r1, [pc, #128]	; (80024d8 <afficherMenuXbis+0xa0>)
 8002456:	f006 f919 	bl	800868c <siprintf>
	char varY[10];
	sprintf(varY, "%f", y);
 800245a:	4b20      	ldr	r3, [pc, #128]	; (80024dc <afficherMenuXbis+0xa4>)
 800245c:	681b      	ldr	r3, [r3, #0]
 800245e:	4618      	mov	r0, r3
 8002460:	f7fe f872 	bl	8000548 <__aeabi_f2d>
 8002464:	4603      	mov	r3, r0
 8002466:	460c      	mov	r4, r1
 8002468:	4638      	mov	r0, r7
 800246a:	461a      	mov	r2, r3
 800246c:	4623      	mov	r3, r4
 800246e:	491a      	ldr	r1, [pc, #104]	; (80024d8 <afficherMenuXbis+0xa0>)
 8002470:	f006 f90c 	bl	800868c <siprintf>
	SSD1306_Clear();
 8002474:	f000 faff 	bl	8002a76 <SSD1306_Clear>

	SSD1306_GotoXY(5,5);
 8002478:	2105      	movs	r1, #5
 800247a:	2005      	movs	r0, #5
 800247c:	f000 fa40 	bl	8002900 <SSD1306_GotoXY>
	SSD1306_Puts("X", &Font_11x18, 1);
 8002480:	2201      	movs	r2, #1
 8002482:	4917      	ldr	r1, [pc, #92]	; (80024e0 <afficherMenuXbis+0xa8>)
 8002484:	4817      	ldr	r0, [pc, #92]	; (80024e4 <afficherMenuXbis+0xac>)
 8002486:	f000 fad1 	bl	8002a2c <SSD1306_Puts>
	SSD1306_GotoXY(80,5);
 800248a:	2105      	movs	r1, #5
 800248c:	2050      	movs	r0, #80	; 0x50
 800248e:	f000 fa37 	bl	8002900 <SSD1306_GotoXY>
	SSD1306_Puts(varX, &Font_11x18, 0);
 8002492:	f107 030c 	add.w	r3, r7, #12
 8002496:	2200      	movs	r2, #0
 8002498:	4911      	ldr	r1, [pc, #68]	; (80024e0 <afficherMenuXbis+0xa8>)
 800249a:	4618      	mov	r0, r3
 800249c:	f000 fac6 	bl	8002a2c <SSD1306_Puts>

	SSD1306_GotoXY(5,35);
 80024a0:	2123      	movs	r1, #35	; 0x23
 80024a2:	2005      	movs	r0, #5
 80024a4:	f000 fa2c 	bl	8002900 <SSD1306_GotoXY>
	SSD1306_Puts("Y", &Font_11x18, 1);
 80024a8:	2201      	movs	r2, #1
 80024aa:	490d      	ldr	r1, [pc, #52]	; (80024e0 <afficherMenuXbis+0xa8>)
 80024ac:	480e      	ldr	r0, [pc, #56]	; (80024e8 <afficherMenuXbis+0xb0>)
 80024ae:	f000 fabd 	bl	8002a2c <SSD1306_Puts>
	SSD1306_GotoXY(80,35);
 80024b2:	2123      	movs	r1, #35	; 0x23
 80024b4:	2050      	movs	r0, #80	; 0x50
 80024b6:	f000 fa23 	bl	8002900 <SSD1306_GotoXY>
	SSD1306_Puts(varY, &Font_11x18, 1);
 80024ba:	463b      	mov	r3, r7
 80024bc:	2201      	movs	r2, #1
 80024be:	4908      	ldr	r1, [pc, #32]	; (80024e0 <afficherMenuXbis+0xa8>)
 80024c0:	4618      	mov	r0, r3
 80024c2:	f000 fab3 	bl	8002a2c <SSD1306_Puts>

	SSD1306_UpdateScreen();
 80024c6:	f000 f96d 	bl	80027a4 <SSD1306_UpdateScreen>
}
 80024ca:	bf00      	nop
 80024cc:	371c      	adds	r7, #28
 80024ce:	46bd      	mov	sp, r7
 80024d0:	bd90      	pop	{r4, r7, pc}
 80024d2:	bf00      	nop
 80024d4:	20000650 	.word	0x20000650
 80024d8:	0800a940 	.word	0x0800a940
 80024dc:	200009e4 	.word	0x200009e4
 80024e0:	20000648 	.word	0x20000648
 80024e4:	0800a94c 	.word	0x0800a94c
 80024e8:	0800a950 	.word	0x0800a950

080024ec <afficherMenuY>:
void afficherMenuY()
{
 80024ec:	b590      	push	{r4, r7, lr}
 80024ee:	b087      	sub	sp, #28
 80024f0:	af00      	add	r7, sp, #0
	char varX[10];
	sprintf(varX, "%f", x);
 80024f2:	4b25      	ldr	r3, [pc, #148]	; (8002588 <afficherMenuY+0x9c>)
 80024f4:	681b      	ldr	r3, [r3, #0]
 80024f6:	4618      	mov	r0, r3
 80024f8:	f7fe f826 	bl	8000548 <__aeabi_f2d>
 80024fc:	4603      	mov	r3, r0
 80024fe:	460c      	mov	r4, r1
 8002500:	f107 000c 	add.w	r0, r7, #12
 8002504:	461a      	mov	r2, r3
 8002506:	4623      	mov	r3, r4
 8002508:	4920      	ldr	r1, [pc, #128]	; (800258c <afficherMenuY+0xa0>)
 800250a:	f006 f8bf 	bl	800868c <siprintf>
	char varY[10];
	sprintf(varY, "%f", y);
 800250e:	4b20      	ldr	r3, [pc, #128]	; (8002590 <afficherMenuY+0xa4>)
 8002510:	681b      	ldr	r3, [r3, #0]
 8002512:	4618      	mov	r0, r3
 8002514:	f7fe f818 	bl	8000548 <__aeabi_f2d>
 8002518:	4603      	mov	r3, r0
 800251a:	460c      	mov	r4, r1
 800251c:	4638      	mov	r0, r7
 800251e:	461a      	mov	r2, r3
 8002520:	4623      	mov	r3, r4
 8002522:	491a      	ldr	r1, [pc, #104]	; (800258c <afficherMenuY+0xa0>)
 8002524:	f006 f8b2 	bl	800868c <siprintf>
	SSD1306_Clear();
 8002528:	f000 faa5 	bl	8002a76 <SSD1306_Clear>

	SSD1306_GotoXY(5,5);
 800252c:	2105      	movs	r1, #5
 800252e:	2005      	movs	r0, #5
 8002530:	f000 f9e6 	bl	8002900 <SSD1306_GotoXY>
	SSD1306_Puts("X", &Font_11x18, 1);
 8002534:	2201      	movs	r2, #1
 8002536:	4917      	ldr	r1, [pc, #92]	; (8002594 <afficherMenuY+0xa8>)
 8002538:	4817      	ldr	r0, [pc, #92]	; (8002598 <afficherMenuY+0xac>)
 800253a:	f000 fa77 	bl	8002a2c <SSD1306_Puts>
	SSD1306_GotoXY(80,5);
 800253e:	2105      	movs	r1, #5
 8002540:	2050      	movs	r0, #80	; 0x50
 8002542:	f000 f9dd 	bl	8002900 <SSD1306_GotoXY>
	SSD1306_Puts(varX, &Font_11x18, 1);
 8002546:	f107 030c 	add.w	r3, r7, #12
 800254a:	2201      	movs	r2, #1
 800254c:	4911      	ldr	r1, [pc, #68]	; (8002594 <afficherMenuY+0xa8>)
 800254e:	4618      	mov	r0, r3
 8002550:	f000 fa6c 	bl	8002a2c <SSD1306_Puts>

	SSD1306_GotoXY(5,35);
 8002554:	2123      	movs	r1, #35	; 0x23
 8002556:	2005      	movs	r0, #5
 8002558:	f000 f9d2 	bl	8002900 <SSD1306_GotoXY>
	SSD1306_Puts("Y", &Font_11x18, 1);
 800255c:	2201      	movs	r2, #1
 800255e:	490d      	ldr	r1, [pc, #52]	; (8002594 <afficherMenuY+0xa8>)
 8002560:	480e      	ldr	r0, [pc, #56]	; (800259c <afficherMenuY+0xb0>)
 8002562:	f000 fa63 	bl	8002a2c <SSD1306_Puts>
	SSD1306_GotoXY(80,35);
 8002566:	2123      	movs	r1, #35	; 0x23
 8002568:	2050      	movs	r0, #80	; 0x50
 800256a:	f000 f9c9 	bl	8002900 <SSD1306_GotoXY>
	SSD1306_Puts(varY, &Font_11x18, 0);
 800256e:	463b      	mov	r3, r7
 8002570:	2200      	movs	r2, #0
 8002572:	4908      	ldr	r1, [pc, #32]	; (8002594 <afficherMenuY+0xa8>)
 8002574:	4618      	mov	r0, r3
 8002576:	f000 fa59 	bl	8002a2c <SSD1306_Puts>

	SSD1306_UpdateScreen();
 800257a:	f000 f913 	bl	80027a4 <SSD1306_UpdateScreen>
}
 800257e:	bf00      	nop
 8002580:	371c      	adds	r7, #28
 8002582:	46bd      	mov	sp, r7
 8002584:	bd90      	pop	{r4, r7, pc}
 8002586:	bf00      	nop
 8002588:	20000650 	.word	0x20000650
 800258c:	0800a940 	.word	0x0800a940
 8002590:	200009e4 	.word	0x200009e4
 8002594:	20000648 	.word	0x20000648
 8002598:	0800a94c 	.word	0x0800a94c
 800259c:	0800a950 	.word	0x0800a950

080025a0 <affichageMenu>:

void affichageMenu(T_MENU menu)
{
 80025a0:	b580      	push	{r7, lr}
 80025a2:	b082      	sub	sp, #8
 80025a4:	af00      	add	r7, sp, #0
 80025a6:	4603      	mov	r3, r0
 80025a8:	71fb      	strb	r3, [r7, #7]
	switch(menu)
 80025aa:	79fb      	ldrb	r3, [r7, #7]
 80025ac:	2b07      	cmp	r3, #7
 80025ae:	d82d      	bhi.n	800260c <affichageMenu+0x6c>
 80025b0:	a201      	add	r2, pc, #4	; (adr r2, 80025b8 <affichageMenu+0x18>)
 80025b2:	f852 f023 	ldr.w	pc, [r2, r3, lsl #2]
 80025b6:	bf00      	nop
 80025b8:	080025d9 	.word	0x080025d9
 80025bc:	080025df 	.word	0x080025df
 80025c0:	080025e5 	.word	0x080025e5
 80025c4:	080025ed 	.word	0x080025ed
 80025c8:	08002607 	.word	0x08002607
 80025cc:	080025f5 	.word	0x080025f5
 80025d0:	080025fb 	.word	0x080025fb
 80025d4:	08002601 	.word	0x08002601
	{
	case MENU1 :
		afficherMenu1();
 80025d8:	f7ff fd3e 	bl	8002058 <afficherMenu1>
		break;
 80025dc:	e01a      	b.n	8002614 <affichageMenu+0x74>
	case MENU2 :
		afficherMenu2();
 80025de:	f7ff fd95 	bl	800210c <afficherMenu2>
		break;
 80025e2:	e017      	b.n	8002614 <affichageMenu+0x74>
	case MENU3 :
		afficherMenu3(0);
 80025e4:	2000      	movs	r0, #0
 80025e6:	f7ff fdeb 	bl	80021c0 <afficherMenu3>
		break;
 80025ea:	e013      	b.n	8002614 <affichageMenu+0x74>
	case MENU3BIS :
		afficherMenu3(1);
 80025ec:	2001      	movs	r0, #1
 80025ee:	f7ff fde7 	bl	80021c0 <afficherMenu3>
		break;
 80025f2:	e00f      	b.n	8002614 <affichageMenu+0x74>
	case MENUX :
		afficherMenuX();
 80025f4:	f7ff fec6 	bl	8002384 <afficherMenuX>
		break;
 80025f8:	e00c      	b.n	8002614 <affichageMenu+0x74>
	case MENUY :
		afficherMenuY();
 80025fa:	f7ff ff77 	bl	80024ec <afficherMenuY>
		break;
 80025fe:	e009      	b.n	8002614 <affichageMenu+0x74>
	case MENUXBIS :
		afficherMenuXbis();
 8002600:	f7ff ff1a 	bl	8002438 <afficherMenuXbis>
		break;
 8002604:	e006      	b.n	8002614 <affichageMenu+0x74>
	case MENUPITCH :
		afficherMenuPitch();
 8002606:	f7ff fe63 	bl	80022d0 <afficherMenuPitch>
		break;
 800260a:	e003      	b.n	8002614 <affichageMenu+0x74>
	default :
		SSD1306_Clear();
 800260c:	f000 fa33 	bl	8002a76 <SSD1306_Clear>
		//SSD1306_AfficherMot("ERROR");
		SSD1306_UpdateScreen();
 8002610:	f000 f8c8 	bl	80027a4 <SSD1306_UpdateScreen>
	}
}
 8002614:	bf00      	nop
 8002616:	3708      	adds	r7, #8
 8002618:	46bd      	mov	sp, r7
 800261a:	bd80      	pop	{r7, pc}

0800261c <SSD1306_Init>:
        }
    }
}

uint8_t SSD1306_Init(void)
{
 800261c:	b580      	push	{r7, lr}
 800261e:	b082      	sub	sp, #8
 8002620:	af00      	add	r7, sp, #0
	/* Init I2C */
	ssd1306_I2C_Init();
 8002622:	f000 fa31 	bl	8002a88 <ssd1306_I2C_Init>
	
	/* Check if LCD connected to I2C */
	if (HAL_I2C_IsDeviceReady(&hi2c1, SSD1306_I2C_ADDR, 1, 20000) != HAL_OK)
 8002626:	f644 6320 	movw	r3, #20000	; 0x4e20
 800262a:	2201      	movs	r2, #1
 800262c:	2178      	movs	r1, #120	; 0x78
 800262e:	485b      	ldr	r0, [pc, #364]	; (800279c <SSD1306_Init+0x180>)
 8002630:	f002 ff26 	bl	8005480 <HAL_I2C_IsDeviceReady>
 8002634:	4603      	mov	r3, r0
 8002636:	2b00      	cmp	r3, #0
 8002638:	d001      	beq.n	800263e <SSD1306_Init+0x22>
	{
		/* Return false */
		return 0;
 800263a:	2300      	movs	r3, #0
 800263c:	e0a9      	b.n	8002792 <SSD1306_Init+0x176>
	}
	
	/* A little delay */
	uint32_t p = 2500;
 800263e:	f640 13c4 	movw	r3, #2500	; 0x9c4
 8002642:	607b      	str	r3, [r7, #4]
	while(p>0)
 8002644:	e002      	b.n	800264c <SSD1306_Init+0x30>
		p--;
 8002646:	687b      	ldr	r3, [r7, #4]
 8002648:	3b01      	subs	r3, #1
 800264a:	607b      	str	r3, [r7, #4]
	while(p>0)
 800264c:	687b      	ldr	r3, [r7, #4]
 800264e:	2b00      	cmp	r3, #0
 8002650:	d1f9      	bne.n	8002646 <SSD1306_Init+0x2a>
	
	/* Init LCD */
	SSD1306_WRITECOMMAND(0xAE); //display off
 8002652:	22ae      	movs	r2, #174	; 0xae
 8002654:	2100      	movs	r1, #0
 8002656:	2078      	movs	r0, #120	; 0x78
 8002658:	f000 fa78 	bl	8002b4c <ssd1306_I2C_Write>
	SSD1306_WRITECOMMAND(0x20); //Set Memory Addressing Mode   
 800265c:	2220      	movs	r2, #32
 800265e:	2100      	movs	r1, #0
 8002660:	2078      	movs	r0, #120	; 0x78
 8002662:	f000 fa73 	bl	8002b4c <ssd1306_I2C_Write>
	SSD1306_WRITECOMMAND(0x10); //00,Horizontal Addressing Mode;01,Vertical Addressing Mode;10,Page Addressing Mode (RESET);11,Invalid
 8002666:	2210      	movs	r2, #16
 8002668:	2100      	movs	r1, #0
 800266a:	2078      	movs	r0, #120	; 0x78
 800266c:	f000 fa6e 	bl	8002b4c <ssd1306_I2C_Write>
	SSD1306_WRITECOMMAND(0xB0); //Set Page Start Address for Page Addressing Mode,0-7
 8002670:	22b0      	movs	r2, #176	; 0xb0
 8002672:	2100      	movs	r1, #0
 8002674:	2078      	movs	r0, #120	; 0x78
 8002676:	f000 fa69 	bl	8002b4c <ssd1306_I2C_Write>
	SSD1306_WRITECOMMAND(0xC8); //Set COM Output Scan Direction
 800267a:	22c8      	movs	r2, #200	; 0xc8
 800267c:	2100      	movs	r1, #0
 800267e:	2078      	movs	r0, #120	; 0x78
 8002680:	f000 fa64 	bl	8002b4c <ssd1306_I2C_Write>
	SSD1306_WRITECOMMAND(0x00); //---set low column address
 8002684:	2200      	movs	r2, #0
 8002686:	2100      	movs	r1, #0
 8002688:	2078      	movs	r0, #120	; 0x78
 800268a:	f000 fa5f 	bl	8002b4c <ssd1306_I2C_Write>
	SSD1306_WRITECOMMAND(0x10); //---set high column address
 800268e:	2210      	movs	r2, #16
 8002690:	2100      	movs	r1, #0
 8002692:	2078      	movs	r0, #120	; 0x78
 8002694:	f000 fa5a 	bl	8002b4c <ssd1306_I2C_Write>
	SSD1306_WRITECOMMAND(0x40); //--set start line address
 8002698:	2240      	movs	r2, #64	; 0x40
 800269a:	2100      	movs	r1, #0
 800269c:	2078      	movs	r0, #120	; 0x78
 800269e:	f000 fa55 	bl	8002b4c <ssd1306_I2C_Write>
	SSD1306_WRITECOMMAND(0x81); //--set contrast control register
 80026a2:	2281      	movs	r2, #129	; 0x81
 80026a4:	2100      	movs	r1, #0
 80026a6:	2078      	movs	r0, #120	; 0x78
 80026a8:	f000 fa50 	bl	8002b4c <ssd1306_I2C_Write>
	SSD1306_WRITECOMMAND(0xFF);
 80026ac:	22ff      	movs	r2, #255	; 0xff
 80026ae:	2100      	movs	r1, #0
 80026b0:	2078      	movs	r0, #120	; 0x78
 80026b2:	f000 fa4b 	bl	8002b4c <ssd1306_I2C_Write>
	SSD1306_WRITECOMMAND(0xA1); //--set segment re-map 0 to 127
 80026b6:	22a1      	movs	r2, #161	; 0xa1
 80026b8:	2100      	movs	r1, #0
 80026ba:	2078      	movs	r0, #120	; 0x78
 80026bc:	f000 fa46 	bl	8002b4c <ssd1306_I2C_Write>
	SSD1306_WRITECOMMAND(0xA6); //--set normal display
 80026c0:	22a6      	movs	r2, #166	; 0xa6
 80026c2:	2100      	movs	r1, #0
 80026c4:	2078      	movs	r0, #120	; 0x78
 80026c6:	f000 fa41 	bl	8002b4c <ssd1306_I2C_Write>
	SSD1306_WRITECOMMAND(0xA8); //--set multiplex ratio(1 to 64)
 80026ca:	22a8      	movs	r2, #168	; 0xa8
 80026cc:	2100      	movs	r1, #0
 80026ce:	2078      	movs	r0, #120	; 0x78
 80026d0:	f000 fa3c 	bl	8002b4c <ssd1306_I2C_Write>
	SSD1306_WRITECOMMAND(0x3F); //
 80026d4:	223f      	movs	r2, #63	; 0x3f
 80026d6:	2100      	movs	r1, #0
 80026d8:	2078      	movs	r0, #120	; 0x78
 80026da:	f000 fa37 	bl	8002b4c <ssd1306_I2C_Write>
	SSD1306_WRITECOMMAND(0xA4); //0xa4,Output follows RAM content;0xa5,Output ignores RAM content
 80026de:	22a4      	movs	r2, #164	; 0xa4
 80026e0:	2100      	movs	r1, #0
 80026e2:	2078      	movs	r0, #120	; 0x78
 80026e4:	f000 fa32 	bl	8002b4c <ssd1306_I2C_Write>
	SSD1306_WRITECOMMAND(0xD3); //-set display offset
 80026e8:	22d3      	movs	r2, #211	; 0xd3
 80026ea:	2100      	movs	r1, #0
 80026ec:	2078      	movs	r0, #120	; 0x78
 80026ee:	f000 fa2d 	bl	8002b4c <ssd1306_I2C_Write>
	SSD1306_WRITECOMMAND(0x00); //-not offset
 80026f2:	2200      	movs	r2, #0
 80026f4:	2100      	movs	r1, #0
 80026f6:	2078      	movs	r0, #120	; 0x78
 80026f8:	f000 fa28 	bl	8002b4c <ssd1306_I2C_Write>
	SSD1306_WRITECOMMAND(0xD5); //--set display clock divide ratio/oscillator frequency
 80026fc:	22d5      	movs	r2, #213	; 0xd5
 80026fe:	2100      	movs	r1, #0
 8002700:	2078      	movs	r0, #120	; 0x78
 8002702:	f000 fa23 	bl	8002b4c <ssd1306_I2C_Write>
	SSD1306_WRITECOMMAND(0xF0); //--set divide ratio
 8002706:	22f0      	movs	r2, #240	; 0xf0
 8002708:	2100      	movs	r1, #0
 800270a:	2078      	movs	r0, #120	; 0x78
 800270c:	f000 fa1e 	bl	8002b4c <ssd1306_I2C_Write>
	SSD1306_WRITECOMMAND(0xD9); //--set pre-charge period
 8002710:	22d9      	movs	r2, #217	; 0xd9
 8002712:	2100      	movs	r1, #0
 8002714:	2078      	movs	r0, #120	; 0x78
 8002716:	f000 fa19 	bl	8002b4c <ssd1306_I2C_Write>
	SSD1306_WRITECOMMAND(0x22); //
 800271a:	2222      	movs	r2, #34	; 0x22
 800271c:	2100      	movs	r1, #0
 800271e:	2078      	movs	r0, #120	; 0x78
 8002720:	f000 fa14 	bl	8002b4c <ssd1306_I2C_Write>
	SSD1306_WRITECOMMAND(0xDA); //--set com pins hardware configuration
 8002724:	22da      	movs	r2, #218	; 0xda
 8002726:	2100      	movs	r1, #0
 8002728:	2078      	movs	r0, #120	; 0x78
 800272a:	f000 fa0f 	bl	8002b4c <ssd1306_I2C_Write>
	SSD1306_WRITECOMMAND(0x12);
 800272e:	2212      	movs	r2, #18
 8002730:	2100      	movs	r1, #0
 8002732:	2078      	movs	r0, #120	; 0x78
 8002734:	f000 fa0a 	bl	8002b4c <ssd1306_I2C_Write>
	SSD1306_WRITECOMMAND(0xDB); //--set vcomh
 8002738:	22db      	movs	r2, #219	; 0xdb
 800273a:	2100      	movs	r1, #0
 800273c:	2078      	movs	r0, #120	; 0x78
 800273e:	f000 fa05 	bl	8002b4c <ssd1306_I2C_Write>
	SSD1306_WRITECOMMAND(0x20); //0x20,0.77xVcc
 8002742:	2220      	movs	r2, #32
 8002744:	2100      	movs	r1, #0
 8002746:	2078      	movs	r0, #120	; 0x78
 8002748:	f000 fa00 	bl	8002b4c <ssd1306_I2C_Write>
	SSD1306_WRITECOMMAND(0x8D); //--set DC-DC enable
 800274c:	228d      	movs	r2, #141	; 0x8d
 800274e:	2100      	movs	r1, #0
 8002750:	2078      	movs	r0, #120	; 0x78
 8002752:	f000 f9fb 	bl	8002b4c <ssd1306_I2C_Write>
	SSD1306_WRITECOMMAND(0x14); //
 8002756:	2214      	movs	r2, #20
 8002758:	2100      	movs	r1, #0
 800275a:	2078      	movs	r0, #120	; 0x78
 800275c:	f000 f9f6 	bl	8002b4c <ssd1306_I2C_Write>
	SSD1306_WRITECOMMAND(0xAF); //--turn on SSD1306 panel
 8002760:	22af      	movs	r2, #175	; 0xaf
 8002762:	2100      	movs	r1, #0
 8002764:	2078      	movs	r0, #120	; 0x78
 8002766:	f000 f9f1 	bl	8002b4c <ssd1306_I2C_Write>
	

	SSD1306_WRITECOMMAND(SSD1306_DEACTIVATE_SCROLL);
 800276a:	222e      	movs	r2, #46	; 0x2e
 800276c:	2100      	movs	r1, #0
 800276e:	2078      	movs	r0, #120	; 0x78
 8002770:	f000 f9ec 	bl	8002b4c <ssd1306_I2C_Write>

	/* Clear screen */
	SSD1306_Fill(SSD1306_COLOR_BLACK);
 8002774:	2000      	movs	r0, #0
 8002776:	f000 f84b 	bl	8002810 <SSD1306_Fill>
	
	/* Update screen */
	SSD1306_UpdateScreen();
 800277a:	f000 f813 	bl	80027a4 <SSD1306_UpdateScreen>
	
	/* Set default values */
	SSD1306.CurrentX = 0;
 800277e:	4b08      	ldr	r3, [pc, #32]	; (80027a0 <SSD1306_Init+0x184>)
 8002780:	2200      	movs	r2, #0
 8002782:	801a      	strh	r2, [r3, #0]
	SSD1306.CurrentY = 0;
 8002784:	4b06      	ldr	r3, [pc, #24]	; (80027a0 <SSD1306_Init+0x184>)
 8002786:	2200      	movs	r2, #0
 8002788:	805a      	strh	r2, [r3, #2]
	
	/* Initialized OK */
	SSD1306.Initialized = 1;
 800278a:	4b05      	ldr	r3, [pc, #20]	; (80027a0 <SSD1306_Init+0x184>)
 800278c:	2201      	movs	r2, #1
 800278e:	715a      	strb	r2, [r3, #5]
	
	/* Return OK */
	return 1;
 8002790:	2301      	movs	r3, #1
}
 8002792:	4618      	mov	r0, r3
 8002794:	3708      	adds	r7, #8
 8002796:	46bd      	mov	sp, r7
 8002798:	bd80      	pop	{r7, pc}
 800279a:	bf00      	nop
 800279c:	20001c34 	.word	0x20001c34
 80027a0:	20000dec 	.word	0x20000dec

080027a4 <SSD1306_UpdateScreen>:

void SSD1306_UpdateScreen(void) {
 80027a4:	b580      	push	{r7, lr}
 80027a6:	b082      	sub	sp, #8
 80027a8:	af00      	add	r7, sp, #0
	uint8_t m;
	uint8_t start_frame[] = {0x00,0xB0,0x00,0x00,0x00,0x10};
 80027aa:	4a17      	ldr	r2, [pc, #92]	; (8002808 <SSD1306_UpdateScreen+0x64>)
 80027ac:	463b      	mov	r3, r7
 80027ae:	e892 0003 	ldmia.w	r2, {r0, r1}
 80027b2:	6018      	str	r0, [r3, #0]
 80027b4:	3304      	adds	r3, #4
 80027b6:	8019      	strh	r1, [r3, #0]
		while (HAL_I2C_GetState(&hi2c1) != HAL_I2C_STATE_READY){}
		HAL_I2C_Master_Transmit(&hi2c1, SSD1306_I2C_ADDR, start_frame, 6,10);
		ssd1306_I2C_WriteMulti(SSD1306_I2C_ADDR, 0x40, &SSD1306_Buffer[SSD1306_WIDTH * m], SSD1306_WIDTH);

	}*/
	for (m = 0; m < 8; m++) {
 80027b8:	2300      	movs	r3, #0
 80027ba:	71fb      	strb	r3, [r7, #7]
 80027bc:	e01d      	b.n	80027fa <SSD1306_UpdateScreen+0x56>
			SSD1306_WRITECOMMAND(0xB0 + m);
 80027be:	79fb      	ldrb	r3, [r7, #7]
 80027c0:	3b50      	subs	r3, #80	; 0x50
 80027c2:	b2db      	uxtb	r3, r3
 80027c4:	461a      	mov	r2, r3
 80027c6:	2100      	movs	r1, #0
 80027c8:	2078      	movs	r0, #120	; 0x78
 80027ca:	f000 f9bf 	bl	8002b4c <ssd1306_I2C_Write>
			SSD1306_WRITECOMMAND(0x00);
 80027ce:	2200      	movs	r2, #0
 80027d0:	2100      	movs	r1, #0
 80027d2:	2078      	movs	r0, #120	; 0x78
 80027d4:	f000 f9ba 	bl	8002b4c <ssd1306_I2C_Write>
			SSD1306_WRITECOMMAND(0x10);
 80027d8:	2210      	movs	r2, #16
 80027da:	2100      	movs	r1, #0
 80027dc:	2078      	movs	r0, #120	; 0x78
 80027de:	f000 f9b5 	bl	8002b4c <ssd1306_I2C_Write>
			/* Write multi data */
			ssd1306_I2C_WriteMulti(SSD1306_I2C_ADDR, 0x40, &SSD1306_Buffer[SSD1306_WIDTH * m], SSD1306_WIDTH);
 80027e2:	79fb      	ldrb	r3, [r7, #7]
 80027e4:	01db      	lsls	r3, r3, #7
 80027e6:	4a09      	ldr	r2, [pc, #36]	; (800280c <SSD1306_UpdateScreen+0x68>)
 80027e8:	441a      	add	r2, r3
 80027ea:	2380      	movs	r3, #128	; 0x80
 80027ec:	2140      	movs	r1, #64	; 0x40
 80027ee:	2078      	movs	r0, #120	; 0x78
 80027f0:	f000 f95e 	bl	8002ab0 <ssd1306_I2C_WriteMulti>
	for (m = 0; m < 8; m++) {
 80027f4:	79fb      	ldrb	r3, [r7, #7]
 80027f6:	3301      	adds	r3, #1
 80027f8:	71fb      	strb	r3, [r7, #7]
 80027fa:	79fb      	ldrb	r3, [r7, #7]
 80027fc:	2b07      	cmp	r3, #7
 80027fe:	d9de      	bls.n	80027be <SSD1306_UpdateScreen+0x1a>
		}
	/*HAL_I2C_Master_Transmit_DMA(&hi2c1, SSD1306_I2C_ADDR, start_frame, 6);
	ssd1306_I2C_WriteMulti(SSD1306_I2C_ADDR, 0x40, &SSD1306_Buffer[0], 2*SSD1306_WIDTH);*/

}
 8002800:	bf00      	nop
 8002802:	3708      	adds	r7, #8
 8002804:	46bd      	mov	sp, r7
 8002806:	bd80      	pop	{r7, pc}
 8002808:	0800a954 	.word	0x0800a954
 800280c:	200009ec 	.word	0x200009ec

08002810 <SSD1306_Fill>:
	for (i = 0; i < sizeof(SSD1306_Buffer); i++) {
		SSD1306_Buffer[i] = ~SSD1306_Buffer[i];
	}
}

void SSD1306_Fill(SSD1306_COLOR_t color) {
 8002810:	b580      	push	{r7, lr}
 8002812:	b082      	sub	sp, #8
 8002814:	af00      	add	r7, sp, #0
 8002816:	4603      	mov	r3, r0
 8002818:	71fb      	strb	r3, [r7, #7]
	/* Set memory */
	memset(SSD1306_Buffer, (color == SSD1306_COLOR_BLACK) ? 0x00 : 0xFF, sizeof(SSD1306_Buffer));
 800281a:	79fb      	ldrb	r3, [r7, #7]
 800281c:	2b00      	cmp	r3, #0
 800281e:	d101      	bne.n	8002824 <SSD1306_Fill+0x14>
 8002820:	2300      	movs	r3, #0
 8002822:	e000      	b.n	8002826 <SSD1306_Fill+0x16>
 8002824:	23ff      	movs	r3, #255	; 0xff
 8002826:	f44f 6280 	mov.w	r2, #1024	; 0x400
 800282a:	4619      	mov	r1, r3
 800282c:	4803      	ldr	r0, [pc, #12]	; (800283c <SSD1306_Fill+0x2c>)
 800282e:	f005 fa4d 	bl	8007ccc <memset>
}
 8002832:	bf00      	nop
 8002834:	3708      	adds	r7, #8
 8002836:	46bd      	mov	sp, r7
 8002838:	bd80      	pop	{r7, pc}
 800283a:	bf00      	nop
 800283c:	200009ec 	.word	0x200009ec

08002840 <SSD1306_DrawPixel>:

void SSD1306_DrawPixel(uint16_t x, uint16_t y, SSD1306_COLOR_t color) {
 8002840:	b480      	push	{r7}
 8002842:	b083      	sub	sp, #12
 8002844:	af00      	add	r7, sp, #0
 8002846:	4603      	mov	r3, r0
 8002848:	80fb      	strh	r3, [r7, #6]
 800284a:	460b      	mov	r3, r1
 800284c:	80bb      	strh	r3, [r7, #4]
 800284e:	4613      	mov	r3, r2
 8002850:	70fb      	strb	r3, [r7, #3]
	if (
 8002852:	88fb      	ldrh	r3, [r7, #6]
 8002854:	2b7f      	cmp	r3, #127	; 0x7f
 8002856:	d848      	bhi.n	80028ea <SSD1306_DrawPixel+0xaa>
		x >= SSD1306_WIDTH ||
 8002858:	88bb      	ldrh	r3, [r7, #4]
 800285a:	2b3f      	cmp	r3, #63	; 0x3f
 800285c:	d845      	bhi.n	80028ea <SSD1306_DrawPixel+0xaa>
		/* Error */
		return;
	}
	
	/* Check if pixels are inverted */
	if (SSD1306.Inverted) {
 800285e:	4b26      	ldr	r3, [pc, #152]	; (80028f8 <SSD1306_DrawPixel+0xb8>)
 8002860:	791b      	ldrb	r3, [r3, #4]
 8002862:	2b00      	cmp	r3, #0
 8002864:	d006      	beq.n	8002874 <SSD1306_DrawPixel+0x34>
		color = (SSD1306_COLOR_t)!color;
 8002866:	78fb      	ldrb	r3, [r7, #3]
 8002868:	2b00      	cmp	r3, #0
 800286a:	bf0c      	ite	eq
 800286c:	2301      	moveq	r3, #1
 800286e:	2300      	movne	r3, #0
 8002870:	b2db      	uxtb	r3, r3
 8002872:	70fb      	strb	r3, [r7, #3]
	}
	
	/* Set color */
	if (color == SSD1306_COLOR_WHITE) {
 8002874:	78fb      	ldrb	r3, [r7, #3]
 8002876:	2b01      	cmp	r3, #1
 8002878:	d11a      	bne.n	80028b0 <SSD1306_DrawPixel+0x70>
		SSD1306_Buffer[x + (y / 8) * SSD1306_WIDTH] |= 1 << (y % 8);
 800287a:	88fa      	ldrh	r2, [r7, #6]
 800287c:	88bb      	ldrh	r3, [r7, #4]
 800287e:	08db      	lsrs	r3, r3, #3
 8002880:	b298      	uxth	r0, r3
 8002882:	4603      	mov	r3, r0
 8002884:	01db      	lsls	r3, r3, #7
 8002886:	4413      	add	r3, r2
 8002888:	4a1c      	ldr	r2, [pc, #112]	; (80028fc <SSD1306_DrawPixel+0xbc>)
 800288a:	5cd3      	ldrb	r3, [r2, r3]
 800288c:	b25a      	sxtb	r2, r3
 800288e:	88bb      	ldrh	r3, [r7, #4]
 8002890:	f003 0307 	and.w	r3, r3, #7
 8002894:	2101      	movs	r1, #1
 8002896:	fa01 f303 	lsl.w	r3, r1, r3
 800289a:	b25b      	sxtb	r3, r3
 800289c:	4313      	orrs	r3, r2
 800289e:	b259      	sxtb	r1, r3
 80028a0:	88fa      	ldrh	r2, [r7, #6]
 80028a2:	4603      	mov	r3, r0
 80028a4:	01db      	lsls	r3, r3, #7
 80028a6:	4413      	add	r3, r2
 80028a8:	b2c9      	uxtb	r1, r1
 80028aa:	4a14      	ldr	r2, [pc, #80]	; (80028fc <SSD1306_DrawPixel+0xbc>)
 80028ac:	54d1      	strb	r1, [r2, r3]
 80028ae:	e01d      	b.n	80028ec <SSD1306_DrawPixel+0xac>
	} else {
		SSD1306_Buffer[x + (y / 8) * SSD1306_WIDTH] &= ~(1 << (y % 8));
 80028b0:	88fa      	ldrh	r2, [r7, #6]
 80028b2:	88bb      	ldrh	r3, [r7, #4]
 80028b4:	08db      	lsrs	r3, r3, #3
 80028b6:	b298      	uxth	r0, r3
 80028b8:	4603      	mov	r3, r0
 80028ba:	01db      	lsls	r3, r3, #7
 80028bc:	4413      	add	r3, r2
 80028be:	4a0f      	ldr	r2, [pc, #60]	; (80028fc <SSD1306_DrawPixel+0xbc>)
 80028c0:	5cd3      	ldrb	r3, [r2, r3]
 80028c2:	b25a      	sxtb	r2, r3
 80028c4:	88bb      	ldrh	r3, [r7, #4]
 80028c6:	f003 0307 	and.w	r3, r3, #7
 80028ca:	2101      	movs	r1, #1
 80028cc:	fa01 f303 	lsl.w	r3, r1, r3
 80028d0:	b25b      	sxtb	r3, r3
 80028d2:	43db      	mvns	r3, r3
 80028d4:	b25b      	sxtb	r3, r3
 80028d6:	4013      	ands	r3, r2
 80028d8:	b259      	sxtb	r1, r3
 80028da:	88fa      	ldrh	r2, [r7, #6]
 80028dc:	4603      	mov	r3, r0
 80028de:	01db      	lsls	r3, r3, #7
 80028e0:	4413      	add	r3, r2
 80028e2:	b2c9      	uxtb	r1, r1
 80028e4:	4a05      	ldr	r2, [pc, #20]	; (80028fc <SSD1306_DrawPixel+0xbc>)
 80028e6:	54d1      	strb	r1, [r2, r3]
 80028e8:	e000      	b.n	80028ec <SSD1306_DrawPixel+0xac>
		return;
 80028ea:	bf00      	nop
	}
}
 80028ec:	370c      	adds	r7, #12
 80028ee:	46bd      	mov	sp, r7
 80028f0:	f85d 7b04 	ldr.w	r7, [sp], #4
 80028f4:	4770      	bx	lr
 80028f6:	bf00      	nop
 80028f8:	20000dec 	.word	0x20000dec
 80028fc:	200009ec 	.word	0x200009ec

08002900 <SSD1306_GotoXY>:

void SSD1306_GotoXY(uint16_t x, uint16_t y) {
 8002900:	b480      	push	{r7}
 8002902:	b083      	sub	sp, #12
 8002904:	af00      	add	r7, sp, #0
 8002906:	4603      	mov	r3, r0
 8002908:	460a      	mov	r2, r1
 800290a:	80fb      	strh	r3, [r7, #6]
 800290c:	4613      	mov	r3, r2
 800290e:	80bb      	strh	r3, [r7, #4]
	/* Set write pointers */
	SSD1306.CurrentX = x;
 8002910:	4a05      	ldr	r2, [pc, #20]	; (8002928 <SSD1306_GotoXY+0x28>)
 8002912:	88fb      	ldrh	r3, [r7, #6]
 8002914:	8013      	strh	r3, [r2, #0]
	SSD1306.CurrentY = y;
 8002916:	4a04      	ldr	r2, [pc, #16]	; (8002928 <SSD1306_GotoXY+0x28>)
 8002918:	88bb      	ldrh	r3, [r7, #4]
 800291a:	8053      	strh	r3, [r2, #2]
}
 800291c:	bf00      	nop
 800291e:	370c      	adds	r7, #12
 8002920:	46bd      	mov	sp, r7
 8002922:	f85d 7b04 	ldr.w	r7, [sp], #4
 8002926:	4770      	bx	lr
 8002928:	20000dec 	.word	0x20000dec

0800292c <SSD1306_Putc>:

char SSD1306_Putc(char ch, FontDef_t* Font, SSD1306_COLOR_t color) {
 800292c:	b580      	push	{r7, lr}
 800292e:	b086      	sub	sp, #24
 8002930:	af00      	add	r7, sp, #0
 8002932:	4603      	mov	r3, r0
 8002934:	6039      	str	r1, [r7, #0]
 8002936:	71fb      	strb	r3, [r7, #7]
 8002938:	4613      	mov	r3, r2
 800293a:	71bb      	strb	r3, [r7, #6]
	uint32_t i, b, j;
	
	/* Check available space in LCD */
	if (
		SSD1306_WIDTH <= (SSD1306.CurrentX + Font->FontWidth) ||
 800293c:	4b3a      	ldr	r3, [pc, #232]	; (8002a28 <SSD1306_Putc+0xfc>)
 800293e:	881b      	ldrh	r3, [r3, #0]
 8002940:	461a      	mov	r2, r3
 8002942:	683b      	ldr	r3, [r7, #0]
 8002944:	781b      	ldrb	r3, [r3, #0]
 8002946:	4413      	add	r3, r2
	if (
 8002948:	2b7f      	cmp	r3, #127	; 0x7f
 800294a:	dc07      	bgt.n	800295c <SSD1306_Putc+0x30>
		SSD1306_HEIGHT <= (SSD1306.CurrentY + Font->FontHeight)
 800294c:	4b36      	ldr	r3, [pc, #216]	; (8002a28 <SSD1306_Putc+0xfc>)
 800294e:	885b      	ldrh	r3, [r3, #2]
 8002950:	461a      	mov	r2, r3
 8002952:	683b      	ldr	r3, [r7, #0]
 8002954:	785b      	ldrb	r3, [r3, #1]
 8002956:	4413      	add	r3, r2
		SSD1306_WIDTH <= (SSD1306.CurrentX + Font->FontWidth) ||
 8002958:	2b3f      	cmp	r3, #63	; 0x3f
 800295a:	dd01      	ble.n	8002960 <SSD1306_Putc+0x34>
	) {
		/* Error */
		return 0;
 800295c:	2300      	movs	r3, #0
 800295e:	e05e      	b.n	8002a1e <SSD1306_Putc+0xf2>
	}
	
	/* Go through font */
	for (i = 0; i < Font->FontHeight; i++) {
 8002960:	2300      	movs	r3, #0
 8002962:	617b      	str	r3, [r7, #20]
 8002964:	e04b      	b.n	80029fe <SSD1306_Putc+0xd2>
		b = Font->data[(ch - 32) * Font->FontHeight + i];
 8002966:	683b      	ldr	r3, [r7, #0]
 8002968:	685a      	ldr	r2, [r3, #4]
 800296a:	79fb      	ldrb	r3, [r7, #7]
 800296c:	3b20      	subs	r3, #32
 800296e:	6839      	ldr	r1, [r7, #0]
 8002970:	7849      	ldrb	r1, [r1, #1]
 8002972:	fb01 f303 	mul.w	r3, r1, r3
 8002976:	4619      	mov	r1, r3
 8002978:	697b      	ldr	r3, [r7, #20]
 800297a:	440b      	add	r3, r1
 800297c:	005b      	lsls	r3, r3, #1
 800297e:	4413      	add	r3, r2
 8002980:	881b      	ldrh	r3, [r3, #0]
 8002982:	60fb      	str	r3, [r7, #12]
		for (j = 0; j < Font->FontWidth; j++) {
 8002984:	2300      	movs	r3, #0
 8002986:	613b      	str	r3, [r7, #16]
 8002988:	e030      	b.n	80029ec <SSD1306_Putc+0xc0>
			if ((b << j) & 0x8000) {
 800298a:	68fa      	ldr	r2, [r7, #12]
 800298c:	693b      	ldr	r3, [r7, #16]
 800298e:	fa02 f303 	lsl.w	r3, r2, r3
 8002992:	f403 4300 	and.w	r3, r3, #32768	; 0x8000
 8002996:	2b00      	cmp	r3, #0
 8002998:	d010      	beq.n	80029bc <SSD1306_Putc+0x90>
				SSD1306_DrawPixel(SSD1306.CurrentX + j, (SSD1306.CurrentY + i), (SSD1306_COLOR_t) color);
 800299a:	4b23      	ldr	r3, [pc, #140]	; (8002a28 <SSD1306_Putc+0xfc>)
 800299c:	881a      	ldrh	r2, [r3, #0]
 800299e:	693b      	ldr	r3, [r7, #16]
 80029a0:	b29b      	uxth	r3, r3
 80029a2:	4413      	add	r3, r2
 80029a4:	b298      	uxth	r0, r3
 80029a6:	4b20      	ldr	r3, [pc, #128]	; (8002a28 <SSD1306_Putc+0xfc>)
 80029a8:	885a      	ldrh	r2, [r3, #2]
 80029aa:	697b      	ldr	r3, [r7, #20]
 80029ac:	b29b      	uxth	r3, r3
 80029ae:	4413      	add	r3, r2
 80029b0:	b29b      	uxth	r3, r3
 80029b2:	79ba      	ldrb	r2, [r7, #6]
 80029b4:	4619      	mov	r1, r3
 80029b6:	f7ff ff43 	bl	8002840 <SSD1306_DrawPixel>
 80029ba:	e014      	b.n	80029e6 <SSD1306_Putc+0xba>
			} else {
				SSD1306_DrawPixel(SSD1306.CurrentX + j, (SSD1306.CurrentY + i), (SSD1306_COLOR_t)!color);
 80029bc:	4b1a      	ldr	r3, [pc, #104]	; (8002a28 <SSD1306_Putc+0xfc>)
 80029be:	881a      	ldrh	r2, [r3, #0]
 80029c0:	693b      	ldr	r3, [r7, #16]
 80029c2:	b29b      	uxth	r3, r3
 80029c4:	4413      	add	r3, r2
 80029c6:	b298      	uxth	r0, r3
 80029c8:	4b17      	ldr	r3, [pc, #92]	; (8002a28 <SSD1306_Putc+0xfc>)
 80029ca:	885a      	ldrh	r2, [r3, #2]
 80029cc:	697b      	ldr	r3, [r7, #20]
 80029ce:	b29b      	uxth	r3, r3
 80029d0:	4413      	add	r3, r2
 80029d2:	b299      	uxth	r1, r3
 80029d4:	79bb      	ldrb	r3, [r7, #6]
 80029d6:	2b00      	cmp	r3, #0
 80029d8:	bf0c      	ite	eq
 80029da:	2301      	moveq	r3, #1
 80029dc:	2300      	movne	r3, #0
 80029de:	b2db      	uxtb	r3, r3
 80029e0:	461a      	mov	r2, r3
 80029e2:	f7ff ff2d 	bl	8002840 <SSD1306_DrawPixel>
		for (j = 0; j < Font->FontWidth; j++) {
 80029e6:	693b      	ldr	r3, [r7, #16]
 80029e8:	3301      	adds	r3, #1
 80029ea:	613b      	str	r3, [r7, #16]
 80029ec:	683b      	ldr	r3, [r7, #0]
 80029ee:	781b      	ldrb	r3, [r3, #0]
 80029f0:	461a      	mov	r2, r3
 80029f2:	693b      	ldr	r3, [r7, #16]
 80029f4:	4293      	cmp	r3, r2
 80029f6:	d3c8      	bcc.n	800298a <SSD1306_Putc+0x5e>
	for (i = 0; i < Font->FontHeight; i++) {
 80029f8:	697b      	ldr	r3, [r7, #20]
 80029fa:	3301      	adds	r3, #1
 80029fc:	617b      	str	r3, [r7, #20]
 80029fe:	683b      	ldr	r3, [r7, #0]
 8002a00:	785b      	ldrb	r3, [r3, #1]
 8002a02:	461a      	mov	r2, r3
 8002a04:	697b      	ldr	r3, [r7, #20]
 8002a06:	4293      	cmp	r3, r2
 8002a08:	d3ad      	bcc.n	8002966 <SSD1306_Putc+0x3a>
			}
		}
	}
	
	/* Increase pointer */
	SSD1306.CurrentX += Font->FontWidth;
 8002a0a:	4b07      	ldr	r3, [pc, #28]	; (8002a28 <SSD1306_Putc+0xfc>)
 8002a0c:	881a      	ldrh	r2, [r3, #0]
 8002a0e:	683b      	ldr	r3, [r7, #0]
 8002a10:	781b      	ldrb	r3, [r3, #0]
 8002a12:	b29b      	uxth	r3, r3
 8002a14:	4413      	add	r3, r2
 8002a16:	b29a      	uxth	r2, r3
 8002a18:	4b03      	ldr	r3, [pc, #12]	; (8002a28 <SSD1306_Putc+0xfc>)
 8002a1a:	801a      	strh	r2, [r3, #0]
	
	/* Return character written */
	return ch;
 8002a1c:	79fb      	ldrb	r3, [r7, #7]
}
 8002a1e:	4618      	mov	r0, r3
 8002a20:	3718      	adds	r7, #24
 8002a22:	46bd      	mov	sp, r7
 8002a24:	bd80      	pop	{r7, pc}
 8002a26:	bf00      	nop
 8002a28:	20000dec 	.word	0x20000dec

08002a2c <SSD1306_Puts>:

char SSD1306_Puts(char* str, FontDef_t* Font, SSD1306_COLOR_t color) {
 8002a2c:	b580      	push	{r7, lr}
 8002a2e:	b084      	sub	sp, #16
 8002a30:	af00      	add	r7, sp, #0
 8002a32:	60f8      	str	r0, [r7, #12]
 8002a34:	60b9      	str	r1, [r7, #8]
 8002a36:	4613      	mov	r3, r2
 8002a38:	71fb      	strb	r3, [r7, #7]
	/* Write characters */
	while (*str) {
 8002a3a:	e012      	b.n	8002a62 <SSD1306_Puts+0x36>
		/* Write character by character */
		if (SSD1306_Putc(*str, Font, color) != *str) {
 8002a3c:	68fb      	ldr	r3, [r7, #12]
 8002a3e:	781b      	ldrb	r3, [r3, #0]
 8002a40:	79fa      	ldrb	r2, [r7, #7]
 8002a42:	68b9      	ldr	r1, [r7, #8]
 8002a44:	4618      	mov	r0, r3
 8002a46:	f7ff ff71 	bl	800292c <SSD1306_Putc>
 8002a4a:	4603      	mov	r3, r0
 8002a4c:	461a      	mov	r2, r3
 8002a4e:	68fb      	ldr	r3, [r7, #12]
 8002a50:	781b      	ldrb	r3, [r3, #0]
 8002a52:	429a      	cmp	r2, r3
 8002a54:	d002      	beq.n	8002a5c <SSD1306_Puts+0x30>
			/* Return error */
			return *str;
 8002a56:	68fb      	ldr	r3, [r7, #12]
 8002a58:	781b      	ldrb	r3, [r3, #0]
 8002a5a:	e008      	b.n	8002a6e <SSD1306_Puts+0x42>
		}
		
		/* Increase string pointer */
		str++;
 8002a5c:	68fb      	ldr	r3, [r7, #12]
 8002a5e:	3301      	adds	r3, #1
 8002a60:	60fb      	str	r3, [r7, #12]
	while (*str) {
 8002a62:	68fb      	ldr	r3, [r7, #12]
 8002a64:	781b      	ldrb	r3, [r3, #0]
 8002a66:	2b00      	cmp	r3, #0
 8002a68:	d1e8      	bne.n	8002a3c <SSD1306_Puts+0x10>
	}
	
	/* Everything OK, zero should be returned */
	return *str;
 8002a6a:	68fb      	ldr	r3, [r7, #12]
 8002a6c:	781b      	ldrb	r3, [r3, #0]
}
 8002a6e:	4618      	mov	r0, r3
 8002a70:	3710      	adds	r7, #16
 8002a72:	46bd      	mov	sp, r7
 8002a74:	bd80      	pop	{r7, pc}

08002a76 <SSD1306_Clear>:
	SSD1306_DrawFilledTriangle(122, 30, 110, 20, 110, 40, SSD1306_COLOR_WHITE);
	SSD1306_DrawFilledTriangle(5, 30, 17, 20, 17, 40, SSD1306_COLOR_WHITE);
}

void SSD1306_Clear(void)
{
 8002a76:	b580      	push	{r7, lr}
 8002a78:	af00      	add	r7, sp, #0
	SSD1306_Fill(0);
 8002a7a:	2000      	movs	r0, #0
 8002a7c:	f7ff fec8 	bl	8002810 <SSD1306_Fill>
    SSD1306_UpdateScreen();
 8002a80:	f7ff fe90 	bl	80027a4 <SSD1306_UpdateScreen>
}
 8002a84:	bf00      	nop
 8002a86:	bd80      	pop	{r7, pc}

08002a88 <ssd1306_I2C_Init>:
// |_____|____|\_____|  //
//                      //
//////////////////////////

void ssd1306_I2C_Init()
{
 8002a88:	b480      	push	{r7}
 8002a8a:	b083      	sub	sp, #12
 8002a8c:	af00      	add	r7, sp, #0
	uint32_t p = 250000;
 8002a8e:	4b07      	ldr	r3, [pc, #28]	; (8002aac <ssd1306_I2C_Init+0x24>)
 8002a90:	607b      	str	r3, [r7, #4]
	while(p>0)
 8002a92:	e002      	b.n	8002a9a <ssd1306_I2C_Init+0x12>
		p--;
 8002a94:	687b      	ldr	r3, [r7, #4]
 8002a96:	3b01      	subs	r3, #1
 8002a98:	607b      	str	r3, [r7, #4]
	while(p>0)
 8002a9a:	687b      	ldr	r3, [r7, #4]
 8002a9c:	2b00      	cmp	r3, #0
 8002a9e:	d1f9      	bne.n	8002a94 <ssd1306_I2C_Init+0xc>
}
 8002aa0:	bf00      	nop
 8002aa2:	370c      	adds	r7, #12
 8002aa4:	46bd      	mov	sp, r7
 8002aa6:	f85d 7b04 	ldr.w	r7, [sp], #4
 8002aaa:	4770      	bx	lr
 8002aac:	0003d090 	.word	0x0003d090

08002ab0 <ssd1306_I2C_WriteMulti>:

void ssd1306_I2C_WriteMulti(uint8_t address, uint8_t reg, uint8_t* data, uint16_t count)
{
 8002ab0:	b590      	push	{r4, r7, lr}
 8002ab2:	b0c7      	sub	sp, #284	; 0x11c
 8002ab4:	af02      	add	r7, sp, #8
 8002ab6:	4604      	mov	r4, r0
 8002ab8:	4608      	mov	r0, r1
 8002aba:	4639      	mov	r1, r7
 8002abc:	600a      	str	r2, [r1, #0]
 8002abe:	4619      	mov	r1, r3
 8002ac0:	1dfb      	adds	r3, r7, #7
 8002ac2:	4622      	mov	r2, r4
 8002ac4:	701a      	strb	r2, [r3, #0]
 8002ac6:	1dbb      	adds	r3, r7, #6
 8002ac8:	4602      	mov	r2, r0
 8002aca:	701a      	strb	r2, [r3, #0]
 8002acc:	1d3b      	adds	r3, r7, #4
 8002ace:	460a      	mov	r2, r1
 8002ad0:	801a      	strh	r2, [r3, #0]
	uint8_t dt[256];
	dt[0] = reg;
 8002ad2:	f107 030c 	add.w	r3, r7, #12
 8002ad6:	1dba      	adds	r2, r7, #6
 8002ad8:	7812      	ldrb	r2, [r2, #0]
 8002ada:	701a      	strb	r2, [r3, #0]
	uint16_t i;
	for(i = 0; i < count; i++){
 8002adc:	2300      	movs	r3, #0
 8002ade:	f8a7 310e 	strh.w	r3, [r7, #270]	; 0x10e
 8002ae2:	e010      	b.n	8002b06 <ssd1306_I2C_WriteMulti+0x56>
		dt[i+1] = data[i];
 8002ae4:	f8b7 310e 	ldrh.w	r3, [r7, #270]	; 0x10e
 8002ae8:	463a      	mov	r2, r7
 8002aea:	6812      	ldr	r2, [r2, #0]
 8002aec:	441a      	add	r2, r3
 8002aee:	f8b7 310e 	ldrh.w	r3, [r7, #270]	; 0x10e
 8002af2:	3301      	adds	r3, #1
 8002af4:	7811      	ldrb	r1, [r2, #0]
 8002af6:	f107 020c 	add.w	r2, r7, #12
 8002afa:	54d1      	strb	r1, [r2, r3]
	for(i = 0; i < count; i++){
 8002afc:	f8b7 310e 	ldrh.w	r3, [r7, #270]	; 0x10e
 8002b00:	3301      	adds	r3, #1
 8002b02:	f8a7 310e 	strh.w	r3, [r7, #270]	; 0x10e
 8002b06:	1d3b      	adds	r3, r7, #4
 8002b08:	f8b7 210e 	ldrh.w	r2, [r7, #270]	; 0x10e
 8002b0c:	881b      	ldrh	r3, [r3, #0]
 8002b0e:	429a      	cmp	r2, r3
 8002b10:	d3e8      	bcc.n	8002ae4 <ssd1306_I2C_WriteMulti+0x34>
	}

	while (HAL_I2C_GetState(&hi2c1) != HAL_I2C_STATE_READY){}
 8002b12:	bf00      	nop
 8002b14:	480c      	ldr	r0, [pc, #48]	; (8002b48 <ssd1306_I2C_WriteMulti+0x98>)
 8002b16:	f002 fdd4 	bl	80056c2 <HAL_I2C_GetState>
 8002b1a:	4603      	mov	r3, r0
 8002b1c:	2b20      	cmp	r3, #32
 8002b1e:	d1f9      	bne.n	8002b14 <ssd1306_I2C_WriteMulti+0x64>
	HAL_I2C_Master_Transmit(&hi2c1, address, dt, count+1,10);
 8002b20:	1dfb      	adds	r3, r7, #7
 8002b22:	781b      	ldrb	r3, [r3, #0]
 8002b24:	b299      	uxth	r1, r3
 8002b26:	1d3b      	adds	r3, r7, #4
 8002b28:	881b      	ldrh	r3, [r3, #0]
 8002b2a:	3301      	adds	r3, #1
 8002b2c:	b298      	uxth	r0, r3
 8002b2e:	f107 020c 	add.w	r2, r7, #12
 8002b32:	230a      	movs	r3, #10
 8002b34:	9300      	str	r3, [sp, #0]
 8002b36:	4603      	mov	r3, r0
 8002b38:	4803      	ldr	r0, [pc, #12]	; (8002b48 <ssd1306_I2C_WriteMulti+0x98>)
 8002b3a:	f002 fbad 	bl	8005298 <HAL_I2C_Master_Transmit>
}
 8002b3e:	bf00      	nop
 8002b40:	f507 778a 	add.w	r7, r7, #276	; 0x114
 8002b44:	46bd      	mov	sp, r7
 8002b46:	bd90      	pop	{r4, r7, pc}
 8002b48:	20001c34 	.word	0x20001c34

08002b4c <ssd1306_I2C_Write>:

void ssd1306_I2C_Write(uint8_t address, uint8_t reg, uint8_t data)
{
 8002b4c:	b580      	push	{r7, lr}
 8002b4e:	b086      	sub	sp, #24
 8002b50:	af02      	add	r7, sp, #8
 8002b52:	4603      	mov	r3, r0
 8002b54:	71fb      	strb	r3, [r7, #7]
 8002b56:	460b      	mov	r3, r1
 8002b58:	71bb      	strb	r3, [r7, #6]
 8002b5a:	4613      	mov	r3, r2
 8002b5c:	717b      	strb	r3, [r7, #5]
	uint8_t dt[2];
	dt[0] = reg;
 8002b5e:	79bb      	ldrb	r3, [r7, #6]
 8002b60:	733b      	strb	r3, [r7, #12]
	dt[1] = data;
 8002b62:	797b      	ldrb	r3, [r7, #5]
 8002b64:	737b      	strb	r3, [r7, #13]
	while (HAL_I2C_GetState(&hi2c1) != HAL_I2C_STATE_READY){}
 8002b66:	bf00      	nop
 8002b68:	4809      	ldr	r0, [pc, #36]	; (8002b90 <ssd1306_I2C_Write+0x44>)
 8002b6a:	f002 fdaa 	bl	80056c2 <HAL_I2C_GetState>
 8002b6e:	4603      	mov	r3, r0
 8002b70:	2b20      	cmp	r3, #32
 8002b72:	d1f9      	bne.n	8002b68 <ssd1306_I2C_Write+0x1c>
	HAL_I2C_Master_Transmit(&hi2c1, address, dt, 2,10);
 8002b74:	79fb      	ldrb	r3, [r7, #7]
 8002b76:	b299      	uxth	r1, r3
 8002b78:	f107 020c 	add.w	r2, r7, #12
 8002b7c:	230a      	movs	r3, #10
 8002b7e:	9300      	str	r3, [sp, #0]
 8002b80:	2302      	movs	r3, #2
 8002b82:	4803      	ldr	r0, [pc, #12]	; (8002b90 <ssd1306_I2C_Write+0x44>)
 8002b84:	f002 fb88 	bl	8005298 <HAL_I2C_Master_Transmit>
}
 8002b88:	bf00      	nop
 8002b8a:	3710      	adds	r7, #16
 8002b8c:	46bd      	mov	sp, r7
 8002b8e:	bd80      	pop	{r7, pc}
 8002b90:	20001c34 	.word	0x20001c34

08002b94 <HAL_MspInit>:
/* USER CODE END 0 */
/**
  * Initializes the Global MSP.
  */
void HAL_MspInit(void)
{
 8002b94:	b480      	push	{r7}
 8002b96:	b083      	sub	sp, #12
 8002b98:	af00      	add	r7, sp, #0
  /* USER CODE BEGIN MspInit 0 */

  /* USER CODE END MspInit 0 */

  __HAL_RCC_SYSCFG_CLK_ENABLE();
 8002b9a:	4b0f      	ldr	r3, [pc, #60]	; (8002bd8 <HAL_MspInit+0x44>)
 8002b9c:	6e1b      	ldr	r3, [r3, #96]	; 0x60
 8002b9e:	4a0e      	ldr	r2, [pc, #56]	; (8002bd8 <HAL_MspInit+0x44>)
 8002ba0:	f043 0301 	orr.w	r3, r3, #1
 8002ba4:	6613      	str	r3, [r2, #96]	; 0x60
 8002ba6:	4b0c      	ldr	r3, [pc, #48]	; (8002bd8 <HAL_MspInit+0x44>)
 8002ba8:	6e1b      	ldr	r3, [r3, #96]	; 0x60
 8002baa:	f003 0301 	and.w	r3, r3, #1
 8002bae:	607b      	str	r3, [r7, #4]
 8002bb0:	687b      	ldr	r3, [r7, #4]
  __HAL_RCC_PWR_CLK_ENABLE();
 8002bb2:	4b09      	ldr	r3, [pc, #36]	; (8002bd8 <HAL_MspInit+0x44>)
 8002bb4:	6d9b      	ldr	r3, [r3, #88]	; 0x58
 8002bb6:	4a08      	ldr	r2, [pc, #32]	; (8002bd8 <HAL_MspInit+0x44>)
 8002bb8:	f043 5380 	orr.w	r3, r3, #268435456	; 0x10000000
 8002bbc:	6593      	str	r3, [r2, #88]	; 0x58
 8002bbe:	4b06      	ldr	r3, [pc, #24]	; (8002bd8 <HAL_MspInit+0x44>)
 8002bc0:	6d9b      	ldr	r3, [r3, #88]	; 0x58
 8002bc2:	f003 5380 	and.w	r3, r3, #268435456	; 0x10000000
 8002bc6:	603b      	str	r3, [r7, #0]
 8002bc8:	683b      	ldr	r3, [r7, #0]
  /* System interrupt init*/

  /* USER CODE BEGIN MspInit 1 */

  /* USER CODE END MspInit 1 */
}
 8002bca:	bf00      	nop
 8002bcc:	370c      	adds	r7, #12
 8002bce:	46bd      	mov	sp, r7
 8002bd0:	f85d 7b04 	ldr.w	r7, [sp], #4
 8002bd4:	4770      	bx	lr
 8002bd6:	bf00      	nop
 8002bd8:	40021000 	.word	0x40021000

08002bdc <__io_putchar>:
  * @brief  Retargets the C library printf function to the USART.
  * @param  None
  * @retval None
  */
PUTCHAR_PROTOTYPE
{
 8002bdc:	b580      	push	{r7, lr}
 8002bde:	b082      	sub	sp, #8
 8002be0:	af00      	add	r7, sp, #0
 8002be2:	6078      	str	r0, [r7, #4]
  /* Place your implementation of fputc here */
  /* e.g. write a character to the USART2 and Loop until the end of transmission */
  HAL_UART_Transmit(&huart2, (uint8_t *)&ch, 1, 0xFFFF);
 8002be4:	1d39      	adds	r1, r7, #4
 8002be6:	f64f 73ff 	movw	r3, #65535	; 0xffff
 8002bea:	2201      	movs	r2, #1
 8002bec:	4803      	ldr	r0, [pc, #12]	; (8002bfc <__io_putchar+0x20>)
 8002bee:	f004 fc3d 	bl	800746c <HAL_UART_Transmit>

  return ch;
 8002bf2:	687b      	ldr	r3, [r7, #4]
}
 8002bf4:	4618      	mov	r0, r3
 8002bf6:	3708      	adds	r7, #8
 8002bf8:	46bd      	mov	sp, r7
 8002bfa:	bd80      	pop	{r7, pc}
 8002bfc:	20001ccc 	.word	0x20001ccc

08002c00 <NMI_Handler>:
/******************************************************************************/
/**
  * @brief This function handles Non maskable interrupt.
  */
void NMI_Handler(void)
{
 8002c00:	b480      	push	{r7}
 8002c02:	af00      	add	r7, sp, #0
  /* USER CODE BEGIN NonMaskableInt_IRQn 0 */

  /* USER CODE END NonMaskableInt_IRQn 0 */
  /* USER CODE BEGIN NonMaskableInt_IRQn 1 */
  while (1)
 8002c04:	e7fe      	b.n	8002c04 <NMI_Handler+0x4>

08002c06 <HardFault_Handler>:

/**
  * @brief This function handles Hard fault interrupt.
  */
void HardFault_Handler(void)
{
 8002c06:	b480      	push	{r7}
 8002c08:	af00      	add	r7, sp, #0
  /* USER CODE BEGIN HardFault_IRQn 0 */

  /* USER CODE END HardFault_IRQn 0 */
  while (1)
 8002c0a:	e7fe      	b.n	8002c0a <HardFault_Handler+0x4>

08002c0c <MemManage_Handler>:

/**
  * @brief This function handles Memory management fault.
  */
void MemManage_Handler(void)
{
 8002c0c:	b480      	push	{r7}
 8002c0e:	af00      	add	r7, sp, #0
  /* USER CODE BEGIN MemoryManagement_IRQn 0 */

  /* USER CODE END MemoryManagement_IRQn 0 */
  while (1)
 8002c10:	e7fe      	b.n	8002c10 <MemManage_Handler+0x4>

08002c12 <BusFault_Handler>:

/**
  * @brief This function handles Prefetch fault, memory access fault.
  */
void BusFault_Handler(void)
{
 8002c12:	b480      	push	{r7}
 8002c14:	af00      	add	r7, sp, #0
  /* USER CODE BEGIN BusFault_IRQn 0 */

  /* USER CODE END BusFault_IRQn 0 */
  while (1)
 8002c16:	e7fe      	b.n	8002c16 <BusFault_Handler+0x4>

08002c18 <UsageFault_Handler>:

/**
  * @brief This function handles Undefined instruction or illegal state.
  */
void UsageFault_Handler(void)
{
 8002c18:	b480      	push	{r7}
 8002c1a:	af00      	add	r7, sp, #0
  /* USER CODE BEGIN UsageFault_IRQn 0 */

  /* USER CODE END UsageFault_IRQn 0 */
  while (1)
 8002c1c:	e7fe      	b.n	8002c1c <UsageFault_Handler+0x4>

08002c1e <SVC_Handler>:

/**
  * @brief This function handles System service call via SWI instruction.
  */
void SVC_Handler(void)
{
 8002c1e:	b480      	push	{r7}
 8002c20:	af00      	add	r7, sp, #0

  /* USER CODE END SVCall_IRQn 0 */
  /* USER CODE BEGIN SVCall_IRQn 1 */

  /* USER CODE END SVCall_IRQn 1 */
}
 8002c22:	bf00      	nop
 8002c24:	46bd      	mov	sp, r7
 8002c26:	f85d 7b04 	ldr.w	r7, [sp], #4
 8002c2a:	4770      	bx	lr

08002c2c <DebugMon_Handler>:

/**
  * @brief This function handles Debug monitor.
  */
void DebugMon_Handler(void)
{
 8002c2c:	b480      	push	{r7}
 8002c2e:	af00      	add	r7, sp, #0

  /* USER CODE END DebugMonitor_IRQn 0 */
  /* USER CODE BEGIN DebugMonitor_IRQn 1 */

  /* USER CODE END DebugMonitor_IRQn 1 */
}
 8002c30:	bf00      	nop
 8002c32:	46bd      	mov	sp, r7
 8002c34:	f85d 7b04 	ldr.w	r7, [sp], #4
 8002c38:	4770      	bx	lr

08002c3a <PendSV_Handler>:

/**
  * @brief This function handles Pendable request for system service.
  */
void PendSV_Handler(void)
{
 8002c3a:	b480      	push	{r7}
 8002c3c:	af00      	add	r7, sp, #0

  /* USER CODE END PendSV_IRQn 0 */
  /* USER CODE BEGIN PendSV_IRQn 1 */

  /* USER CODE END PendSV_IRQn 1 */
}
 8002c3e:	bf00      	nop
 8002c40:	46bd      	mov	sp, r7
 8002c42:	f85d 7b04 	ldr.w	r7, [sp], #4
 8002c46:	4770      	bx	lr

08002c48 <SysTick_Handler>:

/**
  * @brief This function handles System tick timer.
  */
void SysTick_Handler(void)
{
 8002c48:	b580      	push	{r7, lr}
 8002c4a:	af00      	add	r7, sp, #0
  /* USER CODE BEGIN SysTick_IRQn 0 */

  /* USER CODE END SysTick_IRQn 0 */
  HAL_IncTick();
 8002c4c:	f000 fa8c 	bl	8003168 <HAL_IncTick>
  /* USER CODE BEGIN SysTick_IRQn 1 */

  /* USER CODE END SysTick_IRQn 1 */
}
 8002c50:	bf00      	nop
 8002c52:	bd80      	pop	{r7, pc}

08002c54 <EXTI1_IRQHandler>:

/**
  * @brief This function handles EXTI line1 interrupt.
  */
void EXTI1_IRQHandler(void)
{
 8002c54:	b580      	push	{r7, lr}
 8002c56:	af00      	add	r7, sp, #0
  /* USER CODE BEGIN EXTI1_IRQn 0 */

  /* USER CODE END EXTI1_IRQn 0 */
  HAL_GPIO_EXTI_IRQHandler(GPIO_PIN_1);
 8002c58:	2002      	movs	r0, #2
 8002c5a:	f002 fa75 	bl	8005148 <HAL_GPIO_EXTI_IRQHandler>
  /* USER CODE BEGIN EXTI1_IRQn 1 */

  /* USER CODE END EXTI1_IRQn 1 */
}
 8002c5e:	bf00      	nop
 8002c60:	bd80      	pop	{r7, pc}
	...

08002c64 <DMA1_Channel1_IRQHandler>:

/**
  * @brief This function handles DMA1 channel1 global interrupt.
  */
void DMA1_Channel1_IRQHandler(void)
{
 8002c64:	b580      	push	{r7, lr}
 8002c66:	af00      	add	r7, sp, #0
  /* USER CODE BEGIN DMA1_Channel1_IRQn 0 */

  /* USER CODE END DMA1_Channel1_IRQn 0 */
  HAL_DMA_IRQHandler(&hdma_adc1);
 8002c68:	4802      	ldr	r0, [pc, #8]	; (8002c74 <DMA1_Channel1_IRQHandler+0x10>)
 8002c6a:	f001 fff3 	bl	8004c54 <HAL_DMA_IRQHandler>
  /* USER CODE BEGIN DMA1_Channel1_IRQn 1 */

  /* USER CODE END DMA1_Channel1_IRQn 1 */
}
 8002c6e:	bf00      	nop
 8002c70:	bd80      	pop	{r7, pc}
 8002c72:	bf00      	nop
 8002c74:	20000e64 	.word	0x20000e64

08002c78 <DMA1_Channel3_IRQHandler>:

/**
  * @brief This function handles DMA1 channel3 global interrupt.
  */
void DMA1_Channel3_IRQHandler(void)
{
 8002c78:	b580      	push	{r7, lr}
 8002c7a:	af00      	add	r7, sp, #0
  /* USER CODE BEGIN DMA1_Channel3_IRQn 0 */

  /* USER CODE END DMA1_Channel3_IRQn 0 */
  HAL_DMA_IRQHandler(&hdma_dac_ch1);
 8002c7c:	4802      	ldr	r0, [pc, #8]	; (8002c88 <DMA1_Channel3_IRQHandler+0x10>)
 8002c7e:	f001 ffe9 	bl	8004c54 <HAL_DMA_IRQHandler>
  /* USER CODE BEGIN DMA1_Channel3_IRQn 1 */

  /* USER CODE END DMA1_Channel3_IRQn 1 */
}
 8002c82:	bf00      	nop
 8002c84:	bd80      	pop	{r7, pc}
 8002c86:	bf00      	nop
 8002c88:	20000ec0 	.word	0x20000ec0

08002c8c <DMA1_Channel4_IRQHandler>:

/**
  * @brief This function handles DMA1 channel4 global interrupt.
  */
void DMA1_Channel4_IRQHandler(void)
{
 8002c8c:	b580      	push	{r7, lr}
 8002c8e:	af00      	add	r7, sp, #0
  /* USER CODE BEGIN DMA1_Channel4_IRQn 0 */

  /* USER CODE END DMA1_Channel4_IRQn 0 */
  HAL_DMA_IRQHandler(&hdma_dac_ch2);
 8002c90:	4802      	ldr	r0, [pc, #8]	; (8002c9c <DMA1_Channel4_IRQHandler+0x10>)
 8002c92:	f001 ffdf 	bl	8004c54 <HAL_DMA_IRQHandler>
  /* USER CODE BEGIN DMA1_Channel4_IRQn 1 */

  /* USER CODE END DMA1_Channel4_IRQn 1 */
}
 8002c96:	bf00      	nop
 8002c98:	bd80      	pop	{r7, pc}
 8002c9a:	bf00      	nop
 8002c9c:	20000f08 	.word	0x20000f08

08002ca0 <DMA1_Channel6_IRQHandler>:

/**
  * @brief This function handles DMA1 channel6 global interrupt.
  */
void DMA1_Channel6_IRQHandler(void)
{
 8002ca0:	b580      	push	{r7, lr}
 8002ca2:	af00      	add	r7, sp, #0
  /* USER CODE BEGIN DMA1_Channel6_IRQn 0 */

  /* USER CODE END DMA1_Channel6_IRQn 0 */
  HAL_DMA_IRQHandler(&hdma_i2c1_tx);
 8002ca4:	4802      	ldr	r0, [pc, #8]	; (8002cb0 <DMA1_Channel6_IRQHandler+0x10>)
 8002ca6:	f001 ffd5 	bl	8004c54 <HAL_DMA_IRQHandler>
  /* USER CODE BEGIN DMA1_Channel6_IRQn 1 */

  /* USER CODE END DMA1_Channel6_IRQn 1 */
}
 8002caa:	bf00      	nop
 8002cac:	bd80      	pop	{r7, pc}
 8002cae:	bf00      	nop
 8002cb0:	20001bec 	.word	0x20001bec

08002cb4 <EXTI9_5_IRQHandler>:

/**
  * @brief This function handles EXTI line[9:5] interrupts.
  */
void EXTI9_5_IRQHandler(void)
{
 8002cb4:	b580      	push	{r7, lr}
 8002cb6:	af00      	add	r7, sp, #0
  /* USER CODE BEGIN EXTI9_5_IRQn 0 */

  /* USER CODE END EXTI9_5_IRQn 0 */
  HAL_GPIO_EXTI_IRQHandler(GPIO_PIN_8);
 8002cb8:	f44f 7080 	mov.w	r0, #256	; 0x100
 8002cbc:	f002 fa44 	bl	8005148 <HAL_GPIO_EXTI_IRQHandler>
  /* USER CODE BEGIN EXTI9_5_IRQn 1 */

  /* USER CODE END EXTI9_5_IRQn 1 */
}
 8002cc0:	bf00      	nop
 8002cc2:	bd80      	pop	{r7, pc}

08002cc4 <I2C1_EV_IRQHandler>:

/**
  * @brief This function handles I2C1 event interrupt.
  */
void I2C1_EV_IRQHandler(void)
{
 8002cc4:	b580      	push	{r7, lr}
 8002cc6:	af00      	add	r7, sp, #0
  /* USER CODE BEGIN I2C1_EV_IRQn 0 */

  /* USER CODE END I2C1_EV_IRQn 0 */
  HAL_I2C_EV_IRQHandler(&hi2c1);
 8002cc8:	4802      	ldr	r0, [pc, #8]	; (8002cd4 <I2C1_EV_IRQHandler+0x10>)
 8002cca:	f002 fce0 	bl	800568e <HAL_I2C_EV_IRQHandler>
  /* USER CODE BEGIN I2C1_EV_IRQn 1 */

  /* USER CODE END I2C1_EV_IRQn 1 */
}
 8002cce:	bf00      	nop
 8002cd0:	bd80      	pop	{r7, pc}
 8002cd2:	bf00      	nop
 8002cd4:	20001c34 	.word	0x20001c34

08002cd8 <_read>:
	_kill(status, -1);
	while (1) {}		/* Make sure we hang here */
}

__attribute__((weak)) int _read(int file, char *ptr, int len)
{
 8002cd8:	b580      	push	{r7, lr}
 8002cda:	b086      	sub	sp, #24
 8002cdc:	af00      	add	r7, sp, #0
 8002cde:	60f8      	str	r0, [r7, #12]
 8002ce0:	60b9      	str	r1, [r7, #8]
 8002ce2:	607a      	str	r2, [r7, #4]
	int DataIdx;

	for (DataIdx = 0; DataIdx < len; DataIdx++)
 8002ce4:	2300      	movs	r3, #0
 8002ce6:	617b      	str	r3, [r7, #20]
 8002ce8:	e00a      	b.n	8002d00 <_read+0x28>
	{
		*ptr++ = __io_getchar();
 8002cea:	f3af 8000 	nop.w
 8002cee:	4601      	mov	r1, r0
 8002cf0:	68bb      	ldr	r3, [r7, #8]
 8002cf2:	1c5a      	adds	r2, r3, #1
 8002cf4:	60ba      	str	r2, [r7, #8]
 8002cf6:	b2ca      	uxtb	r2, r1
 8002cf8:	701a      	strb	r2, [r3, #0]
	for (DataIdx = 0; DataIdx < len; DataIdx++)
 8002cfa:	697b      	ldr	r3, [r7, #20]
 8002cfc:	3301      	adds	r3, #1
 8002cfe:	617b      	str	r3, [r7, #20]
 8002d00:	697a      	ldr	r2, [r7, #20]
 8002d02:	687b      	ldr	r3, [r7, #4]
 8002d04:	429a      	cmp	r2, r3
 8002d06:	dbf0      	blt.n	8002cea <_read+0x12>
	}

return len;
 8002d08:	687b      	ldr	r3, [r7, #4]
}
 8002d0a:	4618      	mov	r0, r3
 8002d0c:	3718      	adds	r7, #24
 8002d0e:	46bd      	mov	sp, r7
 8002d10:	bd80      	pop	{r7, pc}

08002d12 <_write>:

__attribute__((weak)) int _write(int file, char *ptr, int len)
{
 8002d12:	b580      	push	{r7, lr}
 8002d14:	b086      	sub	sp, #24
 8002d16:	af00      	add	r7, sp, #0
 8002d18:	60f8      	str	r0, [r7, #12]
 8002d1a:	60b9      	str	r1, [r7, #8]
 8002d1c:	607a      	str	r2, [r7, #4]
	int DataIdx;

	for (DataIdx = 0; DataIdx < len; DataIdx++)
 8002d1e:	2300      	movs	r3, #0
 8002d20:	617b      	str	r3, [r7, #20]
 8002d22:	e009      	b.n	8002d38 <_write+0x26>
	{
		__io_putchar(*ptr++);
 8002d24:	68bb      	ldr	r3, [r7, #8]
 8002d26:	1c5a      	adds	r2, r3, #1
 8002d28:	60ba      	str	r2, [r7, #8]
 8002d2a:	781b      	ldrb	r3, [r3, #0]
 8002d2c:	4618      	mov	r0, r3
 8002d2e:	f7ff ff55 	bl	8002bdc <__io_putchar>
	for (DataIdx = 0; DataIdx < len; DataIdx++)
 8002d32:	697b      	ldr	r3, [r7, #20]
 8002d34:	3301      	adds	r3, #1
 8002d36:	617b      	str	r3, [r7, #20]
 8002d38:	697a      	ldr	r2, [r7, #20]
 8002d3a:	687b      	ldr	r3, [r7, #4]
 8002d3c:	429a      	cmp	r2, r3
 8002d3e:	dbf1      	blt.n	8002d24 <_write+0x12>
	}
	return len;
 8002d40:	687b      	ldr	r3, [r7, #4]
}
 8002d42:	4618      	mov	r0, r3
 8002d44:	3718      	adds	r7, #24
 8002d46:	46bd      	mov	sp, r7
 8002d48:	bd80      	pop	{r7, pc}

08002d4a <_close>:

int _close(int file)
{
 8002d4a:	b480      	push	{r7}
 8002d4c:	b083      	sub	sp, #12
 8002d4e:	af00      	add	r7, sp, #0
 8002d50:	6078      	str	r0, [r7, #4]
	return -1;
 8002d52:	f04f 33ff 	mov.w	r3, #4294967295	; 0xffffffff
}
 8002d56:	4618      	mov	r0, r3
 8002d58:	370c      	adds	r7, #12
 8002d5a:	46bd      	mov	sp, r7
 8002d5c:	f85d 7b04 	ldr.w	r7, [sp], #4
 8002d60:	4770      	bx	lr

08002d62 <_fstat>:


int _fstat(int file, struct stat *st)
{
 8002d62:	b480      	push	{r7}
 8002d64:	b083      	sub	sp, #12
 8002d66:	af00      	add	r7, sp, #0
 8002d68:	6078      	str	r0, [r7, #4]
 8002d6a:	6039      	str	r1, [r7, #0]
	st->st_mode = S_IFCHR;
 8002d6c:	683b      	ldr	r3, [r7, #0]
 8002d6e:	f44f 5200 	mov.w	r2, #8192	; 0x2000
 8002d72:	605a      	str	r2, [r3, #4]
	return 0;
 8002d74:	2300      	movs	r3, #0
}
 8002d76:	4618      	mov	r0, r3
 8002d78:	370c      	adds	r7, #12
 8002d7a:	46bd      	mov	sp, r7
 8002d7c:	f85d 7b04 	ldr.w	r7, [sp], #4
 8002d80:	4770      	bx	lr

08002d82 <_isatty>:

int _isatty(int file)
{
 8002d82:	b480      	push	{r7}
 8002d84:	b083      	sub	sp, #12
 8002d86:	af00      	add	r7, sp, #0
 8002d88:	6078      	str	r0, [r7, #4]
	return 1;
 8002d8a:	2301      	movs	r3, #1
}
 8002d8c:	4618      	mov	r0, r3
 8002d8e:	370c      	adds	r7, #12
 8002d90:	46bd      	mov	sp, r7
 8002d92:	f85d 7b04 	ldr.w	r7, [sp], #4
 8002d96:	4770      	bx	lr

08002d98 <_lseek>:

int _lseek(int file, int ptr, int dir)
{
 8002d98:	b480      	push	{r7}
 8002d9a:	b085      	sub	sp, #20
 8002d9c:	af00      	add	r7, sp, #0
 8002d9e:	60f8      	str	r0, [r7, #12]
 8002da0:	60b9      	str	r1, [r7, #8]
 8002da2:	607a      	str	r2, [r7, #4]
	return 0;
 8002da4:	2300      	movs	r3, #0
}
 8002da6:	4618      	mov	r0, r3
 8002da8:	3714      	adds	r7, #20
 8002daa:	46bd      	mov	sp, r7
 8002dac:	f85d 7b04 	ldr.w	r7, [sp], #4
 8002db0:	4770      	bx	lr
	...

08002db4 <_sbrk>:
 *
 * @param incr Memory size
 * @return Pointer to allocated memory
 */
void *_sbrk(ptrdiff_t incr)
{
 8002db4:	b580      	push	{r7, lr}
 8002db6:	b086      	sub	sp, #24
 8002db8:	af00      	add	r7, sp, #0
 8002dba:	6078      	str	r0, [r7, #4]
  extern uint8_t _end; /* Symbol defined in the linker script */
  extern uint8_t _estack; /* Symbol defined in the linker script */
  extern uint32_t _Min_Stack_Size; /* Symbol defined in the linker script */
  const uint32_t stack_limit = (uint32_t)&_estack - (uint32_t)&_Min_Stack_Size;
 8002dbc:	4a14      	ldr	r2, [pc, #80]	; (8002e10 <_sbrk+0x5c>)
 8002dbe:	4b15      	ldr	r3, [pc, #84]	; (8002e14 <_sbrk+0x60>)
 8002dc0:	1ad3      	subs	r3, r2, r3
 8002dc2:	617b      	str	r3, [r7, #20]
  const uint8_t *max_heap = (uint8_t *)stack_limit;
 8002dc4:	697b      	ldr	r3, [r7, #20]
 8002dc6:	613b      	str	r3, [r7, #16]
  uint8_t *prev_heap_end;

  /* Initialize heap end at first call */
  if (NULL == __sbrk_heap_end)
 8002dc8:	4b13      	ldr	r3, [pc, #76]	; (8002e18 <_sbrk+0x64>)
 8002dca:	681b      	ldr	r3, [r3, #0]
 8002dcc:	2b00      	cmp	r3, #0
 8002dce:	d102      	bne.n	8002dd6 <_sbrk+0x22>
  {
    __sbrk_heap_end = &_end;
 8002dd0:	4b11      	ldr	r3, [pc, #68]	; (8002e18 <_sbrk+0x64>)
 8002dd2:	4a12      	ldr	r2, [pc, #72]	; (8002e1c <_sbrk+0x68>)
 8002dd4:	601a      	str	r2, [r3, #0]
  }

  /* Protect heap from growing into the reserved MSP stack */
  if (__sbrk_heap_end + incr > max_heap)
 8002dd6:	4b10      	ldr	r3, [pc, #64]	; (8002e18 <_sbrk+0x64>)
 8002dd8:	681a      	ldr	r2, [r3, #0]
 8002dda:	687b      	ldr	r3, [r7, #4]
 8002ddc:	4413      	add	r3, r2
 8002dde:	693a      	ldr	r2, [r7, #16]
 8002de0:	429a      	cmp	r2, r3
 8002de2:	d207      	bcs.n	8002df4 <_sbrk+0x40>
  {
    errno = ENOMEM;
 8002de4:	f004 ff48 	bl	8007c78 <__errno>
 8002de8:	4602      	mov	r2, r0
 8002dea:	230c      	movs	r3, #12
 8002dec:	6013      	str	r3, [r2, #0]
    return (void *)-1;
 8002dee:	f04f 33ff 	mov.w	r3, #4294967295	; 0xffffffff
 8002df2:	e009      	b.n	8002e08 <_sbrk+0x54>
  }

  prev_heap_end = __sbrk_heap_end;
 8002df4:	4b08      	ldr	r3, [pc, #32]	; (8002e18 <_sbrk+0x64>)
 8002df6:	681b      	ldr	r3, [r3, #0]
 8002df8:	60fb      	str	r3, [r7, #12]
  __sbrk_heap_end += incr;
 8002dfa:	4b07      	ldr	r3, [pc, #28]	; (8002e18 <_sbrk+0x64>)
 8002dfc:	681a      	ldr	r2, [r3, #0]
 8002dfe:	687b      	ldr	r3, [r7, #4]
 8002e00:	4413      	add	r3, r2
 8002e02:	4a05      	ldr	r2, [pc, #20]	; (8002e18 <_sbrk+0x64>)
 8002e04:	6013      	str	r3, [r2, #0]

  return (void *)prev_heap_end;
 8002e06:	68fb      	ldr	r3, [r7, #12]
}
 8002e08:	4618      	mov	r0, r3
 8002e0a:	3718      	adds	r7, #24
 8002e0c:	46bd      	mov	sp, r7
 8002e0e:	bd80      	pop	{r7, pc}
 8002e10:	20010000 	.word	0x20010000
 8002e14:	00000400 	.word	0x00000400
 8002e18:	20000df4 	.word	0x20000df4
 8002e1c:	20001d58 	.word	0x20001d58

08002e20 <SystemInit>:
  * @param  None
  * @retval None
  */

void SystemInit(void)
{
 8002e20:	b480      	push	{r7}
 8002e22:	af00      	add	r7, sp, #0
  /* FPU settings ------------------------------------------------------------*/
  #if (__FPU_PRESENT == 1) && (__FPU_USED == 1)
    SCB->CPACR |= ((3UL << 10*2)|(3UL << 11*2));  /* set CP10 and CP11 Full Access */
 8002e24:	4b17      	ldr	r3, [pc, #92]	; (8002e84 <SystemInit+0x64>)
 8002e26:	f8d3 3088 	ldr.w	r3, [r3, #136]	; 0x88
 8002e2a:	4a16      	ldr	r2, [pc, #88]	; (8002e84 <SystemInit+0x64>)
 8002e2c:	f443 0370 	orr.w	r3, r3, #15728640	; 0xf00000
 8002e30:	f8c2 3088 	str.w	r3, [r2, #136]	; 0x88
  #endif

  /* Reset the RCC clock configuration to the default reset state ------------*/
  /* Set MSION bit */
  RCC->CR |= RCC_CR_MSION;
 8002e34:	4b14      	ldr	r3, [pc, #80]	; (8002e88 <SystemInit+0x68>)
 8002e36:	681b      	ldr	r3, [r3, #0]
 8002e38:	4a13      	ldr	r2, [pc, #76]	; (8002e88 <SystemInit+0x68>)
 8002e3a:	f043 0301 	orr.w	r3, r3, #1
 8002e3e:	6013      	str	r3, [r2, #0]

  /* Reset CFGR register */
  RCC->CFGR = 0x00000000U;
 8002e40:	4b11      	ldr	r3, [pc, #68]	; (8002e88 <SystemInit+0x68>)
 8002e42:	2200      	movs	r2, #0
 8002e44:	609a      	str	r2, [r3, #8]

  /* Reset HSEON, CSSON , HSION, and PLLON bits */
  RCC->CR &= 0xEAF6FFFFU;
 8002e46:	4b10      	ldr	r3, [pc, #64]	; (8002e88 <SystemInit+0x68>)
 8002e48:	681b      	ldr	r3, [r3, #0]
 8002e4a:	4a0f      	ldr	r2, [pc, #60]	; (8002e88 <SystemInit+0x68>)
 8002e4c:	f023 53a8 	bic.w	r3, r3, #352321536	; 0x15000000
 8002e50:	f423 2310 	bic.w	r3, r3, #589824	; 0x90000
 8002e54:	6013      	str	r3, [r2, #0]

  /* Reset PLLCFGR register */
  RCC->PLLCFGR = 0x00001000U;
 8002e56:	4b0c      	ldr	r3, [pc, #48]	; (8002e88 <SystemInit+0x68>)
 8002e58:	f44f 5280 	mov.w	r2, #4096	; 0x1000
 8002e5c:	60da      	str	r2, [r3, #12]

  /* Reset HSEBYP bit */
  RCC->CR &= 0xFFFBFFFFU;
 8002e5e:	4b0a      	ldr	r3, [pc, #40]	; (8002e88 <SystemInit+0x68>)
 8002e60:	681b      	ldr	r3, [r3, #0]
 8002e62:	4a09      	ldr	r2, [pc, #36]	; (8002e88 <SystemInit+0x68>)
 8002e64:	f423 2380 	bic.w	r3, r3, #262144	; 0x40000
 8002e68:	6013      	str	r3, [r2, #0]

  /* Disable all interrupts */
  RCC->CIER = 0x00000000U;
 8002e6a:	4b07      	ldr	r3, [pc, #28]	; (8002e88 <SystemInit+0x68>)
 8002e6c:	2200      	movs	r2, #0
 8002e6e:	619a      	str	r2, [r3, #24]

  /* Configure the Vector Table location add offset address ------------------*/
#ifdef VECT_TAB_SRAM
  SCB->VTOR = SRAM_BASE | VECT_TAB_OFFSET; /* Vector Table Relocation in Internal SRAM */
#else
  SCB->VTOR = FLASH_BASE | VECT_TAB_OFFSET; /* Vector Table Relocation in Internal FLASH */
 8002e70:	4b04      	ldr	r3, [pc, #16]	; (8002e84 <SystemInit+0x64>)
 8002e72:	f04f 6200 	mov.w	r2, #134217728	; 0x8000000
 8002e76:	609a      	str	r2, [r3, #8]
#endif
}
 8002e78:	bf00      	nop
 8002e7a:	46bd      	mov	sp, r7
 8002e7c:	f85d 7b04 	ldr.w	r7, [sp], #4
 8002e80:	4770      	bx	lr
 8002e82:	bf00      	nop
 8002e84:	e000ed00 	.word	0xe000ed00
 8002e88:	40021000 	.word	0x40021000

08002e8c <MX_TIM2_Init>:

TIM_HandleTypeDef htim2;

/* TIM2 init function */
void MX_TIM2_Init(void)
{
 8002e8c:	b580      	push	{r7, lr}
 8002e8e:	b088      	sub	sp, #32
 8002e90:	af00      	add	r7, sp, #0
  TIM_ClockConfigTypeDef sClockSourceConfig = {0};
 8002e92:	f107 0310 	add.w	r3, r7, #16
 8002e96:	2200      	movs	r2, #0
 8002e98:	601a      	str	r2, [r3, #0]
 8002e9a:	605a      	str	r2, [r3, #4]
 8002e9c:	609a      	str	r2, [r3, #8]
 8002e9e:	60da      	str	r2, [r3, #12]
  TIM_MasterConfigTypeDef sMasterConfig = {0};
 8002ea0:	1d3b      	adds	r3, r7, #4
 8002ea2:	2200      	movs	r2, #0
 8002ea4:	601a      	str	r2, [r3, #0]
 8002ea6:	605a      	str	r2, [r3, #4]
 8002ea8:	609a      	str	r2, [r3, #8]

  htim2.Instance = TIM2;
 8002eaa:	4b1e      	ldr	r3, [pc, #120]	; (8002f24 <MX_TIM2_Init+0x98>)
 8002eac:	f04f 4280 	mov.w	r2, #1073741824	; 0x40000000
 8002eb0:	601a      	str	r2, [r3, #0]
  htim2.Init.Prescaler = 0;
 8002eb2:	4b1c      	ldr	r3, [pc, #112]	; (8002f24 <MX_TIM2_Init+0x98>)
 8002eb4:	2200      	movs	r2, #0
 8002eb6:	605a      	str	r2, [r3, #4]
  htim2.Init.CounterMode = TIM_COUNTERMODE_UP;
 8002eb8:	4b1a      	ldr	r3, [pc, #104]	; (8002f24 <MX_TIM2_Init+0x98>)
 8002eba:	2200      	movs	r2, #0
 8002ebc:	609a      	str	r2, [r3, #8]
  htim2.Init.Period = 1817;
 8002ebe:	4b19      	ldr	r3, [pc, #100]	; (8002f24 <MX_TIM2_Init+0x98>)
 8002ec0:	f240 7219 	movw	r2, #1817	; 0x719
 8002ec4:	60da      	str	r2, [r3, #12]
  htim2.Init.ClockDivision = TIM_CLOCKDIVISION_DIV1;
 8002ec6:	4b17      	ldr	r3, [pc, #92]	; (8002f24 <MX_TIM2_Init+0x98>)
 8002ec8:	2200      	movs	r2, #0
 8002eca:	611a      	str	r2, [r3, #16]
  htim2.Init.AutoReloadPreload = TIM_AUTORELOAD_PRELOAD_DISABLE;
 8002ecc:	4b15      	ldr	r3, [pc, #84]	; (8002f24 <MX_TIM2_Init+0x98>)
 8002ece:	2200      	movs	r2, #0
 8002ed0:	619a      	str	r2, [r3, #24]
  if (HAL_TIM_Base_Init(&htim2) != HAL_OK)
 8002ed2:	4814      	ldr	r0, [pc, #80]	; (8002f24 <MX_TIM2_Init+0x98>)
 8002ed4:	f003 ffba 	bl	8006e4c <HAL_TIM_Base_Init>
 8002ed8:	4603      	mov	r3, r0
 8002eda:	2b00      	cmp	r3, #0
 8002edc:	d001      	beq.n	8002ee2 <MX_TIM2_Init+0x56>
  {
    Error_Handler();
 8002ede:	f7fe fefd 	bl	8001cdc <Error_Handler>
  }
  sClockSourceConfig.ClockSource = TIM_CLOCKSOURCE_INTERNAL;
 8002ee2:	f44f 5380 	mov.w	r3, #4096	; 0x1000
 8002ee6:	613b      	str	r3, [r7, #16]
  if (HAL_TIM_ConfigClockSource(&htim2, &sClockSourceConfig) != HAL_OK)
 8002ee8:	f107 0310 	add.w	r3, r7, #16
 8002eec:	4619      	mov	r1, r3
 8002eee:	480d      	ldr	r0, [pc, #52]	; (8002f24 <MX_TIM2_Init+0x98>)
 8002ef0:	f004 f850 	bl	8006f94 <HAL_TIM_ConfigClockSource>
 8002ef4:	4603      	mov	r3, r0
 8002ef6:	2b00      	cmp	r3, #0
 8002ef8:	d001      	beq.n	8002efe <MX_TIM2_Init+0x72>
  {
    Error_Handler();
 8002efa:	f7fe feef 	bl	8001cdc <Error_Handler>
  }
  sMasterConfig.MasterOutputTrigger = TIM_TRGO_UPDATE;
 8002efe:	2320      	movs	r3, #32
 8002f00:	607b      	str	r3, [r7, #4]
  sMasterConfig.MasterSlaveMode = TIM_MASTERSLAVEMODE_DISABLE;
 8002f02:	2300      	movs	r3, #0
 8002f04:	60fb      	str	r3, [r7, #12]
  if (HAL_TIMEx_MasterConfigSynchronization(&htim2, &sMasterConfig) != HAL_OK)
 8002f06:	1d3b      	adds	r3, r7, #4
 8002f08:	4619      	mov	r1, r3
 8002f0a:	4806      	ldr	r0, [pc, #24]	; (8002f24 <MX_TIM2_Init+0x98>)
 8002f0c:	f004 f9fa 	bl	8007304 <HAL_TIMEx_MasterConfigSynchronization>
 8002f10:	4603      	mov	r3, r0
 8002f12:	2b00      	cmp	r3, #0
 8002f14:	d001      	beq.n	8002f1a <MX_TIM2_Init+0x8e>
  {
    Error_Handler();
 8002f16:	f7fe fee1 	bl	8001cdc <Error_Handler>
  }

}
 8002f1a:	bf00      	nop
 8002f1c:	3720      	adds	r7, #32
 8002f1e:	46bd      	mov	sp, r7
 8002f20:	bd80      	pop	{r7, pc}
 8002f22:	bf00      	nop
 8002f24:	20001c80 	.word	0x20001c80

08002f28 <HAL_TIM_Base_MspInit>:

void HAL_TIM_Base_MspInit(TIM_HandleTypeDef* tim_baseHandle)
{
 8002f28:	b480      	push	{r7}
 8002f2a:	b085      	sub	sp, #20
 8002f2c:	af00      	add	r7, sp, #0
 8002f2e:	6078      	str	r0, [r7, #4]

  if(tim_baseHandle->Instance==TIM2)
 8002f30:	687b      	ldr	r3, [r7, #4]
 8002f32:	681b      	ldr	r3, [r3, #0]
 8002f34:	f1b3 4f80 	cmp.w	r3, #1073741824	; 0x40000000
 8002f38:	d10b      	bne.n	8002f52 <HAL_TIM_Base_MspInit+0x2a>
  {
  /* USER CODE BEGIN TIM2_MspInit 0 */

  /* USER CODE END TIM2_MspInit 0 */
    /* TIM2 clock enable */
    __HAL_RCC_TIM2_CLK_ENABLE();
 8002f3a:	4b09      	ldr	r3, [pc, #36]	; (8002f60 <HAL_TIM_Base_MspInit+0x38>)
 8002f3c:	6d9b      	ldr	r3, [r3, #88]	; 0x58
 8002f3e:	4a08      	ldr	r2, [pc, #32]	; (8002f60 <HAL_TIM_Base_MspInit+0x38>)
 8002f40:	f043 0301 	orr.w	r3, r3, #1
 8002f44:	6593      	str	r3, [r2, #88]	; 0x58
 8002f46:	4b06      	ldr	r3, [pc, #24]	; (8002f60 <HAL_TIM_Base_MspInit+0x38>)
 8002f48:	6d9b      	ldr	r3, [r3, #88]	; 0x58
 8002f4a:	f003 0301 	and.w	r3, r3, #1
 8002f4e:	60fb      	str	r3, [r7, #12]
 8002f50:	68fb      	ldr	r3, [r7, #12]
  /* USER CODE BEGIN TIM2_MspInit 1 */

  /* USER CODE END TIM2_MspInit 1 */
  }
}
 8002f52:	bf00      	nop
 8002f54:	3714      	adds	r7, #20
 8002f56:	46bd      	mov	sp, r7
 8002f58:	f85d 7b04 	ldr.w	r7, [sp], #4
 8002f5c:	4770      	bx	lr
 8002f5e:	bf00      	nop
 8002f60:	40021000 	.word	0x40021000

08002f64 <MX_USART2_UART_Init>:
UART_HandleTypeDef huart2;

/* USART2 init function */

void MX_USART2_UART_Init(void)
{
 8002f64:	b580      	push	{r7, lr}
 8002f66:	af00      	add	r7, sp, #0

  huart2.Instance = USART2;
 8002f68:	4b14      	ldr	r3, [pc, #80]	; (8002fbc <MX_USART2_UART_Init+0x58>)
 8002f6a:	4a15      	ldr	r2, [pc, #84]	; (8002fc0 <MX_USART2_UART_Init+0x5c>)
 8002f6c:	601a      	str	r2, [r3, #0]
  huart2.Init.BaudRate = 115200;
 8002f6e:	4b13      	ldr	r3, [pc, #76]	; (8002fbc <MX_USART2_UART_Init+0x58>)
 8002f70:	f44f 32e1 	mov.w	r2, #115200	; 0x1c200
 8002f74:	605a      	str	r2, [r3, #4]
  huart2.Init.WordLength = UART_WORDLENGTH_8B;
 8002f76:	4b11      	ldr	r3, [pc, #68]	; (8002fbc <MX_USART2_UART_Init+0x58>)
 8002f78:	2200      	movs	r2, #0
 8002f7a:	609a      	str	r2, [r3, #8]
  huart2.Init.StopBits = UART_STOPBITS_1;
 8002f7c:	4b0f      	ldr	r3, [pc, #60]	; (8002fbc <MX_USART2_UART_Init+0x58>)
 8002f7e:	2200      	movs	r2, #0
 8002f80:	60da      	str	r2, [r3, #12]
  huart2.Init.Parity = UART_PARITY_NONE;
 8002f82:	4b0e      	ldr	r3, [pc, #56]	; (8002fbc <MX_USART2_UART_Init+0x58>)
 8002f84:	2200      	movs	r2, #0
 8002f86:	611a      	str	r2, [r3, #16]
  huart2.Init.Mode = UART_MODE_TX_RX;
 8002f88:	4b0c      	ldr	r3, [pc, #48]	; (8002fbc <MX_USART2_UART_Init+0x58>)
 8002f8a:	220c      	movs	r2, #12
 8002f8c:	615a      	str	r2, [r3, #20]
  huart2.Init.HwFlowCtl = UART_HWCONTROL_NONE;
 8002f8e:	4b0b      	ldr	r3, [pc, #44]	; (8002fbc <MX_USART2_UART_Init+0x58>)
 8002f90:	2200      	movs	r2, #0
 8002f92:	619a      	str	r2, [r3, #24]
  huart2.Init.OverSampling = UART_OVERSAMPLING_16;
 8002f94:	4b09      	ldr	r3, [pc, #36]	; (8002fbc <MX_USART2_UART_Init+0x58>)
 8002f96:	2200      	movs	r2, #0
 8002f98:	61da      	str	r2, [r3, #28]
  huart2.Init.OneBitSampling = UART_ONE_BIT_SAMPLE_DISABLE;
 8002f9a:	4b08      	ldr	r3, [pc, #32]	; (8002fbc <MX_USART2_UART_Init+0x58>)
 8002f9c:	2200      	movs	r2, #0
 8002f9e:	621a      	str	r2, [r3, #32]
  huart2.AdvancedInit.AdvFeatureInit = UART_ADVFEATURE_NO_INIT;
 8002fa0:	4b06      	ldr	r3, [pc, #24]	; (8002fbc <MX_USART2_UART_Init+0x58>)
 8002fa2:	2200      	movs	r2, #0
 8002fa4:	625a      	str	r2, [r3, #36]	; 0x24
  if (HAL_UART_Init(&huart2) != HAL_OK)
 8002fa6:	4805      	ldr	r0, [pc, #20]	; (8002fbc <MX_USART2_UART_Init+0x58>)
 8002fa8:	f004 fa12 	bl	80073d0 <HAL_UART_Init>
 8002fac:	4603      	mov	r3, r0
 8002fae:	2b00      	cmp	r3, #0
 8002fb0:	d001      	beq.n	8002fb6 <MX_USART2_UART_Init+0x52>
  {
    Error_Handler();
 8002fb2:	f7fe fe93 	bl	8001cdc <Error_Handler>
  }

}
 8002fb6:	bf00      	nop
 8002fb8:	bd80      	pop	{r7, pc}
 8002fba:	bf00      	nop
 8002fbc:	20001ccc 	.word	0x20001ccc
 8002fc0:	40004400 	.word	0x40004400

08002fc4 <HAL_UART_MspInit>:

void HAL_UART_MspInit(UART_HandleTypeDef* uartHandle)
{
 8002fc4:	b580      	push	{r7, lr}
 8002fc6:	b08a      	sub	sp, #40	; 0x28
 8002fc8:	af00      	add	r7, sp, #0
 8002fca:	6078      	str	r0, [r7, #4]

  GPIO_InitTypeDef GPIO_InitStruct = {0};
 8002fcc:	f107 0314 	add.w	r3, r7, #20
 8002fd0:	2200      	movs	r2, #0
 8002fd2:	601a      	str	r2, [r3, #0]
 8002fd4:	605a      	str	r2, [r3, #4]
 8002fd6:	609a      	str	r2, [r3, #8]
 8002fd8:	60da      	str	r2, [r3, #12]
 8002fda:	611a      	str	r2, [r3, #16]
  if(uartHandle->Instance==USART2)
 8002fdc:	687b      	ldr	r3, [r7, #4]
 8002fde:	681b      	ldr	r3, [r3, #0]
 8002fe0:	4a20      	ldr	r2, [pc, #128]	; (8003064 <HAL_UART_MspInit+0xa0>)
 8002fe2:	4293      	cmp	r3, r2
 8002fe4:	d13a      	bne.n	800305c <HAL_UART_MspInit+0x98>
  {
  /* USER CODE BEGIN USART2_MspInit 0 */

  /* USER CODE END USART2_MspInit 0 */
    /* USART2 clock enable */
    __HAL_RCC_USART2_CLK_ENABLE();
 8002fe6:	4b20      	ldr	r3, [pc, #128]	; (8003068 <HAL_UART_MspInit+0xa4>)
 8002fe8:	6d9b      	ldr	r3, [r3, #88]	; 0x58
 8002fea:	4a1f      	ldr	r2, [pc, #124]	; (8003068 <HAL_UART_MspInit+0xa4>)
 8002fec:	f443 3300 	orr.w	r3, r3, #131072	; 0x20000
 8002ff0:	6593      	str	r3, [r2, #88]	; 0x58
 8002ff2:	4b1d      	ldr	r3, [pc, #116]	; (8003068 <HAL_UART_MspInit+0xa4>)
 8002ff4:	6d9b      	ldr	r3, [r3, #88]	; 0x58
 8002ff6:	f403 3300 	and.w	r3, r3, #131072	; 0x20000
 8002ffa:	613b      	str	r3, [r7, #16]
 8002ffc:	693b      	ldr	r3, [r7, #16]

    __HAL_RCC_GPIOA_CLK_ENABLE();
 8002ffe:	4b1a      	ldr	r3, [pc, #104]	; (8003068 <HAL_UART_MspInit+0xa4>)
 8003000:	6cdb      	ldr	r3, [r3, #76]	; 0x4c
 8003002:	4a19      	ldr	r2, [pc, #100]	; (8003068 <HAL_UART_MspInit+0xa4>)
 8003004:	f043 0301 	orr.w	r3, r3, #1
 8003008:	64d3      	str	r3, [r2, #76]	; 0x4c
 800300a:	4b17      	ldr	r3, [pc, #92]	; (8003068 <HAL_UART_MspInit+0xa4>)
 800300c:	6cdb      	ldr	r3, [r3, #76]	; 0x4c
 800300e:	f003 0301 	and.w	r3, r3, #1
 8003012:	60fb      	str	r3, [r7, #12]
 8003014:	68fb      	ldr	r3, [r7, #12]
    /**USART2 GPIO Configuration
    PA2     ------> USART2_TX
    PA15 (JTDI)     ------> USART2_RX
    */
    GPIO_InitStruct.Pin = VCP_TX_Pin;
 8003016:	2304      	movs	r3, #4
 8003018:	617b      	str	r3, [r7, #20]
    GPIO_InitStruct.Mode = GPIO_MODE_AF_PP;
 800301a:	2302      	movs	r3, #2
 800301c:	61bb      	str	r3, [r7, #24]
    GPIO_InitStruct.Pull = GPIO_NOPULL;
 800301e:	2300      	movs	r3, #0
 8003020:	61fb      	str	r3, [r7, #28]
    GPIO_InitStruct.Speed = GPIO_SPEED_FREQ_VERY_HIGH;
 8003022:	2303      	movs	r3, #3
 8003024:	623b      	str	r3, [r7, #32]
    GPIO_InitStruct.Alternate = GPIO_AF7_USART2;
 8003026:	2307      	movs	r3, #7
 8003028:	627b      	str	r3, [r7, #36]	; 0x24
    HAL_GPIO_Init(VCP_TX_GPIO_Port, &GPIO_InitStruct);
 800302a:	f107 0314 	add.w	r3, r7, #20
 800302e:	4619      	mov	r1, r3
 8003030:	f04f 4090 	mov.w	r0, #1207959552	; 0x48000000
 8003034:	f001 feee 	bl	8004e14 <HAL_GPIO_Init>

    GPIO_InitStruct.Pin = VCP_RX_Pin;
 8003038:	f44f 4300 	mov.w	r3, #32768	; 0x8000
 800303c:	617b      	str	r3, [r7, #20]
    GPIO_InitStruct.Mode = GPIO_MODE_AF_PP;
 800303e:	2302      	movs	r3, #2
 8003040:	61bb      	str	r3, [r7, #24]
    GPIO_InitStruct.Pull = GPIO_NOPULL;
 8003042:	2300      	movs	r3, #0
 8003044:	61fb      	str	r3, [r7, #28]
    GPIO_InitStruct.Speed = GPIO_SPEED_FREQ_VERY_HIGH;
 8003046:	2303      	movs	r3, #3
 8003048:	623b      	str	r3, [r7, #32]
    GPIO_InitStruct.Alternate = GPIO_AF3_USART2;
 800304a:	2303      	movs	r3, #3
 800304c:	627b      	str	r3, [r7, #36]	; 0x24
    HAL_GPIO_Init(VCP_RX_GPIO_Port, &GPIO_InitStruct);
 800304e:	f107 0314 	add.w	r3, r7, #20
 8003052:	4619      	mov	r1, r3
 8003054:	f04f 4090 	mov.w	r0, #1207959552	; 0x48000000
 8003058:	f001 fedc 	bl	8004e14 <HAL_GPIO_Init>

  /* USER CODE BEGIN USART2_MspInit 1 */

  /* USER CODE END USART2_MspInit 1 */
  }
}
 800305c:	bf00      	nop
 800305e:	3728      	adds	r7, #40	; 0x28
 8003060:	46bd      	mov	sp, r7
 8003062:	bd80      	pop	{r7, pc}
 8003064:	40004400 	.word	0x40004400
 8003068:	40021000 	.word	0x40021000

0800306c <Reset_Handler>:

    .section	.text.Reset_Handler
	.weak	Reset_Handler
	.type	Reset_Handler, %function
Reset_Handler:
  ldr   sp, =_estack    /* Set stack pointer */
 800306c:	f8df d034 	ldr.w	sp, [pc, #52]	; 80030a4 <LoopForever+0x2>

/* Call the clock system initialization function.*/
    bl  SystemInit
 8003070:	f7ff fed6 	bl	8002e20 <SystemInit>

/* Copy the data segment initializers from flash to SRAM */
  movs	r1, #0
 8003074:	2100      	movs	r1, #0
  b	LoopCopyDataInit
 8003076:	e003      	b.n	8003080 <LoopCopyDataInit>

08003078 <CopyDataInit>:

CopyDataInit:
	ldr	r3, =_sidata
 8003078:	4b0b      	ldr	r3, [pc, #44]	; (80030a8 <LoopForever+0x6>)
	ldr	r3, [r3, r1]
 800307a:	585b      	ldr	r3, [r3, r1]
	str	r3, [r0, r1]
 800307c:	5043      	str	r3, [r0, r1]
	adds	r1, r1, #4
 800307e:	3104      	adds	r1, #4

08003080 <LoopCopyDataInit>:

LoopCopyDataInit:
	ldr	r0, =_sdata
 8003080:	480a      	ldr	r0, [pc, #40]	; (80030ac <LoopForever+0xa>)
	ldr	r3, =_edata
 8003082:	4b0b      	ldr	r3, [pc, #44]	; (80030b0 <LoopForever+0xe>)
	adds	r2, r0, r1
 8003084:	1842      	adds	r2, r0, r1
	cmp	r2, r3
 8003086:	429a      	cmp	r2, r3
	bcc	CopyDataInit
 8003088:	d3f6      	bcc.n	8003078 <CopyDataInit>
	ldr	r2, =_sbss
 800308a:	4a0a      	ldr	r2, [pc, #40]	; (80030b4 <LoopForever+0x12>)
	b	LoopFillZerobss
 800308c:	e002      	b.n	8003094 <LoopFillZerobss>

0800308e <FillZerobss>:
/* Zero fill the bss segment. */
FillZerobss:
	movs	r3, #0
 800308e:	2300      	movs	r3, #0
	str	r3, [r2], #4
 8003090:	f842 3b04 	str.w	r3, [r2], #4

08003094 <LoopFillZerobss>:

LoopFillZerobss:
	ldr	r3, = _ebss
 8003094:	4b08      	ldr	r3, [pc, #32]	; (80030b8 <LoopForever+0x16>)
	cmp	r2, r3
 8003096:	429a      	cmp	r2, r3
	bcc	FillZerobss
 8003098:	d3f9      	bcc.n	800308e <FillZerobss>

/* Call static constructors */
    bl __libc_init_array
 800309a:	f004 fdf3 	bl	8007c84 <__libc_init_array>
/* Call the application's entry point.*/
	bl	main
 800309e:	f7fe fd29 	bl	8001af4 <main>

080030a2 <LoopForever>:

LoopForever:
    b LoopForever
 80030a2:	e7fe      	b.n	80030a2 <LoopForever>
  ldr   sp, =_estack    /* Set stack pointer */
 80030a4:	20010000 	.word	0x20010000
	ldr	r3, =_sidata
 80030a8:	0800bb50 	.word	0x0800bb50
	ldr	r0, =_sdata
 80030ac:	20000000 	.word	0x20000000
	ldr	r3, =_edata
 80030b0:	200009b4 	.word	0x200009b4
	ldr	r2, =_sbss
 80030b4:	200009b4 	.word	0x200009b4
	ldr	r3, = _ebss
 80030b8:	20001d54 	.word	0x20001d54

080030bc <ADC1_IRQHandler>:
 * @retval : None
*/
    .section	.text.Default_Handler,"ax",%progbits
Default_Handler:
Infinite_Loop:
	b	Infinite_Loop
 80030bc:	e7fe      	b.n	80030bc <ADC1_IRQHandler>

080030be <HAL_Init>:
  *         each 1ms in the SysTick_Handler() interrupt handler.
  *
  * @retval HAL status
  */
HAL_StatusTypeDef HAL_Init(void)
{
 80030be:	b580      	push	{r7, lr}
 80030c0:	b082      	sub	sp, #8
 80030c2:	af00      	add	r7, sp, #0
  HAL_StatusTypeDef  status = HAL_OK;
 80030c4:	2300      	movs	r3, #0
 80030c6:	71fb      	strb	r3, [r7, #7]
#if (PREFETCH_ENABLE != 0)
  __HAL_FLASH_PREFETCH_BUFFER_ENABLE();
#endif /* PREFETCH_ENABLE */

  /* Set Interrupt Group Priority */
  HAL_NVIC_SetPriorityGrouping(NVIC_PRIORITYGROUP_4);
 80030c8:	2003      	movs	r0, #3
 80030ca:	f001 f9c7 	bl	800445c <HAL_NVIC_SetPriorityGrouping>

  /* Use SysTick as time base source and configure 1ms tick (default clock after Reset is MSI) */
  if (HAL_InitTick(TICK_INT_PRIORITY) != HAL_OK)
 80030ce:	2000      	movs	r0, #0
 80030d0:	f000 f80e 	bl	80030f0 <HAL_InitTick>
 80030d4:	4603      	mov	r3, r0
 80030d6:	2b00      	cmp	r3, #0
 80030d8:	d002      	beq.n	80030e0 <HAL_Init+0x22>
  {
    status = HAL_ERROR;
 80030da:	2301      	movs	r3, #1
 80030dc:	71fb      	strb	r3, [r7, #7]
 80030de:	e001      	b.n	80030e4 <HAL_Init+0x26>
  }
  else
  {
    /* Init the low level hardware */
    HAL_MspInit();
 80030e0:	f7ff fd58 	bl	8002b94 <HAL_MspInit>
  }

  /* Return function status */
  return status;
 80030e4:	79fb      	ldrb	r3, [r7, #7]
}
 80030e6:	4618      	mov	r0, r3
 80030e8:	3708      	adds	r7, #8
 80030ea:	46bd      	mov	sp, r7
 80030ec:	bd80      	pop	{r7, pc}
	...

080030f0 <HAL_InitTick>:
  *       implementation  in user file.
  * @param TickPriority  Tick interrupt priority.
  * @retval HAL status
  */
__weak HAL_StatusTypeDef HAL_InitTick(uint32_t TickPriority)
{
 80030f0:	b580      	push	{r7, lr}
 80030f2:	b084      	sub	sp, #16
 80030f4:	af00      	add	r7, sp, #0
 80030f6:	6078      	str	r0, [r7, #4]
  HAL_StatusTypeDef  status = HAL_OK;
 80030f8:	2300      	movs	r3, #0
 80030fa:	73fb      	strb	r3, [r7, #15]

  /* Check uwTickFreq for MisraC 2012 (even if uwTickFreq is a enum type that doesn't take the value zero)*/
  if ((uint32_t)uwTickFreq != 0U)
 80030fc:	4b17      	ldr	r3, [pc, #92]	; (800315c <HAL_InitTick+0x6c>)
 80030fe:	781b      	ldrb	r3, [r3, #0]
 8003100:	2b00      	cmp	r3, #0
 8003102:	d023      	beq.n	800314c <HAL_InitTick+0x5c>
  {
    /*Configure the SysTick to have interrupt in 1ms time basis*/
    if (HAL_SYSTICK_Config(SystemCoreClock / (1000U / (uint32_t)uwTickFreq)) == 0U)
 8003104:	4b16      	ldr	r3, [pc, #88]	; (8003160 <HAL_InitTick+0x70>)
 8003106:	681a      	ldr	r2, [r3, #0]
 8003108:	4b14      	ldr	r3, [pc, #80]	; (800315c <HAL_InitTick+0x6c>)
 800310a:	781b      	ldrb	r3, [r3, #0]
 800310c:	4619      	mov	r1, r3
 800310e:	f44f 737a 	mov.w	r3, #1000	; 0x3e8
 8003112:	fbb3 f3f1 	udiv	r3, r3, r1
 8003116:	fbb2 f3f3 	udiv	r3, r2, r3
 800311a:	4618      	mov	r0, r3
 800311c:	f001 f9d3 	bl	80044c6 <HAL_SYSTICK_Config>
 8003120:	4603      	mov	r3, r0
 8003122:	2b00      	cmp	r3, #0
 8003124:	d10f      	bne.n	8003146 <HAL_InitTick+0x56>
    {
      /* Configure the SysTick IRQ priority */
      if (TickPriority < (1UL << __NVIC_PRIO_BITS))
 8003126:	687b      	ldr	r3, [r7, #4]
 8003128:	2b0f      	cmp	r3, #15
 800312a:	d809      	bhi.n	8003140 <HAL_InitTick+0x50>
      {
        HAL_NVIC_SetPriority(SysTick_IRQn, TickPriority, 0U);
 800312c:	2200      	movs	r2, #0
 800312e:	6879      	ldr	r1, [r7, #4]
 8003130:	f04f 30ff 	mov.w	r0, #4294967295	; 0xffffffff
 8003134:	f001 f99d 	bl	8004472 <HAL_NVIC_SetPriority>
        uwTickPrio = TickPriority;
 8003138:	4a0a      	ldr	r2, [pc, #40]	; (8003164 <HAL_InitTick+0x74>)
 800313a:	687b      	ldr	r3, [r7, #4]
 800313c:	6013      	str	r3, [r2, #0]
 800313e:	e007      	b.n	8003150 <HAL_InitTick+0x60>
      }
      else
      {
        status = HAL_ERROR;
 8003140:	2301      	movs	r3, #1
 8003142:	73fb      	strb	r3, [r7, #15]
 8003144:	e004      	b.n	8003150 <HAL_InitTick+0x60>
      }
    }
    else
    {
      status = HAL_ERROR;
 8003146:	2301      	movs	r3, #1
 8003148:	73fb      	strb	r3, [r7, #15]
 800314a:	e001      	b.n	8003150 <HAL_InitTick+0x60>
    }
  }
  else
  {
    status = HAL_ERROR;
 800314c:	2301      	movs	r3, #1
 800314e:	73fb      	strb	r3, [r7, #15]
  }

  /* Return function status */
  return status;
 8003150:	7bfb      	ldrb	r3, [r7, #15]
}
 8003152:	4618      	mov	r0, r3
 8003154:	3710      	adds	r7, #16
 8003156:	46bd      	mov	sp, r7
 8003158:	bd80      	pop	{r7, pc}
 800315a:	bf00      	nop
 800315c:	200007e0 	.word	0x200007e0
 8003160:	200007d8 	.word	0x200007d8
 8003164:	200007dc 	.word	0x200007dc

08003168 <HAL_IncTick>:
 * @note This function is declared as __weak to be overwritten in case of other
  *      implementations in user file.
  * @retval None
  */
__weak void HAL_IncTick(void)
{
 8003168:	b480      	push	{r7}
 800316a:	af00      	add	r7, sp, #0
  uwTick += (uint32_t)uwTickFreq;
 800316c:	4b06      	ldr	r3, [pc, #24]	; (8003188 <HAL_IncTick+0x20>)
 800316e:	781b      	ldrb	r3, [r3, #0]
 8003170:	461a      	mov	r2, r3
 8003172:	4b06      	ldr	r3, [pc, #24]	; (800318c <HAL_IncTick+0x24>)
 8003174:	681b      	ldr	r3, [r3, #0]
 8003176:	4413      	add	r3, r2
 8003178:	4a04      	ldr	r2, [pc, #16]	; (800318c <HAL_IncTick+0x24>)
 800317a:	6013      	str	r3, [r2, #0]
}
 800317c:	bf00      	nop
 800317e:	46bd      	mov	sp, r7
 8003180:	f85d 7b04 	ldr.w	r7, [sp], #4
 8003184:	4770      	bx	lr
 8003186:	bf00      	nop
 8003188:	200007e0 	.word	0x200007e0
 800318c:	20001d4c 	.word	0x20001d4c

08003190 <HAL_GetTick>:
  * @note This function is declared as __weak to be overwritten in case of other
  *       implementations in user file.
  * @retval tick value
  */
__weak uint32_t HAL_GetTick(void)
{
 8003190:	b480      	push	{r7}
 8003192:	af00      	add	r7, sp, #0
  return uwTick;
 8003194:	4b03      	ldr	r3, [pc, #12]	; (80031a4 <HAL_GetTick+0x14>)
 8003196:	681b      	ldr	r3, [r3, #0]
}
 8003198:	4618      	mov	r0, r3
 800319a:	46bd      	mov	sp, r7
 800319c:	f85d 7b04 	ldr.w	r7, [sp], #4
 80031a0:	4770      	bx	lr
 80031a2:	bf00      	nop
 80031a4:	20001d4c 	.word	0x20001d4c

080031a8 <HAL_Delay>:
  *       implementations in user file.
  * @param Delay  specifies the delay time length, in milliseconds.
  * @retval None
  */
__weak void HAL_Delay(uint32_t Delay)
{
 80031a8:	b580      	push	{r7, lr}
 80031aa:	b084      	sub	sp, #16
 80031ac:	af00      	add	r7, sp, #0
 80031ae:	6078      	str	r0, [r7, #4]
  uint32_t tickstart = HAL_GetTick();
 80031b0:	f7ff ffee 	bl	8003190 <HAL_GetTick>
 80031b4:	60b8      	str	r0, [r7, #8]
  uint32_t wait = Delay;
 80031b6:	687b      	ldr	r3, [r7, #4]
 80031b8:	60fb      	str	r3, [r7, #12]

  /* Add a period to guaranty minimum wait */
  if (wait < HAL_MAX_DELAY)
 80031ba:	68fb      	ldr	r3, [r7, #12]
 80031bc:	f1b3 3fff 	cmp.w	r3, #4294967295	; 0xffffffff
 80031c0:	d005      	beq.n	80031ce <HAL_Delay+0x26>
  {
    wait += (uint32_t)uwTickFreq;
 80031c2:	4b09      	ldr	r3, [pc, #36]	; (80031e8 <HAL_Delay+0x40>)
 80031c4:	781b      	ldrb	r3, [r3, #0]
 80031c6:	461a      	mov	r2, r3
 80031c8:	68fb      	ldr	r3, [r7, #12]
 80031ca:	4413      	add	r3, r2
 80031cc:	60fb      	str	r3, [r7, #12]
  }

  while ((HAL_GetTick() - tickstart) < wait)
 80031ce:	bf00      	nop
 80031d0:	f7ff ffde 	bl	8003190 <HAL_GetTick>
 80031d4:	4602      	mov	r2, r0
 80031d6:	68bb      	ldr	r3, [r7, #8]
 80031d8:	1ad3      	subs	r3, r2, r3
 80031da:	68fa      	ldr	r2, [r7, #12]
 80031dc:	429a      	cmp	r2, r3
 80031de:	d8f7      	bhi.n	80031d0 <HAL_Delay+0x28>
  {
  }
}
 80031e0:	bf00      	nop
 80031e2:	3710      	adds	r7, #16
 80031e4:	46bd      	mov	sp, r7
 80031e6:	bd80      	pop	{r7, pc}
 80031e8:	200007e0 	.word	0x200007e0

080031ec <LL_ADC_SetCommonClock>:
  *         @arg @ref LL_ADC_CLOCK_ASYNC_DIV128
  *         @arg @ref LL_ADC_CLOCK_ASYNC_DIV256
  * @retval None
  */
__STATIC_INLINE void LL_ADC_SetCommonClock(ADC_Common_TypeDef *ADCxy_COMMON, uint32_t CommonClock)
{
 80031ec:	b480      	push	{r7}
 80031ee:	b083      	sub	sp, #12
 80031f0:	af00      	add	r7, sp, #0
 80031f2:	6078      	str	r0, [r7, #4]
 80031f4:	6039      	str	r1, [r7, #0]
  MODIFY_REG(ADCxy_COMMON->CCR, ADC_CCR_CKMODE | ADC_CCR_PRESC, CommonClock);
 80031f6:	687b      	ldr	r3, [r7, #4]
 80031f8:	689b      	ldr	r3, [r3, #8]
 80031fa:	f423 127c 	bic.w	r2, r3, #4128768	; 0x3f0000
 80031fe:	683b      	ldr	r3, [r7, #0]
 8003200:	431a      	orrs	r2, r3
 8003202:	687b      	ldr	r3, [r7, #4]
 8003204:	609a      	str	r2, [r3, #8]
}
 8003206:	bf00      	nop
 8003208:	370c      	adds	r7, #12
 800320a:	46bd      	mov	sp, r7
 800320c:	f85d 7b04 	ldr.w	r7, [sp], #4
 8003210:	4770      	bx	lr

08003212 <LL_ADC_SetCommonPathInternalCh>:
  *         @arg @ref LL_ADC_PATH_INTERNAL_TEMPSENSOR
  *         @arg @ref LL_ADC_PATH_INTERNAL_VBAT
  * @retval None
  */
__STATIC_INLINE void LL_ADC_SetCommonPathInternalCh(ADC_Common_TypeDef *ADCxy_COMMON, uint32_t PathInternal)
{
 8003212:	b480      	push	{r7}
 8003214:	b083      	sub	sp, #12
 8003216:	af00      	add	r7, sp, #0
 8003218:	6078      	str	r0, [r7, #4]
 800321a:	6039      	str	r1, [r7, #0]
  MODIFY_REG(ADCxy_COMMON->CCR, ADC_CCR_VREFEN | ADC_CCR_TSEN | ADC_CCR_VBATEN, PathInternal);
 800321c:	687b      	ldr	r3, [r7, #4]
 800321e:	689b      	ldr	r3, [r3, #8]
 8003220:	f023 72e0 	bic.w	r2, r3, #29360128	; 0x1c00000
 8003224:	683b      	ldr	r3, [r7, #0]
 8003226:	431a      	orrs	r2, r3
 8003228:	687b      	ldr	r3, [r7, #4]
 800322a:	609a      	str	r2, [r3, #8]
}
 800322c:	bf00      	nop
 800322e:	370c      	adds	r7, #12
 8003230:	46bd      	mov	sp, r7
 8003232:	f85d 7b04 	ldr.w	r7, [sp], #4
 8003236:	4770      	bx	lr

08003238 <LL_ADC_GetCommonPathInternalCh>:
  *         @arg @ref LL_ADC_PATH_INTERNAL_VREFINT
  *         @arg @ref LL_ADC_PATH_INTERNAL_TEMPSENSOR
  *         @arg @ref LL_ADC_PATH_INTERNAL_VBAT
  */
__STATIC_INLINE uint32_t LL_ADC_GetCommonPathInternalCh(ADC_Common_TypeDef *ADCxy_COMMON)
{
 8003238:	b480      	push	{r7}
 800323a:	b083      	sub	sp, #12
 800323c:	af00      	add	r7, sp, #0
 800323e:	6078      	str	r0, [r7, #4]
  return (uint32_t)(READ_BIT(ADCxy_COMMON->CCR, ADC_CCR_VREFEN | ADC_CCR_TSEN | ADC_CCR_VBATEN));
 8003240:	687b      	ldr	r3, [r7, #4]
 8003242:	689b      	ldr	r3, [r3, #8]
 8003244:	f003 73e0 	and.w	r3, r3, #29360128	; 0x1c00000
}
 8003248:	4618      	mov	r0, r3
 800324a:	370c      	adds	r7, #12
 800324c:	46bd      	mov	sp, r7
 800324e:	f85d 7b04 	ldr.w	r7, [sp], #4
 8003252:	4770      	bx	lr

08003254 <LL_ADC_SetOffset>:
  *             Other channels are slow channels (0.238 us for 12-bit resolution (ADC conversion rate up to 4.21 Ms/s)).
  * @param  OffsetLevel Value between Min_Data=0x000 and Max_Data=0xFFF
  * @retval None
  */
__STATIC_INLINE void LL_ADC_SetOffset(ADC_TypeDef *ADCx, uint32_t Offsety, uint32_t Channel, uint32_t OffsetLevel)
{
 8003254:	b480      	push	{r7}
 8003256:	b087      	sub	sp, #28
 8003258:	af00      	add	r7, sp, #0
 800325a:	60f8      	str	r0, [r7, #12]
 800325c:	60b9      	str	r1, [r7, #8]
 800325e:	607a      	str	r2, [r7, #4]
 8003260:	603b      	str	r3, [r7, #0]
  __IO uint32_t *preg = __ADC_PTR_REG_OFFSET(ADCx->OFR1, Offsety);
 8003262:	68fb      	ldr	r3, [r7, #12]
 8003264:	3360      	adds	r3, #96	; 0x60
 8003266:	461a      	mov	r2, r3
 8003268:	68bb      	ldr	r3, [r7, #8]
 800326a:	009b      	lsls	r3, r3, #2
 800326c:	4413      	add	r3, r2
 800326e:	617b      	str	r3, [r7, #20]

  MODIFY_REG(*preg,
 8003270:	697b      	ldr	r3, [r7, #20]
 8003272:	681a      	ldr	r2, [r3, #0]
 8003274:	4b08      	ldr	r3, [pc, #32]	; (8003298 <LL_ADC_SetOffset+0x44>)
 8003276:	4013      	ands	r3, r2
 8003278:	687a      	ldr	r2, [r7, #4]
 800327a:	f002 41f8 	and.w	r1, r2, #2080374784	; 0x7c000000
 800327e:	683a      	ldr	r2, [r7, #0]
 8003280:	430a      	orrs	r2, r1
 8003282:	4313      	orrs	r3, r2
 8003284:	f043 4200 	orr.w	r2, r3, #2147483648	; 0x80000000
 8003288:	697b      	ldr	r3, [r7, #20]
 800328a:	601a      	str	r2, [r3, #0]
             ADC_OFR1_OFFSET1_EN | ADC_OFR1_OFFSET1_CH | ADC_OFR1_OFFSET1,
             ADC_OFR1_OFFSET1_EN | (Channel & ADC_CHANNEL_ID_NUMBER_MASK) | OffsetLevel);
}
 800328c:	bf00      	nop
 800328e:	371c      	adds	r7, #28
 8003290:	46bd      	mov	sp, r7
 8003292:	f85d 7b04 	ldr.w	r7, [sp], #4
 8003296:	4770      	bx	lr
 8003298:	03fff000 	.word	0x03fff000

0800329c <LL_ADC_GetOffsetChannel>:
  *         (1, 2, 3, 4) For ADC channel read back from ADC register,
  *                      comparison with internal channel parameter to be done
  *                      using helper macro @ref __LL_ADC_CHANNEL_INTERNAL_TO_EXTERNAL().
  */
__STATIC_INLINE uint32_t LL_ADC_GetOffsetChannel(ADC_TypeDef *ADCx, uint32_t Offsety)
{
 800329c:	b480      	push	{r7}
 800329e:	b085      	sub	sp, #20
 80032a0:	af00      	add	r7, sp, #0
 80032a2:	6078      	str	r0, [r7, #4]
 80032a4:	6039      	str	r1, [r7, #0]
  const __IO uint32_t *preg = __ADC_PTR_REG_OFFSET(ADCx->OFR1, Offsety);
 80032a6:	687b      	ldr	r3, [r7, #4]
 80032a8:	3360      	adds	r3, #96	; 0x60
 80032aa:	461a      	mov	r2, r3
 80032ac:	683b      	ldr	r3, [r7, #0]
 80032ae:	009b      	lsls	r3, r3, #2
 80032b0:	4413      	add	r3, r2
 80032b2:	60fb      	str	r3, [r7, #12]

  return (uint32_t) READ_BIT(*preg, ADC_OFR1_OFFSET1_CH);
 80032b4:	68fb      	ldr	r3, [r7, #12]
 80032b6:	681b      	ldr	r3, [r3, #0]
 80032b8:	f003 43f8 	and.w	r3, r3, #2080374784	; 0x7c000000
}
 80032bc:	4618      	mov	r0, r3
 80032be:	3714      	adds	r7, #20
 80032c0:	46bd      	mov	sp, r7
 80032c2:	f85d 7b04 	ldr.w	r7, [sp], #4
 80032c6:	4770      	bx	lr

080032c8 <LL_ADC_SetOffsetState>:
  *         @arg @ref LL_ADC_OFFSET_DISABLE
  *         @arg @ref LL_ADC_OFFSET_ENABLE
  * @retval None
  */
__STATIC_INLINE void LL_ADC_SetOffsetState(ADC_TypeDef *ADCx, uint32_t Offsety, uint32_t OffsetState)
{
 80032c8:	b480      	push	{r7}
 80032ca:	b087      	sub	sp, #28
 80032cc:	af00      	add	r7, sp, #0
 80032ce:	60f8      	str	r0, [r7, #12]
 80032d0:	60b9      	str	r1, [r7, #8]
 80032d2:	607a      	str	r2, [r7, #4]
  __IO uint32_t *preg = __ADC_PTR_REG_OFFSET(ADCx->OFR1, Offsety);
 80032d4:	68fb      	ldr	r3, [r7, #12]
 80032d6:	3360      	adds	r3, #96	; 0x60
 80032d8:	461a      	mov	r2, r3
 80032da:	68bb      	ldr	r3, [r7, #8]
 80032dc:	009b      	lsls	r3, r3, #2
 80032de:	4413      	add	r3, r2
 80032e0:	617b      	str	r3, [r7, #20]

  MODIFY_REG(*preg,
 80032e2:	697b      	ldr	r3, [r7, #20]
 80032e4:	681b      	ldr	r3, [r3, #0]
 80032e6:	f023 4200 	bic.w	r2, r3, #2147483648	; 0x80000000
 80032ea:	687b      	ldr	r3, [r7, #4]
 80032ec:	431a      	orrs	r2, r3
 80032ee:	697b      	ldr	r3, [r7, #20]
 80032f0:	601a      	str	r2, [r3, #0]
             ADC_OFR1_OFFSET1_EN,
             OffsetState);
}
 80032f2:	bf00      	nop
 80032f4:	371c      	adds	r7, #28
 80032f6:	46bd      	mov	sp, r7
 80032f8:	f85d 7b04 	ldr.w	r7, [sp], #4
 80032fc:	4770      	bx	lr

080032fe <LL_ADC_REG_IsTriggerSourceSWStart>:
  * @param  ADCx ADC instance
  * @retval Value "0" if trigger source external trigger
  *         Value "1" if trigger source SW start.
  */
__STATIC_INLINE uint32_t LL_ADC_REG_IsTriggerSourceSWStart(ADC_TypeDef *ADCx)
{
 80032fe:	b480      	push	{r7}
 8003300:	b083      	sub	sp, #12
 8003302:	af00      	add	r7, sp, #0
 8003304:	6078      	str	r0, [r7, #4]
  return ((READ_BIT(ADCx->CFGR, ADC_CFGR_EXTEN) == (LL_ADC_REG_TRIG_SOFTWARE & ADC_CFGR_EXTEN)) ? 1UL : 0UL);
 8003306:	687b      	ldr	r3, [r7, #4]
 8003308:	68db      	ldr	r3, [r3, #12]
 800330a:	f403 6340 	and.w	r3, r3, #3072	; 0xc00
 800330e:	2b00      	cmp	r3, #0
 8003310:	d101      	bne.n	8003316 <LL_ADC_REG_IsTriggerSourceSWStart+0x18>
 8003312:	2301      	movs	r3, #1
 8003314:	e000      	b.n	8003318 <LL_ADC_REG_IsTriggerSourceSWStart+0x1a>
 8003316:	2300      	movs	r3, #0
}
 8003318:	4618      	mov	r0, r3
 800331a:	370c      	adds	r7, #12
 800331c:	46bd      	mov	sp, r7
 800331e:	f85d 7b04 	ldr.w	r7, [sp], #4
 8003322:	4770      	bx	lr

08003324 <LL_ADC_REG_SetSequencerRanks>:
  *         (7) On STM32L4, fast channel (0.188 us for 12-bit resolution (ADC conversion rate up to 5.33 Ms/s)).
  *             Other channels are slow channels (0.238 us for 12-bit resolution (ADC conversion rate up to 4.21 Ms/s)).
  * @retval None
  */
__STATIC_INLINE void LL_ADC_REG_SetSequencerRanks(ADC_TypeDef *ADCx, uint32_t Rank, uint32_t Channel)
{
 8003324:	b480      	push	{r7}
 8003326:	b087      	sub	sp, #28
 8003328:	af00      	add	r7, sp, #0
 800332a:	60f8      	str	r0, [r7, #12]
 800332c:	60b9      	str	r1, [r7, #8]
 800332e:	607a      	str	r2, [r7, #4]
  /* Set bits with content of parameter "Channel" with bits position          */
  /* in register and register position depending on parameter "Rank".         */
  /* Parameters "Rank" and "Channel" are used with masks because containing   */
  /* other bits reserved for other purpose.                                   */
  __IO uint32_t *preg = __ADC_PTR_REG_OFFSET(ADCx->SQR1, ((Rank & ADC_REG_SQRX_REGOFFSET_MASK) >> ADC_SQRX_REGOFFSET_POS));
 8003330:	68fb      	ldr	r3, [r7, #12]
 8003332:	3330      	adds	r3, #48	; 0x30
 8003334:	461a      	mov	r2, r3
 8003336:	68bb      	ldr	r3, [r7, #8]
 8003338:	0a1b      	lsrs	r3, r3, #8
 800333a:	009b      	lsls	r3, r3, #2
 800333c:	f003 030c 	and.w	r3, r3, #12
 8003340:	4413      	add	r3, r2
 8003342:	617b      	str	r3, [r7, #20]

  MODIFY_REG(*preg,
 8003344:	697b      	ldr	r3, [r7, #20]
 8003346:	681a      	ldr	r2, [r3, #0]
 8003348:	68bb      	ldr	r3, [r7, #8]
 800334a:	f003 031f 	and.w	r3, r3, #31
 800334e:	211f      	movs	r1, #31
 8003350:	fa01 f303 	lsl.w	r3, r1, r3
 8003354:	43db      	mvns	r3, r3
 8003356:	401a      	ands	r2, r3
 8003358:	687b      	ldr	r3, [r7, #4]
 800335a:	0e9b      	lsrs	r3, r3, #26
 800335c:	f003 011f 	and.w	r1, r3, #31
 8003360:	68bb      	ldr	r3, [r7, #8]
 8003362:	f003 031f 	and.w	r3, r3, #31
 8003366:	fa01 f303 	lsl.w	r3, r1, r3
 800336a:	431a      	orrs	r2, r3
 800336c:	697b      	ldr	r3, [r7, #20]
 800336e:	601a      	str	r2, [r3, #0]
             ADC_CHANNEL_ID_NUMBER_MASK_POSBIT0 << (Rank & ADC_REG_RANK_ID_SQRX_MASK),
             ((Channel & ADC_CHANNEL_ID_NUMBER_MASK) >> ADC_CHANNEL_ID_NUMBER_BITOFFSET_POS) << (Rank & ADC_REG_RANK_ID_SQRX_MASK));
}
 8003370:	bf00      	nop
 8003372:	371c      	adds	r7, #28
 8003374:	46bd      	mov	sp, r7
 8003376:	f85d 7b04 	ldr.w	r7, [sp], #4
 800337a:	4770      	bx	lr

0800337c <LL_ADC_SetChannelSamplingTime>:
  *             can be replaced by 3.5 ADC clock cycles.
  *             Refer to function @ref LL_ADC_SetSamplingTimeCommonConfig().
  * @retval None
  */
__STATIC_INLINE void LL_ADC_SetChannelSamplingTime(ADC_TypeDef *ADCx, uint32_t Channel, uint32_t SamplingTime)
{
 800337c:	b480      	push	{r7}
 800337e:	b087      	sub	sp, #28
 8003380:	af00      	add	r7, sp, #0
 8003382:	60f8      	str	r0, [r7, #12]
 8003384:	60b9      	str	r1, [r7, #8]
 8003386:	607a      	str	r2, [r7, #4]
  /* Set bits with content of parameter "SamplingTime" with bits position     */
  /* in register and register position depending on parameter "Channel".      */
  /* Parameter "Channel" is used with masks because containing                */
  /* other bits reserved for other purpose.                                   */
  __IO uint32_t *preg = __ADC_PTR_REG_OFFSET(ADCx->SMPR1, ((Channel & ADC_CHANNEL_SMPRX_REGOFFSET_MASK) >> ADC_SMPRX_REGOFFSET_POS));
 8003388:	68fb      	ldr	r3, [r7, #12]
 800338a:	3314      	adds	r3, #20
 800338c:	461a      	mov	r2, r3
 800338e:	68bb      	ldr	r3, [r7, #8]
 8003390:	0e5b      	lsrs	r3, r3, #25
 8003392:	009b      	lsls	r3, r3, #2
 8003394:	f003 0304 	and.w	r3, r3, #4
 8003398:	4413      	add	r3, r2
 800339a:	617b      	str	r3, [r7, #20]

  MODIFY_REG(*preg,
 800339c:	697b      	ldr	r3, [r7, #20]
 800339e:	681a      	ldr	r2, [r3, #0]
 80033a0:	68bb      	ldr	r3, [r7, #8]
 80033a2:	0d1b      	lsrs	r3, r3, #20
 80033a4:	f003 031f 	and.w	r3, r3, #31
 80033a8:	2107      	movs	r1, #7
 80033aa:	fa01 f303 	lsl.w	r3, r1, r3
 80033ae:	43db      	mvns	r3, r3
 80033b0:	401a      	ands	r2, r3
 80033b2:	68bb      	ldr	r3, [r7, #8]
 80033b4:	0d1b      	lsrs	r3, r3, #20
 80033b6:	f003 031f 	and.w	r3, r3, #31
 80033ba:	6879      	ldr	r1, [r7, #4]
 80033bc:	fa01 f303 	lsl.w	r3, r1, r3
 80033c0:	431a      	orrs	r2, r3
 80033c2:	697b      	ldr	r3, [r7, #20]
 80033c4:	601a      	str	r2, [r3, #0]
             ADC_SMPR1_SMP0 << ((Channel & ADC_CHANNEL_SMPx_BITOFFSET_MASK) >> ADC_CHANNEL_SMPx_BITOFFSET_POS),
             SamplingTime   << ((Channel & ADC_CHANNEL_SMPx_BITOFFSET_MASK) >> ADC_CHANNEL_SMPx_BITOFFSET_POS));
}
 80033c6:	bf00      	nop
 80033c8:	371c      	adds	r7, #28
 80033ca:	46bd      	mov	sp, r7
 80033cc:	f85d 7b04 	ldr.w	r7, [sp], #4
 80033d0:	4770      	bx	lr
	...

080033d4 <LL_ADC_SetChannelSingleDiff>:
  *         @arg @ref LL_ADC_SINGLE_ENDED
  *         @arg @ref LL_ADC_DIFFERENTIAL_ENDED
  * @retval None
  */
__STATIC_INLINE void LL_ADC_SetChannelSingleDiff(ADC_TypeDef *ADCx, uint32_t Channel, uint32_t SingleDiff)
{
 80033d4:	b480      	push	{r7}
 80033d6:	b085      	sub	sp, #20
 80033d8:	af00      	add	r7, sp, #0
 80033da:	60f8      	str	r0, [r7, #12]
 80033dc:	60b9      	str	r1, [r7, #8]
 80033de:	607a      	str	r2, [r7, #4]
  /* Bits of channels in single or differential mode are set only for         */
  /* differential mode (for single mode, mask of bits allowed to be set is    */
  /* shifted out of range of bits of channels in single or differential mode. */
  MODIFY_REG(ADCx->DIFSEL,
 80033e0:	68fb      	ldr	r3, [r7, #12]
 80033e2:	f8d3 20b0 	ldr.w	r2, [r3, #176]	; 0xb0
 80033e6:	68bb      	ldr	r3, [r7, #8]
 80033e8:	f3c3 0312 	ubfx	r3, r3, #0, #19
 80033ec:	43db      	mvns	r3, r3
 80033ee:	401a      	ands	r2, r3
 80033f0:	687b      	ldr	r3, [r7, #4]
 80033f2:	f003 0318 	and.w	r3, r3, #24
 80033f6:	4908      	ldr	r1, [pc, #32]	; (8003418 <LL_ADC_SetChannelSingleDiff+0x44>)
 80033f8:	40d9      	lsrs	r1, r3
 80033fa:	68bb      	ldr	r3, [r7, #8]
 80033fc:	400b      	ands	r3, r1
 80033fe:	f3c3 0312 	ubfx	r3, r3, #0, #19
 8003402:	431a      	orrs	r2, r3
 8003404:	68fb      	ldr	r3, [r7, #12]
 8003406:	f8c3 20b0 	str.w	r2, [r3, #176]	; 0xb0
             Channel & ADC_SINGLEDIFF_CHANNEL_MASK,
             (Channel & ADC_SINGLEDIFF_CHANNEL_MASK) & (ADC_DIFSEL_DIFSEL >> (SingleDiff & ADC_SINGLEDIFF_CHANNEL_SHIFT_MASK)));
}
 800340a:	bf00      	nop
 800340c:	3714      	adds	r7, #20
 800340e:	46bd      	mov	sp, r7
 8003410:	f85d 7b04 	ldr.w	r7, [sp], #4
 8003414:	4770      	bx	lr
 8003416:	bf00      	nop
 8003418:	0007ffff 	.word	0x0007ffff

0800341c <LL_ADC_DisableDeepPowerDown>:
  * @rmtoll CR       DEEPPWD        LL_ADC_DisableDeepPowerDown
  * @param  ADCx ADC instance
  * @retval None
  */
__STATIC_INLINE void LL_ADC_DisableDeepPowerDown(ADC_TypeDef *ADCx)
{
 800341c:	b480      	push	{r7}
 800341e:	b083      	sub	sp, #12
 8003420:	af00      	add	r7, sp, #0
 8003422:	6078      	str	r0, [r7, #4]
  /* Note: Write register with some additional bits forced to state reset     */
  /*       instead of modifying only the selected bit for this function,      */
  /*       to not interfere with bits with HW property "rs".                  */
  CLEAR_BIT(ADCx->CR, (ADC_CR_DEEPPWD | ADC_CR_BITS_PROPERTY_RS));
 8003424:	687b      	ldr	r3, [r7, #4]
 8003426:	689b      	ldr	r3, [r3, #8]
 8003428:	f023 4320 	bic.w	r3, r3, #2684354560	; 0xa0000000
 800342c:	f023 033f 	bic.w	r3, r3, #63	; 0x3f
 8003430:	687a      	ldr	r2, [r7, #4]
 8003432:	6093      	str	r3, [r2, #8]
}
 8003434:	bf00      	nop
 8003436:	370c      	adds	r7, #12
 8003438:	46bd      	mov	sp, r7
 800343a:	f85d 7b04 	ldr.w	r7, [sp], #4
 800343e:	4770      	bx	lr

08003440 <LL_ADC_IsDeepPowerDownEnabled>:
  * @rmtoll CR       DEEPPWD        LL_ADC_IsDeepPowerDownEnabled
  * @param  ADCx ADC instance
  * @retval 0: deep power down is disabled, 1: deep power down is enabled.
  */
__STATIC_INLINE uint32_t LL_ADC_IsDeepPowerDownEnabled(ADC_TypeDef *ADCx)
{
 8003440:	b480      	push	{r7}
 8003442:	b083      	sub	sp, #12
 8003444:	af00      	add	r7, sp, #0
 8003446:	6078      	str	r0, [r7, #4]
  return ((READ_BIT(ADCx->CR, ADC_CR_DEEPPWD) == (ADC_CR_DEEPPWD)) ? 1UL : 0UL);
 8003448:	687b      	ldr	r3, [r7, #4]
 800344a:	689b      	ldr	r3, [r3, #8]
 800344c:	f003 5300 	and.w	r3, r3, #536870912	; 0x20000000
 8003450:	f1b3 5f00 	cmp.w	r3, #536870912	; 0x20000000
 8003454:	d101      	bne.n	800345a <LL_ADC_IsDeepPowerDownEnabled+0x1a>
 8003456:	2301      	movs	r3, #1
 8003458:	e000      	b.n	800345c <LL_ADC_IsDeepPowerDownEnabled+0x1c>
 800345a:	2300      	movs	r3, #0
}
 800345c:	4618      	mov	r0, r3
 800345e:	370c      	adds	r7, #12
 8003460:	46bd      	mov	sp, r7
 8003462:	f85d 7b04 	ldr.w	r7, [sp], #4
 8003466:	4770      	bx	lr

08003468 <LL_ADC_EnableInternalRegulator>:
  * @rmtoll CR       ADVREGEN       LL_ADC_EnableInternalRegulator
  * @param  ADCx ADC instance
  * @retval None
  */
__STATIC_INLINE void LL_ADC_EnableInternalRegulator(ADC_TypeDef *ADCx)
{
 8003468:	b480      	push	{r7}
 800346a:	b083      	sub	sp, #12
 800346c:	af00      	add	r7, sp, #0
 800346e:	6078      	str	r0, [r7, #4]
  /* Note: Write register with some additional bits forced to state reset     */
  /*       instead of modifying only the selected bit for this function,      */
  /*       to not interfere with bits with HW property "rs".                  */
  MODIFY_REG(ADCx->CR,
 8003470:	687b      	ldr	r3, [r7, #4]
 8003472:	689b      	ldr	r3, [r3, #8]
 8003474:	f023 4310 	bic.w	r3, r3, #2415919104	; 0x90000000
 8003478:	f023 033f 	bic.w	r3, r3, #63	; 0x3f
 800347c:	f043 5280 	orr.w	r2, r3, #268435456	; 0x10000000
 8003480:	687b      	ldr	r3, [r7, #4]
 8003482:	609a      	str	r2, [r3, #8]
             ADC_CR_BITS_PROPERTY_RS,
             ADC_CR_ADVREGEN);
}
 8003484:	bf00      	nop
 8003486:	370c      	adds	r7, #12
 8003488:	46bd      	mov	sp, r7
 800348a:	f85d 7b04 	ldr.w	r7, [sp], #4
 800348e:	4770      	bx	lr

08003490 <LL_ADC_IsInternalRegulatorEnabled>:
  * @rmtoll CR       ADVREGEN       LL_ADC_IsInternalRegulatorEnabled
  * @param  ADCx ADC instance
  * @retval 0: internal regulator is disabled, 1: internal regulator is enabled.
  */
__STATIC_INLINE uint32_t LL_ADC_IsInternalRegulatorEnabled(ADC_TypeDef *ADCx)
{
 8003490:	b480      	push	{r7}
 8003492:	b083      	sub	sp, #12
 8003494:	af00      	add	r7, sp, #0
 8003496:	6078      	str	r0, [r7, #4]
  return ((READ_BIT(ADCx->CR, ADC_CR_ADVREGEN) == (ADC_CR_ADVREGEN)) ? 1UL : 0UL);
 8003498:	687b      	ldr	r3, [r7, #4]
 800349a:	689b      	ldr	r3, [r3, #8]
 800349c:	f003 5380 	and.w	r3, r3, #268435456	; 0x10000000
 80034a0:	f1b3 5f80 	cmp.w	r3, #268435456	; 0x10000000
 80034a4:	d101      	bne.n	80034aa <LL_ADC_IsInternalRegulatorEnabled+0x1a>
 80034a6:	2301      	movs	r3, #1
 80034a8:	e000      	b.n	80034ac <LL_ADC_IsInternalRegulatorEnabled+0x1c>
 80034aa:	2300      	movs	r3, #0
}
 80034ac:	4618      	mov	r0, r3
 80034ae:	370c      	adds	r7, #12
 80034b0:	46bd      	mov	sp, r7
 80034b2:	f85d 7b04 	ldr.w	r7, [sp], #4
 80034b6:	4770      	bx	lr

080034b8 <LL_ADC_Enable>:
  * @rmtoll CR       ADEN           LL_ADC_Enable
  * @param  ADCx ADC instance
  * @retval None
  */
__STATIC_INLINE void LL_ADC_Enable(ADC_TypeDef *ADCx)
{
 80034b8:	b480      	push	{r7}
 80034ba:	b083      	sub	sp, #12
 80034bc:	af00      	add	r7, sp, #0
 80034be:	6078      	str	r0, [r7, #4]
  /* Note: Write register with some additional bits forced to state reset     */
  /*       instead of modifying only the selected bit for this function,      */
  /*       to not interfere with bits with HW property "rs".                  */
  MODIFY_REG(ADCx->CR,
 80034c0:	687b      	ldr	r3, [r7, #4]
 80034c2:	689b      	ldr	r3, [r3, #8]
 80034c4:	f023 4300 	bic.w	r3, r3, #2147483648	; 0x80000000
 80034c8:	f023 033f 	bic.w	r3, r3, #63	; 0x3f
 80034cc:	f043 0201 	orr.w	r2, r3, #1
 80034d0:	687b      	ldr	r3, [r7, #4]
 80034d2:	609a      	str	r2, [r3, #8]
             ADC_CR_BITS_PROPERTY_RS,
             ADC_CR_ADEN);
}
 80034d4:	bf00      	nop
 80034d6:	370c      	adds	r7, #12
 80034d8:	46bd      	mov	sp, r7
 80034da:	f85d 7b04 	ldr.w	r7, [sp], #4
 80034de:	4770      	bx	lr

080034e0 <LL_ADC_IsEnabled>:
  * @rmtoll CR       ADEN           LL_ADC_IsEnabled
  * @param  ADCx ADC instance
  * @retval 0: ADC is disabled, 1: ADC is enabled.
  */
__STATIC_INLINE uint32_t LL_ADC_IsEnabled(ADC_TypeDef *ADCx)
{
 80034e0:	b480      	push	{r7}
 80034e2:	b083      	sub	sp, #12
 80034e4:	af00      	add	r7, sp, #0
 80034e6:	6078      	str	r0, [r7, #4]
  return ((READ_BIT(ADCx->CR, ADC_CR_ADEN) == (ADC_CR_ADEN)) ? 1UL : 0UL);
 80034e8:	687b      	ldr	r3, [r7, #4]
 80034ea:	689b      	ldr	r3, [r3, #8]
 80034ec:	f003 0301 	and.w	r3, r3, #1
 80034f0:	2b01      	cmp	r3, #1
 80034f2:	d101      	bne.n	80034f8 <LL_ADC_IsEnabled+0x18>
 80034f4:	2301      	movs	r3, #1
 80034f6:	e000      	b.n	80034fa <LL_ADC_IsEnabled+0x1a>
 80034f8:	2300      	movs	r3, #0
}
 80034fa:	4618      	mov	r0, r3
 80034fc:	370c      	adds	r7, #12
 80034fe:	46bd      	mov	sp, r7
 8003500:	f85d 7b04 	ldr.w	r7, [sp], #4
 8003504:	4770      	bx	lr

08003506 <LL_ADC_REG_StartConversion>:
  * @rmtoll CR       ADSTART        LL_ADC_REG_StartConversion
  * @param  ADCx ADC instance
  * @retval None
  */
__STATIC_INLINE void LL_ADC_REG_StartConversion(ADC_TypeDef *ADCx)
{
 8003506:	b480      	push	{r7}
 8003508:	b083      	sub	sp, #12
 800350a:	af00      	add	r7, sp, #0
 800350c:	6078      	str	r0, [r7, #4]
  /* Note: Write register with some additional bits forced to state reset     */
  /*       instead of modifying only the selected bit for this function,      */
  /*       to not interfere with bits with HW property "rs".                  */
  MODIFY_REG(ADCx->CR,
 800350e:	687b      	ldr	r3, [r7, #4]
 8003510:	689b      	ldr	r3, [r3, #8]
 8003512:	f023 4300 	bic.w	r3, r3, #2147483648	; 0x80000000
 8003516:	f023 033f 	bic.w	r3, r3, #63	; 0x3f
 800351a:	f043 0204 	orr.w	r2, r3, #4
 800351e:	687b      	ldr	r3, [r7, #4]
 8003520:	609a      	str	r2, [r3, #8]
             ADC_CR_BITS_PROPERTY_RS,
             ADC_CR_ADSTART);
}
 8003522:	bf00      	nop
 8003524:	370c      	adds	r7, #12
 8003526:	46bd      	mov	sp, r7
 8003528:	f85d 7b04 	ldr.w	r7, [sp], #4
 800352c:	4770      	bx	lr

0800352e <LL_ADC_REG_IsConversionOngoing>:
  * @rmtoll CR       ADSTART        LL_ADC_REG_IsConversionOngoing
  * @param  ADCx ADC instance
  * @retval 0: no conversion is on going on ADC group regular.
  */
__STATIC_INLINE uint32_t LL_ADC_REG_IsConversionOngoing(ADC_TypeDef *ADCx)
{
 800352e:	b480      	push	{r7}
 8003530:	b083      	sub	sp, #12
 8003532:	af00      	add	r7, sp, #0
 8003534:	6078      	str	r0, [r7, #4]
  return ((READ_BIT(ADCx->CR, ADC_CR_ADSTART) == (ADC_CR_ADSTART)) ? 1UL : 0UL);
 8003536:	687b      	ldr	r3, [r7, #4]
 8003538:	689b      	ldr	r3, [r3, #8]
 800353a:	f003 0304 	and.w	r3, r3, #4
 800353e:	2b04      	cmp	r3, #4
 8003540:	d101      	bne.n	8003546 <LL_ADC_REG_IsConversionOngoing+0x18>
 8003542:	2301      	movs	r3, #1
 8003544:	e000      	b.n	8003548 <LL_ADC_REG_IsConversionOngoing+0x1a>
 8003546:	2300      	movs	r3, #0
}
 8003548:	4618      	mov	r0, r3
 800354a:	370c      	adds	r7, #12
 800354c:	46bd      	mov	sp, r7
 800354e:	f85d 7b04 	ldr.w	r7, [sp], #4
 8003552:	4770      	bx	lr

08003554 <LL_ADC_INJ_IsConversionOngoing>:
  * @rmtoll CR       JADSTART       LL_ADC_INJ_IsConversionOngoing
  * @param  ADCx ADC instance
  * @retval 0: no conversion is on going on ADC group injected.
  */
__STATIC_INLINE uint32_t LL_ADC_INJ_IsConversionOngoing(ADC_TypeDef *ADCx)
{
 8003554:	b480      	push	{r7}
 8003556:	b083      	sub	sp, #12
 8003558:	af00      	add	r7, sp, #0
 800355a:	6078      	str	r0, [r7, #4]
  return ((READ_BIT(ADCx->CR, ADC_CR_JADSTART) == (ADC_CR_JADSTART)) ? 1UL : 0UL);
 800355c:	687b      	ldr	r3, [r7, #4]
 800355e:	689b      	ldr	r3, [r3, #8]
 8003560:	f003 0308 	and.w	r3, r3, #8
 8003564:	2b08      	cmp	r3, #8
 8003566:	d101      	bne.n	800356c <LL_ADC_INJ_IsConversionOngoing+0x18>
 8003568:	2301      	movs	r3, #1
 800356a:	e000      	b.n	800356e <LL_ADC_INJ_IsConversionOngoing+0x1a>
 800356c:	2300      	movs	r3, #0
}
 800356e:	4618      	mov	r0, r3
 8003570:	370c      	adds	r7, #12
 8003572:	46bd      	mov	sp, r7
 8003574:	f85d 7b04 	ldr.w	r7, [sp], #4
 8003578:	4770      	bx	lr
	...

0800357c <HAL_ADC_Init>:
  *         without  disabling the other ADCs.
  * @param hadc ADC handle
  * @retval HAL status
  */
HAL_StatusTypeDef HAL_ADC_Init(ADC_HandleTypeDef *hadc)
{
 800357c:	b580      	push	{r7, lr}
 800357e:	b088      	sub	sp, #32
 8003580:	af00      	add	r7, sp, #0
 8003582:	6078      	str	r0, [r7, #4]
  HAL_StatusTypeDef tmp_hal_status = HAL_OK;
 8003584:	2300      	movs	r3, #0
 8003586:	77fb      	strb	r3, [r7, #31]
  uint32_t tmpCFGR;
  uint32_t tmp_adc_reg_is_conversion_on_going;
  __IO uint32_t wait_loop_index = 0UL;
 8003588:	2300      	movs	r3, #0
 800358a:	60bb      	str	r3, [r7, #8]
  uint32_t tmp_adc_is_conversion_on_going_regular;
  uint32_t tmp_adc_is_conversion_on_going_injected;

  /* Check ADC handle */
  if (hadc == NULL)
 800358c:	687b      	ldr	r3, [r7, #4]
 800358e:	2b00      	cmp	r3, #0
 8003590:	d101      	bne.n	8003596 <HAL_ADC_Init+0x1a>
  {
    return HAL_ERROR;
 8003592:	2301      	movs	r3, #1
 8003594:	e12a      	b.n	80037ec <HAL_ADC_Init+0x270>
  assert_param(IS_ADC_EOC_SELECTION(hadc->Init.EOCSelection));
  assert_param(IS_ADC_OVERRUN(hadc->Init.Overrun));
  assert_param(IS_FUNCTIONAL_STATE(hadc->Init.LowPowerAutoWait));
  assert_param(IS_FUNCTIONAL_STATE(hadc->Init.OversamplingMode));

  if (hadc->Init.ScanConvMode != ADC_SCAN_DISABLE)
 8003596:	687b      	ldr	r3, [r7, #4]
 8003598:	691b      	ldr	r3, [r3, #16]
 800359a:	2b00      	cmp	r3, #0
  /* DISCEN and CONT bits cannot be set at the same time */
  assert_param(!((hadc->Init.DiscontinuousConvMode == ENABLE) && (hadc->Init.ContinuousConvMode == ENABLE)));

  /* Actions performed only if ADC is coming from state reset:                */
  /* - Initialization of ADC MSP                                              */
  if (hadc->State == HAL_ADC_STATE_RESET)
 800359c:	687b      	ldr	r3, [r7, #4]
 800359e:	6d5b      	ldr	r3, [r3, #84]	; 0x54
 80035a0:	2b00      	cmp	r3, #0
 80035a2:	d109      	bne.n	80035b8 <HAL_ADC_Init+0x3c>

    /* Init the low level hardware */
    hadc->MspInitCallback(hadc);
#else
    /* Init the low level hardware */
    HAL_ADC_MspInit(hadc);
 80035a4:	6878      	ldr	r0, [r7, #4]
 80035a6:	f7fd fd3b 	bl	8001020 <HAL_ADC_MspInit>
#endif /* USE_HAL_ADC_REGISTER_CALLBACKS */

    /* Set ADC error code to none */
    ADC_CLEAR_ERRORCODE(hadc);
 80035aa:	687b      	ldr	r3, [r7, #4]
 80035ac:	2200      	movs	r2, #0
 80035ae:	659a      	str	r2, [r3, #88]	; 0x58

    /* Initialize Lock */
    hadc->Lock = HAL_UNLOCKED;
 80035b0:	687b      	ldr	r3, [r7, #4]
 80035b2:	2200      	movs	r2, #0
 80035b4:	f883 2050 	strb.w	r2, [r3, #80]	; 0x50
  }

  /* - Exit from deep-power-down mode and ADC voltage regulator enable        */
  if (LL_ADC_IsDeepPowerDownEnabled(hadc->Instance) != 0UL)
 80035b8:	687b      	ldr	r3, [r7, #4]
 80035ba:	681b      	ldr	r3, [r3, #0]
 80035bc:	4618      	mov	r0, r3
 80035be:	f7ff ff3f 	bl	8003440 <LL_ADC_IsDeepPowerDownEnabled>
 80035c2:	4603      	mov	r3, r0
 80035c4:	2b00      	cmp	r3, #0
 80035c6:	d004      	beq.n	80035d2 <HAL_ADC_Init+0x56>
  {
    /* Disable ADC deep power down mode */
    LL_ADC_DisableDeepPowerDown(hadc->Instance);
 80035c8:	687b      	ldr	r3, [r7, #4]
 80035ca:	681b      	ldr	r3, [r3, #0]
 80035cc:	4618      	mov	r0, r3
 80035ce:	f7ff ff25 	bl	800341c <LL_ADC_DisableDeepPowerDown>
    /* System was in deep power down mode, calibration must
     be relaunched or a previously saved calibration factor
     re-applied once the ADC voltage regulator is enabled */
  }

  if (LL_ADC_IsInternalRegulatorEnabled(hadc->Instance) == 0UL)
 80035d2:	687b      	ldr	r3, [r7, #4]
 80035d4:	681b      	ldr	r3, [r3, #0]
 80035d6:	4618      	mov	r0, r3
 80035d8:	f7ff ff5a 	bl	8003490 <LL_ADC_IsInternalRegulatorEnabled>
 80035dc:	4603      	mov	r3, r0
 80035de:	2b00      	cmp	r3, #0
 80035e0:	d113      	bne.n	800360a <HAL_ADC_Init+0x8e>
  {
    /* Enable ADC internal voltage regulator */
    LL_ADC_EnableInternalRegulator(hadc->Instance);
 80035e2:	687b      	ldr	r3, [r7, #4]
 80035e4:	681b      	ldr	r3, [r3, #0]
 80035e6:	4618      	mov	r0, r3
 80035e8:	f7ff ff3e 	bl	8003468 <LL_ADC_EnableInternalRegulator>

    /* Note: Variable divided by 2 to compensate partially              */
    /*       CPU processing cycles, scaling in us split to not          */
    /*       exceed 32 bits register capacity and handle low frequency. */
    wait_loop_index = ((LL_ADC_DELAY_INTERNAL_REGUL_STAB_US / 10UL) * (SystemCoreClock / (100000UL * 2UL)));
 80035ec:	4b81      	ldr	r3, [pc, #516]	; (80037f4 <HAL_ADC_Init+0x278>)
 80035ee:	681b      	ldr	r3, [r3, #0]
 80035f0:	099b      	lsrs	r3, r3, #6
 80035f2:	4a81      	ldr	r2, [pc, #516]	; (80037f8 <HAL_ADC_Init+0x27c>)
 80035f4:	fba2 2303 	umull	r2, r3, r2, r3
 80035f8:	099b      	lsrs	r3, r3, #6
 80035fa:	60bb      	str	r3, [r7, #8]
    while (wait_loop_index != 0UL)
 80035fc:	e002      	b.n	8003604 <HAL_ADC_Init+0x88>
    {
      wait_loop_index--;
 80035fe:	68bb      	ldr	r3, [r7, #8]
 8003600:	3b01      	subs	r3, #1
 8003602:	60bb      	str	r3, [r7, #8]
    while (wait_loop_index != 0UL)
 8003604:	68bb      	ldr	r3, [r7, #8]
 8003606:	2b00      	cmp	r3, #0
 8003608:	d1f9      	bne.n	80035fe <HAL_ADC_Init+0x82>
  }

  /* Verification that ADC voltage regulator is correctly enabled, whether    */
  /* or not ADC is coming from state reset (if any potential problem of       */
  /* clocking, voltage regulator would not be enabled).                       */
  if (LL_ADC_IsInternalRegulatorEnabled(hadc->Instance) == 0UL)
 800360a:	687b      	ldr	r3, [r7, #4]
 800360c:	681b      	ldr	r3, [r3, #0]
 800360e:	4618      	mov	r0, r3
 8003610:	f7ff ff3e 	bl	8003490 <LL_ADC_IsInternalRegulatorEnabled>
 8003614:	4603      	mov	r3, r0
 8003616:	2b00      	cmp	r3, #0
 8003618:	d10d      	bne.n	8003636 <HAL_ADC_Init+0xba>
  {
    /* Update ADC state machine to error */
    SET_BIT(hadc->State, HAL_ADC_STATE_ERROR_INTERNAL);
 800361a:	687b      	ldr	r3, [r7, #4]
 800361c:	6d5b      	ldr	r3, [r3, #84]	; 0x54
 800361e:	f043 0210 	orr.w	r2, r3, #16
 8003622:	687b      	ldr	r3, [r7, #4]
 8003624:	655a      	str	r2, [r3, #84]	; 0x54

    /* Set ADC error code to ADC peripheral internal error */
    SET_BIT(hadc->ErrorCode, HAL_ADC_ERROR_INTERNAL);
 8003626:	687b      	ldr	r3, [r7, #4]
 8003628:	6d9b      	ldr	r3, [r3, #88]	; 0x58
 800362a:	f043 0201 	orr.w	r2, r3, #1
 800362e:	687b      	ldr	r3, [r7, #4]
 8003630:	659a      	str	r2, [r3, #88]	; 0x58

    tmp_hal_status = HAL_ERROR;
 8003632:	2301      	movs	r3, #1
 8003634:	77fb      	strb	r3, [r7, #31]

  /* Configuration of ADC parameters if previous preliminary actions are      */
  /* correctly completed and if there is no conversion on going on regular    */
  /* group (ADC may already be enabled at this point if HAL_ADC_Init() is     */
  /* called to update a parameter on the fly).                                */
  tmp_adc_reg_is_conversion_on_going = LL_ADC_REG_IsConversionOngoing(hadc->Instance);
 8003636:	687b      	ldr	r3, [r7, #4]
 8003638:	681b      	ldr	r3, [r3, #0]
 800363a:	4618      	mov	r0, r3
 800363c:	f7ff ff77 	bl	800352e <LL_ADC_REG_IsConversionOngoing>
 8003640:	6178      	str	r0, [r7, #20]

  if (((hadc->State & HAL_ADC_STATE_ERROR_INTERNAL) == 0UL)
 8003642:	687b      	ldr	r3, [r7, #4]
 8003644:	6d5b      	ldr	r3, [r3, #84]	; 0x54
 8003646:	f003 0310 	and.w	r3, r3, #16
 800364a:	2b00      	cmp	r3, #0
 800364c:	f040 80c5 	bne.w	80037da <HAL_ADC_Init+0x25e>
      && (tmp_adc_reg_is_conversion_on_going == 0UL)
 8003650:	697b      	ldr	r3, [r7, #20]
 8003652:	2b00      	cmp	r3, #0
 8003654:	f040 80c1 	bne.w	80037da <HAL_ADC_Init+0x25e>
     )
  {
    /* Set ADC state */
    ADC_STATE_CLR_SET(hadc->State,
 8003658:	687b      	ldr	r3, [r7, #4]
 800365a:	6d5b      	ldr	r3, [r3, #84]	; 0x54
 800365c:	f423 7381 	bic.w	r3, r3, #258	; 0x102
 8003660:	f043 0202 	orr.w	r2, r3, #2
 8003664:	687b      	ldr	r3, [r7, #4]
 8003666:	655a      	str	r2, [r3, #84]	; 0x54
    /* Configuration of common ADC parameters                                 */

    /* Parameters update conditioned to ADC state:                            */
    /* Parameters that can be updated only when ADC is disabled:              */
    /*  - clock configuration                                                 */
    if (LL_ADC_IsEnabled(hadc->Instance) == 0UL)
 8003668:	687b      	ldr	r3, [r7, #4]
 800366a:	681b      	ldr	r3, [r3, #0]
 800366c:	4618      	mov	r0, r3
 800366e:	f7ff ff37 	bl	80034e0 <LL_ADC_IsEnabled>
 8003672:	4603      	mov	r3, r0
 8003674:	2b00      	cmp	r3, #0
 8003676:	d10b      	bne.n	8003690 <HAL_ADC_Init+0x114>
    {
      if (__LL_ADC_IS_ENABLED_ALL_COMMON_INSTANCE(__LL_ADC_COMMON_INSTANCE(hadc->Instance)) == 0UL)
 8003678:	4860      	ldr	r0, [pc, #384]	; (80037fc <HAL_ADC_Init+0x280>)
 800367a:	f7ff ff31 	bl	80034e0 <LL_ADC_IsEnabled>
 800367e:	4603      	mov	r3, r0
 8003680:	2b00      	cmp	r3, #0
 8003682:	d105      	bne.n	8003690 <HAL_ADC_Init+0x114>
        /*     parameters: MDMA, DMACFG, DELAY, DUAL (set by API                */
        /*     HAL_ADCEx_MultiModeConfigChannel() )                             */
        /*   - internal measurement paths: Vbat, temperature sensor, Vref       */
        /*     (set into HAL_ADC_ConfigChannel() or                             */
        /*     HAL_ADCEx_InjectedConfigChannel() )                              */
        LL_ADC_SetCommonClock(__LL_ADC_COMMON_INSTANCE(hadc->Instance), hadc->Init.ClockPrescaler);
 8003684:	687b      	ldr	r3, [r7, #4]
 8003686:	685b      	ldr	r3, [r3, #4]
 8003688:	4619      	mov	r1, r3
 800368a:	485d      	ldr	r0, [pc, #372]	; (8003800 <HAL_ADC_Init+0x284>)
 800368c:	f7ff fdae 	bl	80031ec <LL_ADC_SetCommonClock>
    /*  - external trigger polarity                Init.ExternalTrigConvEdge  */
    /*  - continuous conversion mode               Init.ContinuousConvMode    */
    /*  - overrun                                  Init.Overrun               */
    /*  - discontinuous mode                       Init.DiscontinuousConvMode */
    /*  - discontinuous mode channel count         Init.NbrOfDiscConversion   */
    tmpCFGR  = (ADC_CFGR_CONTINUOUS((uint32_t)hadc->Init.ContinuousConvMode)           |
 8003690:	687b      	ldr	r3, [r7, #4]
 8003692:	7e5b      	ldrb	r3, [r3, #25]
 8003694:	035a      	lsls	r2, r3, #13
                hadc->Init.Overrun                                                     |
 8003696:	687b      	ldr	r3, [r7, #4]
 8003698:	6b5b      	ldr	r3, [r3, #52]	; 0x34
    tmpCFGR  = (ADC_CFGR_CONTINUOUS((uint32_t)hadc->Init.ContinuousConvMode)           |
 800369a:	431a      	orrs	r2, r3
                hadc->Init.DataAlign                                                   |
 800369c:	687b      	ldr	r3, [r7, #4]
 800369e:	68db      	ldr	r3, [r3, #12]
                hadc->Init.Overrun                                                     |
 80036a0:	431a      	orrs	r2, r3
                hadc->Init.Resolution                                                  |
 80036a2:	687b      	ldr	r3, [r7, #4]
 80036a4:	689b      	ldr	r3, [r3, #8]
                hadc->Init.DataAlign                                                   |
 80036a6:	431a      	orrs	r2, r3
                ADC_CFGR_REG_DISCONTINUOUS((uint32_t)hadc->Init.DiscontinuousConvMode));
 80036a8:	687b      	ldr	r3, [r7, #4]
 80036aa:	f893 3020 	ldrb.w	r3, [r3, #32]
 80036ae:	041b      	lsls	r3, r3, #16
    tmpCFGR  = (ADC_CFGR_CONTINUOUS((uint32_t)hadc->Init.ContinuousConvMode)           |
 80036b0:	4313      	orrs	r3, r2
 80036b2:	61bb      	str	r3, [r7, #24]

    if (hadc->Init.DiscontinuousConvMode == ENABLE)
 80036b4:	687b      	ldr	r3, [r7, #4]
 80036b6:	f893 3020 	ldrb.w	r3, [r3, #32]
 80036ba:	2b01      	cmp	r3, #1
 80036bc:	d106      	bne.n	80036cc <HAL_ADC_Init+0x150>
    {
      tmpCFGR |= ADC_CFGR_DISCONTINUOUS_NUM(hadc->Init.NbrOfDiscConversion);
 80036be:	687b      	ldr	r3, [r7, #4]
 80036c0:	6a5b      	ldr	r3, [r3, #36]	; 0x24
 80036c2:	3b01      	subs	r3, #1
 80036c4:	045b      	lsls	r3, r3, #17
 80036c6:	69ba      	ldr	r2, [r7, #24]
 80036c8:	4313      	orrs	r3, r2
 80036ca:	61bb      	str	r3, [r7, #24]
    /* Enable external trigger if trigger selection is different of software  */
    /* start.                                                                 */
    /* Note: This configuration keeps the hardware feature of parameter       */
    /*       ExternalTrigConvEdge "trigger edge none" equivalent to           */
    /*       software start.                                                  */
    if (hadc->Init.ExternalTrigConv != ADC_SOFTWARE_START)
 80036cc:	687b      	ldr	r3, [r7, #4]
 80036ce:	6a9b      	ldr	r3, [r3, #40]	; 0x28
 80036d0:	2b00      	cmp	r3, #0
 80036d2:	d009      	beq.n	80036e8 <HAL_ADC_Init+0x16c>
    {
      tmpCFGR |= ((hadc->Init.ExternalTrigConv & ADC_CFGR_EXTSEL)
 80036d4:	687b      	ldr	r3, [r7, #4]
 80036d6:	6a9b      	ldr	r3, [r3, #40]	; 0x28
 80036d8:	f403 7270 	and.w	r2, r3, #960	; 0x3c0
                  | hadc->Init.ExternalTrigConvEdge
 80036dc:	687b      	ldr	r3, [r7, #4]
 80036de:	6adb      	ldr	r3, [r3, #44]	; 0x2c
 80036e0:	4313      	orrs	r3, r2
      tmpCFGR |= ((hadc->Init.ExternalTrigConv & ADC_CFGR_EXTSEL)
 80036e2:	69ba      	ldr	r2, [r7, #24]
 80036e4:	4313      	orrs	r3, r2
 80036e6:	61bb      	str	r3, [r7, #24]
                 );
    }

    /* Update Configuration Register CFGR */
    MODIFY_REG(hadc->Instance->CFGR, ADC_CFGR_FIELDS_1, tmpCFGR);
 80036e8:	687b      	ldr	r3, [r7, #4]
 80036ea:	681b      	ldr	r3, [r3, #0]
 80036ec:	68da      	ldr	r2, [r3, #12]
 80036ee:	4b45      	ldr	r3, [pc, #276]	; (8003804 <HAL_ADC_Init+0x288>)
 80036f0:	4013      	ands	r3, r2
 80036f2:	687a      	ldr	r2, [r7, #4]
 80036f4:	6812      	ldr	r2, [r2, #0]
 80036f6:	69b9      	ldr	r1, [r7, #24]
 80036f8:	430b      	orrs	r3, r1
 80036fa:	60d3      	str	r3, [r2, #12]
    /* Parameters that can be updated when ADC is disabled or enabled without */
    /* conversion on going on regular and injected groups:                    */
    /*  - DMA continuous request          Init.DMAContinuousRequests          */
    /*  - LowPowerAutoWait feature        Init.LowPowerAutoWait               */
    /*  - Oversampling parameters         Init.Oversampling                   */
    tmp_adc_is_conversion_on_going_regular = LL_ADC_REG_IsConversionOngoing(hadc->Instance);
 80036fc:	687b      	ldr	r3, [r7, #4]
 80036fe:	681b      	ldr	r3, [r3, #0]
 8003700:	4618      	mov	r0, r3
 8003702:	f7ff ff14 	bl	800352e <LL_ADC_REG_IsConversionOngoing>
 8003706:	6138      	str	r0, [r7, #16]
    tmp_adc_is_conversion_on_going_injected = LL_ADC_INJ_IsConversionOngoing(hadc->Instance);
 8003708:	687b      	ldr	r3, [r7, #4]
 800370a:	681b      	ldr	r3, [r3, #0]
 800370c:	4618      	mov	r0, r3
 800370e:	f7ff ff21 	bl	8003554 <LL_ADC_INJ_IsConversionOngoing>
 8003712:	60f8      	str	r0, [r7, #12]
    if ((tmp_adc_is_conversion_on_going_regular == 0UL)
 8003714:	693b      	ldr	r3, [r7, #16]
 8003716:	2b00      	cmp	r3, #0
 8003718:	d13d      	bne.n	8003796 <HAL_ADC_Init+0x21a>
        && (tmp_adc_is_conversion_on_going_injected == 0UL)
 800371a:	68fb      	ldr	r3, [r7, #12]
 800371c:	2b00      	cmp	r3, #0
 800371e:	d13a      	bne.n	8003796 <HAL_ADC_Init+0x21a>
       )
    {
      tmpCFGR = (ADC_CFGR_DFSDM(hadc)                                            |
                 ADC_CFGR_AUTOWAIT((uint32_t)hadc->Init.LowPowerAutoWait)        |
 8003720:	687b      	ldr	r3, [r7, #4]
 8003722:	7e1b      	ldrb	r3, [r3, #24]
      tmpCFGR = (ADC_CFGR_DFSDM(hadc)                                            |
 8003724:	039a      	lsls	r2, r3, #14
                 ADC_CFGR_DMACONTREQ((uint32_t)hadc->Init.DMAContinuousRequests));
 8003726:	687b      	ldr	r3, [r7, #4]
 8003728:	f893 3030 	ldrb.w	r3, [r3, #48]	; 0x30
 800372c:	005b      	lsls	r3, r3, #1
      tmpCFGR = (ADC_CFGR_DFSDM(hadc)                                            |
 800372e:	4313      	orrs	r3, r2
 8003730:	61bb      	str	r3, [r7, #24]

      MODIFY_REG(hadc->Instance->CFGR, ADC_CFGR_FIELDS_2, tmpCFGR);
 8003732:	687b      	ldr	r3, [r7, #4]
 8003734:	681b      	ldr	r3, [r3, #0]
 8003736:	68db      	ldr	r3, [r3, #12]
 8003738:	f423 4380 	bic.w	r3, r3, #16384	; 0x4000
 800373c:	f023 0302 	bic.w	r3, r3, #2
 8003740:	687a      	ldr	r2, [r7, #4]
 8003742:	6812      	ldr	r2, [r2, #0]
 8003744:	69b9      	ldr	r1, [r7, #24]
 8003746:	430b      	orrs	r3, r1
 8003748:	60d3      	str	r3, [r2, #12]

      if (hadc->Init.OversamplingMode == ENABLE)
 800374a:	687b      	ldr	r3, [r7, #4]
 800374c:	f893 3038 	ldrb.w	r3, [r3, #56]	; 0x38
 8003750:	2b01      	cmp	r3, #1
 8003752:	d118      	bne.n	8003786 <HAL_ADC_Init+0x20a>
        /* Configuration of Oversampler:                                      */
        /*  - Oversampling Ratio                                              */
        /*  - Right bit shift                                                 */
        /*  - Triggered mode                                                  */
        /*  - Oversampling mode (continued/resumed)                           */
        MODIFY_REG(hadc->Instance->CFGR2,
 8003754:	687b      	ldr	r3, [r7, #4]
 8003756:	681b      	ldr	r3, [r3, #0]
 8003758:	691b      	ldr	r3, [r3, #16]
 800375a:	f423 63ff 	bic.w	r3, r3, #2040	; 0x7f8
 800375e:	f023 0304 	bic.w	r3, r3, #4
 8003762:	687a      	ldr	r2, [r7, #4]
 8003764:	6bd1      	ldr	r1, [r2, #60]	; 0x3c
 8003766:	687a      	ldr	r2, [r7, #4]
 8003768:	6c12      	ldr	r2, [r2, #64]	; 0x40
 800376a:	4311      	orrs	r1, r2
 800376c:	687a      	ldr	r2, [r7, #4]
 800376e:	6c52      	ldr	r2, [r2, #68]	; 0x44
 8003770:	4311      	orrs	r1, r2
 8003772:	687a      	ldr	r2, [r7, #4]
 8003774:	6c92      	ldr	r2, [r2, #72]	; 0x48
 8003776:	430a      	orrs	r2, r1
 8003778:	431a      	orrs	r2, r3
 800377a:	687b      	ldr	r3, [r7, #4]
 800377c:	681b      	ldr	r3, [r3, #0]
 800377e:	f042 0201 	orr.w	r2, r2, #1
 8003782:	611a      	str	r2, [r3, #16]
 8003784:	e007      	b.n	8003796 <HAL_ADC_Init+0x21a>
                  );
      }
      else
      {
        /* Disable ADC oversampling scope on ADC group regular */
        CLEAR_BIT(hadc->Instance->CFGR2, ADC_CFGR2_ROVSE);
 8003786:	687b      	ldr	r3, [r7, #4]
 8003788:	681b      	ldr	r3, [r3, #0]
 800378a:	691a      	ldr	r2, [r3, #16]
 800378c:	687b      	ldr	r3, [r7, #4]
 800378e:	681b      	ldr	r3, [r3, #0]
 8003790:	f022 0201 	bic.w	r2, r2, #1
 8003794:	611a      	str	r2, [r3, #16]
    /*   Note: Scan mode is not present by hardware on this device, but       */
    /*   emulated by software for alignment over all STM32 devices.           */
    /* - if scan mode is enabled, regular channels sequence length is set to  */
    /*   parameter "NbrOfConversion".                                         */

    if (hadc->Init.ScanConvMode == ADC_SCAN_ENABLE)
 8003796:	687b      	ldr	r3, [r7, #4]
 8003798:	691b      	ldr	r3, [r3, #16]
 800379a:	2b01      	cmp	r3, #1
 800379c:	d10c      	bne.n	80037b8 <HAL_ADC_Init+0x23c>
    {
      /* Set number of ranks in regular group sequencer */
      MODIFY_REG(hadc->Instance->SQR1, ADC_SQR1_L, (hadc->Init.NbrOfConversion - (uint8_t)1));
 800379e:	687b      	ldr	r3, [r7, #4]
 80037a0:	681b      	ldr	r3, [r3, #0]
 80037a2:	6b1b      	ldr	r3, [r3, #48]	; 0x30
 80037a4:	f023 010f 	bic.w	r1, r3, #15
 80037a8:	687b      	ldr	r3, [r7, #4]
 80037aa:	69db      	ldr	r3, [r3, #28]
 80037ac:	1e5a      	subs	r2, r3, #1
 80037ae:	687b      	ldr	r3, [r7, #4]
 80037b0:	681b      	ldr	r3, [r3, #0]
 80037b2:	430a      	orrs	r2, r1
 80037b4:	631a      	str	r2, [r3, #48]	; 0x30
 80037b6:	e007      	b.n	80037c8 <HAL_ADC_Init+0x24c>
    }
    else
    {
      CLEAR_BIT(hadc->Instance->SQR1, ADC_SQR1_L);
 80037b8:	687b      	ldr	r3, [r7, #4]
 80037ba:	681b      	ldr	r3, [r3, #0]
 80037bc:	6b1a      	ldr	r2, [r3, #48]	; 0x30
 80037be:	687b      	ldr	r3, [r7, #4]
 80037c0:	681b      	ldr	r3, [r3, #0]
 80037c2:	f022 020f 	bic.w	r2, r2, #15
 80037c6:	631a      	str	r2, [r3, #48]	; 0x30
    }

    /* Initialize the ADC state */
    /* Clear HAL_ADC_STATE_BUSY_INTERNAL bit, set HAL_ADC_STATE_READY bit */
    ADC_STATE_CLR_SET(hadc->State, HAL_ADC_STATE_BUSY_INTERNAL, HAL_ADC_STATE_READY);
 80037c8:	687b      	ldr	r3, [r7, #4]
 80037ca:	6d5b      	ldr	r3, [r3, #84]	; 0x54
 80037cc:	f023 0303 	bic.w	r3, r3, #3
 80037d0:	f043 0201 	orr.w	r2, r3, #1
 80037d4:	687b      	ldr	r3, [r7, #4]
 80037d6:	655a      	str	r2, [r3, #84]	; 0x54
 80037d8:	e007      	b.n	80037ea <HAL_ADC_Init+0x26e>
  }
  else
  {
    /* Update ADC state machine to error */
    SET_BIT(hadc->State, HAL_ADC_STATE_ERROR_INTERNAL);
 80037da:	687b      	ldr	r3, [r7, #4]
 80037dc:	6d5b      	ldr	r3, [r3, #84]	; 0x54
 80037de:	f043 0210 	orr.w	r2, r3, #16
 80037e2:	687b      	ldr	r3, [r7, #4]
 80037e4:	655a      	str	r2, [r3, #84]	; 0x54

    tmp_hal_status = HAL_ERROR;
 80037e6:	2301      	movs	r3, #1
 80037e8:	77fb      	strb	r3, [r7, #31]
  }

  /* Return function status */
  return tmp_hal_status;
 80037ea:	7ffb      	ldrb	r3, [r7, #31]
}
 80037ec:	4618      	mov	r0, r3
 80037ee:	3720      	adds	r7, #32
 80037f0:	46bd      	mov	sp, r7
 80037f2:	bd80      	pop	{r7, pc}
 80037f4:	200007d8 	.word	0x200007d8
 80037f8:	053e2d63 	.word	0x053e2d63
 80037fc:	50040000 	.word	0x50040000
 8003800:	50040300 	.word	0x50040300
 8003804:	fff0c007 	.word	0xfff0c007

08003808 <HAL_ADC_Start_DMA>:
  * @param pData Destination Buffer address.
  * @param Length Number of data to be transferred from ADC peripheral to memory
  * @retval HAL status.
  */
HAL_StatusTypeDef HAL_ADC_Start_DMA(ADC_HandleTypeDef *hadc, uint32_t *pData, uint32_t Length)
{
 8003808:	b580      	push	{r7, lr}
 800380a:	b086      	sub	sp, #24
 800380c:	af00      	add	r7, sp, #0
 800380e:	60f8      	str	r0, [r7, #12]
 8003810:	60b9      	str	r1, [r7, #8]
 8003812:	607a      	str	r2, [r7, #4]

  /* Check the parameters */
  assert_param(IS_ADC_ALL_INSTANCE(hadc->Instance));

  /* Perform ADC enable and conversion start if no conversion is on going */
  if (LL_ADC_REG_IsConversionOngoing(hadc->Instance) == 0UL)
 8003814:	68fb      	ldr	r3, [r7, #12]
 8003816:	681b      	ldr	r3, [r3, #0]
 8003818:	4618      	mov	r0, r3
 800381a:	f7ff fe88 	bl	800352e <LL_ADC_REG_IsConversionOngoing>
 800381e:	4603      	mov	r3, r0
 8003820:	2b00      	cmp	r3, #0
 8003822:	d167      	bne.n	80038f4 <HAL_ADC_Start_DMA+0xec>
  {
    /* Process locked */
    __HAL_LOCK(hadc);
 8003824:	68fb      	ldr	r3, [r7, #12]
 8003826:	f893 3050 	ldrb.w	r3, [r3, #80]	; 0x50
 800382a:	2b01      	cmp	r3, #1
 800382c:	d101      	bne.n	8003832 <HAL_ADC_Start_DMA+0x2a>
 800382e:	2302      	movs	r3, #2
 8003830:	e063      	b.n	80038fa <HAL_ADC_Start_DMA+0xf2>
 8003832:	68fb      	ldr	r3, [r7, #12]
 8003834:	2201      	movs	r2, #1
 8003836:	f883 2050 	strb.w	r2, [r3, #80]	; 0x50
        || (tmp_multimode_config == LL_ADC_MULTI_DUAL_INJ_ALTERN)
       )
#endif
    {
      /* Enable the ADC peripheral */
      tmp_hal_status = ADC_Enable(hadc);
 800383a:	68f8      	ldr	r0, [r7, #12]
 800383c:	f000 fc50 	bl	80040e0 <ADC_Enable>
 8003840:	4603      	mov	r3, r0
 8003842:	75fb      	strb	r3, [r7, #23]

      /* Start conversion if ADC is effectively enabled */
      if (tmp_hal_status == HAL_OK)
 8003844:	7dfb      	ldrb	r3, [r7, #23]
 8003846:	2b00      	cmp	r3, #0
 8003848:	d14f      	bne.n	80038ea <HAL_ADC_Start_DMA+0xe2>
      {
        /* Set ADC state                                                        */
        /* - Clear state bitfield related to regular group conversion results   */
        /* - Set state bitfield related to regular operation                    */
        ADC_STATE_CLR_SET(hadc->State,
 800384a:	68fb      	ldr	r3, [r7, #12]
 800384c:	6d5b      	ldr	r3, [r3, #84]	; 0x54
 800384e:	f423 6370 	bic.w	r3, r3, #3840	; 0xf00
 8003852:	f023 0301 	bic.w	r3, r3, #1
 8003856:	f443 7280 	orr.w	r2, r3, #256	; 0x100
 800385a:	68fb      	ldr	r3, [r7, #12]
 800385c:	655a      	str	r2, [r3, #84]	; 0x54
          CLEAR_BIT(hadc->State, HAL_ADC_STATE_MULTIMODE_SLAVE);
        }
#endif

        /* Check if a conversion is on going on ADC group injected */
        if ((hadc->State & HAL_ADC_STATE_INJ_BUSY) != 0UL)
 800385e:	68fb      	ldr	r3, [r7, #12]
 8003860:	6d5b      	ldr	r3, [r3, #84]	; 0x54
 8003862:	f403 5380 	and.w	r3, r3, #4096	; 0x1000
 8003866:	2b00      	cmp	r3, #0
 8003868:	d006      	beq.n	8003878 <HAL_ADC_Start_DMA+0x70>
        {
          /* Reset ADC error code fields related to regular conversions only */
          CLEAR_BIT(hadc->ErrorCode, (HAL_ADC_ERROR_OVR | HAL_ADC_ERROR_DMA));
 800386a:	68fb      	ldr	r3, [r7, #12]
 800386c:	6d9b      	ldr	r3, [r3, #88]	; 0x58
 800386e:	f023 0206 	bic.w	r2, r3, #6
 8003872:	68fb      	ldr	r3, [r7, #12]
 8003874:	659a      	str	r2, [r3, #88]	; 0x58
 8003876:	e002      	b.n	800387e <HAL_ADC_Start_DMA+0x76>
        }
        else
        {
          /* Reset all ADC error code fields */
          ADC_CLEAR_ERRORCODE(hadc);
 8003878:	68fb      	ldr	r3, [r7, #12]
 800387a:	2200      	movs	r2, #0
 800387c:	659a      	str	r2, [r3, #88]	; 0x58
        }

        /* Set the DMA transfer complete callback */
        hadc->DMA_Handle->XferCpltCallback = ADC_DMAConvCplt;
 800387e:	68fb      	ldr	r3, [r7, #12]
 8003880:	6cdb      	ldr	r3, [r3, #76]	; 0x4c
 8003882:	4a20      	ldr	r2, [pc, #128]	; (8003904 <HAL_ADC_Start_DMA+0xfc>)
 8003884:	62da      	str	r2, [r3, #44]	; 0x2c

        /* Set the DMA half transfer complete callback */
        hadc->DMA_Handle->XferHalfCpltCallback = ADC_DMAHalfConvCplt;
 8003886:	68fb      	ldr	r3, [r7, #12]
 8003888:	6cdb      	ldr	r3, [r3, #76]	; 0x4c
 800388a:	4a1f      	ldr	r2, [pc, #124]	; (8003908 <HAL_ADC_Start_DMA+0x100>)
 800388c:	631a      	str	r2, [r3, #48]	; 0x30

        /* Set the DMA error callback */
        hadc->DMA_Handle->XferErrorCallback = ADC_DMAError;
 800388e:	68fb      	ldr	r3, [r7, #12]
 8003890:	6cdb      	ldr	r3, [r3, #76]	; 0x4c
 8003892:	4a1e      	ldr	r2, [pc, #120]	; (800390c <HAL_ADC_Start_DMA+0x104>)
 8003894:	635a      	str	r2, [r3, #52]	; 0x34
        /* ADC start (in case of SW start):                                   */

        /* Clear regular group conversion flag and overrun flag               */
        /* (To ensure of no unknown state from potential previous ADC         */
        /* operations)                                                        */
        __HAL_ADC_CLEAR_FLAG(hadc, (ADC_FLAG_EOC | ADC_FLAG_EOS | ADC_FLAG_OVR));
 8003896:	68fb      	ldr	r3, [r7, #12]
 8003898:	681b      	ldr	r3, [r3, #0]
 800389a:	221c      	movs	r2, #28
 800389c:	601a      	str	r2, [r3, #0]

        /* Process unlocked */
        /* Unlock before starting ADC conversions: in case of potential         */
        /* interruption, to let the process to ADC IRQ Handler.                 */
        __HAL_UNLOCK(hadc);
 800389e:	68fb      	ldr	r3, [r7, #12]
 80038a0:	2200      	movs	r2, #0
 80038a2:	f883 2050 	strb.w	r2, [r3, #80]	; 0x50

        /* With DMA, overrun event is always considered as an error even if
           hadc->Init.Overrun is set to ADC_OVR_DATA_OVERWRITTEN. Therefore,
           ADC_IT_OVR is enabled. */
        __HAL_ADC_ENABLE_IT(hadc, ADC_IT_OVR);
 80038a6:	68fb      	ldr	r3, [r7, #12]
 80038a8:	681b      	ldr	r3, [r3, #0]
 80038aa:	685a      	ldr	r2, [r3, #4]
 80038ac:	68fb      	ldr	r3, [r7, #12]
 80038ae:	681b      	ldr	r3, [r3, #0]
 80038b0:	f042 0210 	orr.w	r2, r2, #16
 80038b4:	605a      	str	r2, [r3, #4]

        /* Enable ADC DMA mode */
        SET_BIT(hadc->Instance->CFGR, ADC_CFGR_DMAEN);
 80038b6:	68fb      	ldr	r3, [r7, #12]
 80038b8:	681b      	ldr	r3, [r3, #0]
 80038ba:	68da      	ldr	r2, [r3, #12]
 80038bc:	68fb      	ldr	r3, [r7, #12]
 80038be:	681b      	ldr	r3, [r3, #0]
 80038c0:	f042 0201 	orr.w	r2, r2, #1
 80038c4:	60da      	str	r2, [r3, #12]

        /* Start the DMA channel */
        tmp_hal_status = HAL_DMA_Start_IT(hadc->DMA_Handle, (uint32_t)&hadc->Instance->DR, (uint32_t)pData, Length);
 80038c6:	68fb      	ldr	r3, [r7, #12]
 80038c8:	6cd8      	ldr	r0, [r3, #76]	; 0x4c
 80038ca:	68fb      	ldr	r3, [r7, #12]
 80038cc:	681b      	ldr	r3, [r3, #0]
 80038ce:	3340      	adds	r3, #64	; 0x40
 80038d0:	4619      	mov	r1, r3
 80038d2:	68ba      	ldr	r2, [r7, #8]
 80038d4:	687b      	ldr	r3, [r7, #4]
 80038d6:	f001 f95d 	bl	8004b94 <HAL_DMA_Start_IT>
 80038da:	4603      	mov	r3, r0
 80038dc:	75fb      	strb	r3, [r7, #23]
        /* Enable conversion of regular group.                                  */
        /* If software start has been selected, conversion starts immediately.  */
        /* If external trigger has been selected, conversion will start at next */
        /* trigger event.                                                       */
        /* Start ADC group regular conversion */
        LL_ADC_REG_StartConversion(hadc->Instance);
 80038de:	68fb      	ldr	r3, [r7, #12]
 80038e0:	681b      	ldr	r3, [r3, #0]
 80038e2:	4618      	mov	r0, r3
 80038e4:	f7ff fe0f 	bl	8003506 <LL_ADC_REG_StartConversion>
 80038e8:	e006      	b.n	80038f8 <HAL_ADC_Start_DMA+0xf0>
      }
      else
      {
        /* Process unlocked */
        __HAL_UNLOCK(hadc);
 80038ea:	68fb      	ldr	r3, [r7, #12]
 80038ec:	2200      	movs	r2, #0
 80038ee:	f883 2050 	strb.w	r2, [r3, #80]	; 0x50
 80038f2:	e001      	b.n	80038f8 <HAL_ADC_Start_DMA+0xf0>
    }
#endif
  }
  else
  {
    tmp_hal_status = HAL_BUSY;
 80038f4:	2302      	movs	r3, #2
 80038f6:	75fb      	strb	r3, [r7, #23]
  }

  /* Return function status */
  return tmp_hal_status;
 80038f8:	7dfb      	ldrb	r3, [r7, #23]
}
 80038fa:	4618      	mov	r0, r3
 80038fc:	3718      	adds	r7, #24
 80038fe:	46bd      	mov	sp, r7
 8003900:	bd80      	pop	{r7, pc}
 8003902:	bf00      	nop
 8003904:	08004195 	.word	0x08004195
 8003908:	0800426d 	.word	0x0800426d
 800390c:	08004289 	.word	0x08004289

08003910 <HAL_ADC_ErrorCallback>:
  *           (this function is also clearing overrun flag)
  * @param hadc ADC handle
  * @retval None
  */
__weak void HAL_ADC_ErrorCallback(ADC_HandleTypeDef *hadc)
{
 8003910:	b480      	push	{r7}
 8003912:	b083      	sub	sp, #12
 8003914:	af00      	add	r7, sp, #0
 8003916:	6078      	str	r0, [r7, #4]
  UNUSED(hadc);

  /* NOTE : This function should not be modified. When the callback is needed,
            function HAL_ADC_ErrorCallback must be implemented in the user file.
  */
}
 8003918:	bf00      	nop
 800391a:	370c      	adds	r7, #12
 800391c:	46bd      	mov	sp, r7
 800391e:	f85d 7b04 	ldr.w	r7, [sp], #4
 8003922:	4770      	bx	lr

08003924 <HAL_ADC_ConfigChannel>:
  * @param hadc ADC handle
  * @param sConfig Structure of ADC channel assigned to ADC group regular.
  * @retval HAL status
  */
HAL_StatusTypeDef HAL_ADC_ConfigChannel(ADC_HandleTypeDef *hadc, ADC_ChannelConfTypeDef *sConfig)
{
 8003924:	b580      	push	{r7, lr}
 8003926:	b0b6      	sub	sp, #216	; 0xd8
 8003928:	af00      	add	r7, sp, #0
 800392a:	6078      	str	r0, [r7, #4]
 800392c:	6039      	str	r1, [r7, #0]
  HAL_StatusTypeDef tmp_hal_status = HAL_OK;
 800392e:	2300      	movs	r3, #0
 8003930:	f887 30d7 	strb.w	r3, [r7, #215]	; 0xd7
  uint32_t tmpOffsetShifted;
  uint32_t tmp_config_internal_channel;
  __IO uint32_t wait_loop_index = 0UL;
 8003934:	2300      	movs	r3, #0
 8003936:	60fb      	str	r3, [r7, #12]
  {
    assert_param(IS_ADC_DIFF_CHANNEL(hadc, sConfig->Channel));
  }

  /* Process locked */
  __HAL_LOCK(hadc);
 8003938:	687b      	ldr	r3, [r7, #4]
 800393a:	f893 3050 	ldrb.w	r3, [r3, #80]	; 0x50
 800393e:	2b01      	cmp	r3, #1
 8003940:	d101      	bne.n	8003946 <HAL_ADC_ConfigChannel+0x22>
 8003942:	2302      	movs	r3, #2
 8003944:	e3b8      	b.n	80040b8 <HAL_ADC_ConfigChannel+0x794>
 8003946:	687b      	ldr	r3, [r7, #4]
 8003948:	2201      	movs	r2, #1
 800394a:	f883 2050 	strb.w	r2, [r3, #80]	; 0x50
  /* Parameters update conditioned to ADC state:                              */
  /* Parameters that can be updated when ADC is disabled or enabled without   */
  /* conversion on going on regular group:                                    */
  /*  - Channel number                                                        */
  /*  - Channel rank                                                          */
  if (LL_ADC_REG_IsConversionOngoing(hadc->Instance) == 0UL)
 800394e:	687b      	ldr	r3, [r7, #4]
 8003950:	681b      	ldr	r3, [r3, #0]
 8003952:	4618      	mov	r0, r3
 8003954:	f7ff fdeb 	bl	800352e <LL_ADC_REG_IsConversionOngoing>
 8003958:	4603      	mov	r3, r0
 800395a:	2b00      	cmp	r3, #0
 800395c:	f040 839d 	bne.w	800409a <HAL_ADC_ConfigChannel+0x776>
    /* Correspondence for compatibility with legacy definition of             */
    /* sequencer ranks in direct number format. This correspondence can       */
    /* be done only on ranks 1 to 5 due to literal values.                    */
    /* Note: Sequencer ranks in direct number format are no more used         */
    /*       and are detected by activating USE_FULL_ASSERT feature.          */
    if (sConfig->Rank <= 5U)
 8003960:	683b      	ldr	r3, [r7, #0]
 8003962:	685b      	ldr	r3, [r3, #4]
 8003964:	2b05      	cmp	r3, #5
 8003966:	d824      	bhi.n	80039b2 <HAL_ADC_ConfigChannel+0x8e>
    {
      switch (sConfig->Rank)
 8003968:	683b      	ldr	r3, [r7, #0]
 800396a:	685b      	ldr	r3, [r3, #4]
 800396c:	3b02      	subs	r3, #2
 800396e:	2b03      	cmp	r3, #3
 8003970:	d81b      	bhi.n	80039aa <HAL_ADC_ConfigChannel+0x86>
 8003972:	a201      	add	r2, pc, #4	; (adr r2, 8003978 <HAL_ADC_ConfigChannel+0x54>)
 8003974:	f852 f023 	ldr.w	pc, [r2, r3, lsl #2]
 8003978:	08003989 	.word	0x08003989
 800397c:	08003991 	.word	0x08003991
 8003980:	08003999 	.word	0x08003999
 8003984:	080039a1 	.word	0x080039a1
      {
        case 2U:
          sConfig->Rank = ADC_REGULAR_RANK_2;
 8003988:	683b      	ldr	r3, [r7, #0]
 800398a:	220c      	movs	r2, #12
 800398c:	605a      	str	r2, [r3, #4]
          break;
 800398e:	e011      	b.n	80039b4 <HAL_ADC_ConfigChannel+0x90>
        case 3U:
          sConfig->Rank = ADC_REGULAR_RANK_3;
 8003990:	683b      	ldr	r3, [r7, #0]
 8003992:	2212      	movs	r2, #18
 8003994:	605a      	str	r2, [r3, #4]
          break;
 8003996:	e00d      	b.n	80039b4 <HAL_ADC_ConfigChannel+0x90>
        case 4U:
          sConfig->Rank = ADC_REGULAR_RANK_4;
 8003998:	683b      	ldr	r3, [r7, #0]
 800399a:	2218      	movs	r2, #24
 800399c:	605a      	str	r2, [r3, #4]
          break;
 800399e:	e009      	b.n	80039b4 <HAL_ADC_ConfigChannel+0x90>
        case 5U:
          sConfig->Rank = ADC_REGULAR_RANK_5;
 80039a0:	683b      	ldr	r3, [r7, #0]
 80039a2:	f44f 7280 	mov.w	r2, #256	; 0x100
 80039a6:	605a      	str	r2, [r3, #4]
          break;
 80039a8:	e004      	b.n	80039b4 <HAL_ADC_ConfigChannel+0x90>
        /* case 1U */
        default:
          sConfig->Rank = ADC_REGULAR_RANK_1;
 80039aa:	683b      	ldr	r3, [r7, #0]
 80039ac:	2206      	movs	r2, #6
 80039ae:	605a      	str	r2, [r3, #4]
          break;
 80039b0:	e000      	b.n	80039b4 <HAL_ADC_ConfigChannel+0x90>
      }
    }
 80039b2:	bf00      	nop
#endif

    /* Set ADC group regular sequence: channel on the selected scan sequence rank */
    LL_ADC_REG_SetSequencerRanks(hadc->Instance, sConfig->Rank, sConfig->Channel);
 80039b4:	687b      	ldr	r3, [r7, #4]
 80039b6:	6818      	ldr	r0, [r3, #0]
 80039b8:	683b      	ldr	r3, [r7, #0]
 80039ba:	6859      	ldr	r1, [r3, #4]
 80039bc:	683b      	ldr	r3, [r7, #0]
 80039be:	681b      	ldr	r3, [r3, #0]
 80039c0:	461a      	mov	r2, r3
 80039c2:	f7ff fcaf 	bl	8003324 <LL_ADC_REG_SetSequencerRanks>
    /* Parameters update conditioned to ADC state:                              */
    /* Parameters that can be updated when ADC is disabled or enabled without   */
    /* conversion on going on regular group:                                    */
    /*  - Channel sampling time                                                 */
    /*  - Channel offset                                                        */
    tmp_adc_is_conversion_on_going_regular = LL_ADC_REG_IsConversionOngoing(hadc->Instance);
 80039c6:	687b      	ldr	r3, [r7, #4]
 80039c8:	681b      	ldr	r3, [r3, #0]
 80039ca:	4618      	mov	r0, r3
 80039cc:	f7ff fdaf 	bl	800352e <LL_ADC_REG_IsConversionOngoing>
 80039d0:	f8c7 00d0 	str.w	r0, [r7, #208]	; 0xd0
    tmp_adc_is_conversion_on_going_injected = LL_ADC_INJ_IsConversionOngoing(hadc->Instance);
 80039d4:	687b      	ldr	r3, [r7, #4]
 80039d6:	681b      	ldr	r3, [r3, #0]
 80039d8:	4618      	mov	r0, r3
 80039da:	f7ff fdbb 	bl	8003554 <LL_ADC_INJ_IsConversionOngoing>
 80039de:	f8c7 00cc 	str.w	r0, [r7, #204]	; 0xcc
    if ((tmp_adc_is_conversion_on_going_regular == 0UL)
 80039e2:	f8d7 30d0 	ldr.w	r3, [r7, #208]	; 0xd0
 80039e6:	2b00      	cmp	r3, #0
 80039e8:	f040 81a6 	bne.w	8003d38 <HAL_ADC_ConfigChannel+0x414>
        && (tmp_adc_is_conversion_on_going_injected == 0UL)
 80039ec:	f8d7 30cc 	ldr.w	r3, [r7, #204]	; 0xcc
 80039f0:	2b00      	cmp	r3, #0
 80039f2:	f040 81a1 	bne.w	8003d38 <HAL_ADC_ConfigChannel+0x414>
        /* Set ADC sampling time common configuration */
        LL_ADC_SetSamplingTimeCommonConfig(hadc->Instance, LL_ADC_SAMPLINGTIME_COMMON_DEFAULT);
      }
#else
      /* Set sampling time of the selected ADC channel */
      LL_ADC_SetChannelSamplingTime(hadc->Instance, sConfig->Channel, sConfig->SamplingTime);
 80039f6:	687b      	ldr	r3, [r7, #4]
 80039f8:	6818      	ldr	r0, [r3, #0]
 80039fa:	683b      	ldr	r3, [r7, #0]
 80039fc:	6819      	ldr	r1, [r3, #0]
 80039fe:	683b      	ldr	r3, [r7, #0]
 8003a00:	689b      	ldr	r3, [r3, #8]
 8003a02:	461a      	mov	r2, r3
 8003a04:	f7ff fcba 	bl	800337c <LL_ADC_SetChannelSamplingTime>

      /* Configure the offset: offset enable/disable, channel, offset value */

      /* Shift the offset with respect to the selected ADC resolution. */
      /* Offset has to be left-aligned on bit 11, the LSB (right bits) are set to 0 */
      tmpOffsetShifted = ADC_OFFSET_SHIFT_RESOLUTION(hadc, (uint32_t)sConfig->Offset);
 8003a08:	683b      	ldr	r3, [r7, #0]
 8003a0a:	695a      	ldr	r2, [r3, #20]
 8003a0c:	687b      	ldr	r3, [r7, #4]
 8003a0e:	681b      	ldr	r3, [r3, #0]
 8003a10:	68db      	ldr	r3, [r3, #12]
 8003a12:	08db      	lsrs	r3, r3, #3
 8003a14:	f003 0303 	and.w	r3, r3, #3
 8003a18:	005b      	lsls	r3, r3, #1
 8003a1a:	fa02 f303 	lsl.w	r3, r2, r3
 8003a1e:	f8c7 30c8 	str.w	r3, [r7, #200]	; 0xc8

      if (sConfig->OffsetNumber != ADC_OFFSET_NONE)
 8003a22:	683b      	ldr	r3, [r7, #0]
 8003a24:	691b      	ldr	r3, [r3, #16]
 8003a26:	2b04      	cmp	r3, #4
 8003a28:	d00a      	beq.n	8003a40 <HAL_ADC_ConfigChannel+0x11c>
      {
        /* Set ADC selected offset number */
        LL_ADC_SetOffset(hadc->Instance, sConfig->OffsetNumber, sConfig->Channel, tmpOffsetShifted);
 8003a2a:	687b      	ldr	r3, [r7, #4]
 8003a2c:	6818      	ldr	r0, [r3, #0]
 8003a2e:	683b      	ldr	r3, [r7, #0]
 8003a30:	6919      	ldr	r1, [r3, #16]
 8003a32:	683b      	ldr	r3, [r7, #0]
 8003a34:	681a      	ldr	r2, [r3, #0]
 8003a36:	f8d7 30c8 	ldr.w	r3, [r7, #200]	; 0xc8
 8003a3a:	f7ff fc0b 	bl	8003254 <LL_ADC_SetOffset>
 8003a3e:	e17b      	b.n	8003d38 <HAL_ADC_ConfigChannel+0x414>
      }
      else
      {
        /* Scan each offset register to check if the selected channel is targeted. */
        /* If this is the case, the corresponding offset number is disabled.       */
        if (__LL_ADC_CHANNEL_TO_DECIMAL_NB(LL_ADC_GetOffsetChannel(hadc->Instance, LL_ADC_OFFSET_1))
 8003a40:	687b      	ldr	r3, [r7, #4]
 8003a42:	681b      	ldr	r3, [r3, #0]
 8003a44:	2100      	movs	r1, #0
 8003a46:	4618      	mov	r0, r3
 8003a48:	f7ff fc28 	bl	800329c <LL_ADC_GetOffsetChannel>
 8003a4c:	4603      	mov	r3, r0
 8003a4e:	f3c3 0312 	ubfx	r3, r3, #0, #19
 8003a52:	2b00      	cmp	r3, #0
 8003a54:	d10a      	bne.n	8003a6c <HAL_ADC_ConfigChannel+0x148>
 8003a56:	687b      	ldr	r3, [r7, #4]
 8003a58:	681b      	ldr	r3, [r3, #0]
 8003a5a:	2100      	movs	r1, #0
 8003a5c:	4618      	mov	r0, r3
 8003a5e:	f7ff fc1d 	bl	800329c <LL_ADC_GetOffsetChannel>
 8003a62:	4603      	mov	r3, r0
 8003a64:	0e9b      	lsrs	r3, r3, #26
 8003a66:	f003 021f 	and.w	r2, r3, #31
 8003a6a:	e01e      	b.n	8003aaa <HAL_ADC_ConfigChannel+0x186>
 8003a6c:	687b      	ldr	r3, [r7, #4]
 8003a6e:	681b      	ldr	r3, [r3, #0]
 8003a70:	2100      	movs	r1, #0
 8003a72:	4618      	mov	r0, r3
 8003a74:	f7ff fc12 	bl	800329c <LL_ADC_GetOffsetChannel>
 8003a78:	4603      	mov	r3, r0
 8003a7a:	f8c7 30bc 	str.w	r3, [r7, #188]	; 0xbc
  uint32_t result;

#if ((defined (__ARM_ARCH_7M__      ) && (__ARM_ARCH_7M__      == 1)) || \
     (defined (__ARM_ARCH_7EM__     ) && (__ARM_ARCH_7EM__     == 1)) || \
     (defined (__ARM_ARCH_8M_MAIN__ ) && (__ARM_ARCH_8M_MAIN__ == 1))    )
   __ASM volatile ("rbit %0, %1" : "=r" (result) : "r" (value) );
 8003a7e:	f8d7 30bc 	ldr.w	r3, [r7, #188]	; 0xbc
 8003a82:	fa93 f3a3 	rbit	r3, r3
 8003a86:	f8c7 30b8 	str.w	r3, [r7, #184]	; 0xb8
    result |= value & 1U;
    s--;
  }
  result <<= s;                        /* shift when v's highest bits are zero */
#endif
  return result;
 8003a8a:	f8d7 30b8 	ldr.w	r3, [r7, #184]	; 0xb8
 8003a8e:	f8c7 30c0 	str.w	r3, [r7, #192]	; 0xc0
     optimisations using the logic "value was passed to __builtin_clz, so it
     is non-zero".
     ARM GCC 7.3 and possibly earlier will optimise this test away, leaving a
     single CLZ instruction.
   */
  if (value == 0U)
 8003a92:	f8d7 30c0 	ldr.w	r3, [r7, #192]	; 0xc0
 8003a96:	2b00      	cmp	r3, #0
 8003a98:	d101      	bne.n	8003a9e <HAL_ADC_ConfigChannel+0x17a>
  {
    return 32U;
 8003a9a:	2320      	movs	r3, #32
 8003a9c:	e004      	b.n	8003aa8 <HAL_ADC_ConfigChannel+0x184>
  }
  return __builtin_clz(value);
 8003a9e:	f8d7 30c0 	ldr.w	r3, [r7, #192]	; 0xc0
 8003aa2:	fab3 f383 	clz	r3, r3
 8003aa6:	b2db      	uxtb	r3, r3
 8003aa8:	461a      	mov	r2, r3
            == __LL_ADC_CHANNEL_TO_DECIMAL_NB(sConfig->Channel))
 8003aaa:	683b      	ldr	r3, [r7, #0]
 8003aac:	681b      	ldr	r3, [r3, #0]
 8003aae:	f3c3 0312 	ubfx	r3, r3, #0, #19
 8003ab2:	2b00      	cmp	r3, #0
 8003ab4:	d105      	bne.n	8003ac2 <HAL_ADC_ConfigChannel+0x19e>
 8003ab6:	683b      	ldr	r3, [r7, #0]
 8003ab8:	681b      	ldr	r3, [r3, #0]
 8003aba:	0e9b      	lsrs	r3, r3, #26
 8003abc:	f003 031f 	and.w	r3, r3, #31
 8003ac0:	e018      	b.n	8003af4 <HAL_ADC_ConfigChannel+0x1d0>
 8003ac2:	683b      	ldr	r3, [r7, #0]
 8003ac4:	681b      	ldr	r3, [r3, #0]
 8003ac6:	f8c7 30b0 	str.w	r3, [r7, #176]	; 0xb0
   __ASM volatile ("rbit %0, %1" : "=r" (result) : "r" (value) );
 8003aca:	f8d7 30b0 	ldr.w	r3, [r7, #176]	; 0xb0
 8003ace:	fa93 f3a3 	rbit	r3, r3
 8003ad2:	f8c7 30ac 	str.w	r3, [r7, #172]	; 0xac
  return result;
 8003ad6:	f8d7 30ac 	ldr.w	r3, [r7, #172]	; 0xac
 8003ada:	f8c7 30b4 	str.w	r3, [r7, #180]	; 0xb4
  if (value == 0U)
 8003ade:	f8d7 30b4 	ldr.w	r3, [r7, #180]	; 0xb4
 8003ae2:	2b00      	cmp	r3, #0
 8003ae4:	d101      	bne.n	8003aea <HAL_ADC_ConfigChannel+0x1c6>
    return 32U;
 8003ae6:	2320      	movs	r3, #32
 8003ae8:	e004      	b.n	8003af4 <HAL_ADC_ConfigChannel+0x1d0>
  return __builtin_clz(value);
 8003aea:	f8d7 30b4 	ldr.w	r3, [r7, #180]	; 0xb4
 8003aee:	fab3 f383 	clz	r3, r3
 8003af2:	b2db      	uxtb	r3, r3
        if (__LL_ADC_CHANNEL_TO_DECIMAL_NB(LL_ADC_GetOffsetChannel(hadc->Instance, LL_ADC_OFFSET_1))
 8003af4:	429a      	cmp	r2, r3
 8003af6:	d106      	bne.n	8003b06 <HAL_ADC_ConfigChannel+0x1e2>
        {
          LL_ADC_SetOffsetState(hadc->Instance, LL_ADC_OFFSET_1, LL_ADC_OFFSET_DISABLE);
 8003af8:	687b      	ldr	r3, [r7, #4]
 8003afa:	681b      	ldr	r3, [r3, #0]
 8003afc:	2200      	movs	r2, #0
 8003afe:	2100      	movs	r1, #0
 8003b00:	4618      	mov	r0, r3
 8003b02:	f7ff fbe1 	bl	80032c8 <LL_ADC_SetOffsetState>
        }
        if (__LL_ADC_CHANNEL_TO_DECIMAL_NB(LL_ADC_GetOffsetChannel(hadc->Instance, LL_ADC_OFFSET_2))
 8003b06:	687b      	ldr	r3, [r7, #4]
 8003b08:	681b      	ldr	r3, [r3, #0]
 8003b0a:	2101      	movs	r1, #1
 8003b0c:	4618      	mov	r0, r3
 8003b0e:	f7ff fbc5 	bl	800329c <LL_ADC_GetOffsetChannel>
 8003b12:	4603      	mov	r3, r0
 8003b14:	f3c3 0312 	ubfx	r3, r3, #0, #19
 8003b18:	2b00      	cmp	r3, #0
 8003b1a:	d10a      	bne.n	8003b32 <HAL_ADC_ConfigChannel+0x20e>
 8003b1c:	687b      	ldr	r3, [r7, #4]
 8003b1e:	681b      	ldr	r3, [r3, #0]
 8003b20:	2101      	movs	r1, #1
 8003b22:	4618      	mov	r0, r3
 8003b24:	f7ff fbba 	bl	800329c <LL_ADC_GetOffsetChannel>
 8003b28:	4603      	mov	r3, r0
 8003b2a:	0e9b      	lsrs	r3, r3, #26
 8003b2c:	f003 021f 	and.w	r2, r3, #31
 8003b30:	e01e      	b.n	8003b70 <HAL_ADC_ConfigChannel+0x24c>
 8003b32:	687b      	ldr	r3, [r7, #4]
 8003b34:	681b      	ldr	r3, [r3, #0]
 8003b36:	2101      	movs	r1, #1
 8003b38:	4618      	mov	r0, r3
 8003b3a:	f7ff fbaf 	bl	800329c <LL_ADC_GetOffsetChannel>
 8003b3e:	4603      	mov	r3, r0
 8003b40:	f8c7 30a4 	str.w	r3, [r7, #164]	; 0xa4
   __ASM volatile ("rbit %0, %1" : "=r" (result) : "r" (value) );
 8003b44:	f8d7 30a4 	ldr.w	r3, [r7, #164]	; 0xa4
 8003b48:	fa93 f3a3 	rbit	r3, r3
 8003b4c:	f8c7 30a0 	str.w	r3, [r7, #160]	; 0xa0
  return result;
 8003b50:	f8d7 30a0 	ldr.w	r3, [r7, #160]	; 0xa0
 8003b54:	f8c7 30a8 	str.w	r3, [r7, #168]	; 0xa8
  if (value == 0U)
 8003b58:	f8d7 30a8 	ldr.w	r3, [r7, #168]	; 0xa8
 8003b5c:	2b00      	cmp	r3, #0
 8003b5e:	d101      	bne.n	8003b64 <HAL_ADC_ConfigChannel+0x240>
    return 32U;
 8003b60:	2320      	movs	r3, #32
 8003b62:	e004      	b.n	8003b6e <HAL_ADC_ConfigChannel+0x24a>
  return __builtin_clz(value);
 8003b64:	f8d7 30a8 	ldr.w	r3, [r7, #168]	; 0xa8
 8003b68:	fab3 f383 	clz	r3, r3
 8003b6c:	b2db      	uxtb	r3, r3
 8003b6e:	461a      	mov	r2, r3
            == __LL_ADC_CHANNEL_TO_DECIMAL_NB(sConfig->Channel))
 8003b70:	683b      	ldr	r3, [r7, #0]
 8003b72:	681b      	ldr	r3, [r3, #0]
 8003b74:	f3c3 0312 	ubfx	r3, r3, #0, #19
 8003b78:	2b00      	cmp	r3, #0
 8003b7a:	d105      	bne.n	8003b88 <HAL_ADC_ConfigChannel+0x264>
 8003b7c:	683b      	ldr	r3, [r7, #0]
 8003b7e:	681b      	ldr	r3, [r3, #0]
 8003b80:	0e9b      	lsrs	r3, r3, #26
 8003b82:	f003 031f 	and.w	r3, r3, #31
 8003b86:	e018      	b.n	8003bba <HAL_ADC_ConfigChannel+0x296>
 8003b88:	683b      	ldr	r3, [r7, #0]
 8003b8a:	681b      	ldr	r3, [r3, #0]
 8003b8c:	f8c7 3098 	str.w	r3, [r7, #152]	; 0x98
   __ASM volatile ("rbit %0, %1" : "=r" (result) : "r" (value) );
 8003b90:	f8d7 3098 	ldr.w	r3, [r7, #152]	; 0x98
 8003b94:	fa93 f3a3 	rbit	r3, r3
 8003b98:	f8c7 3094 	str.w	r3, [r7, #148]	; 0x94
  return result;
 8003b9c:	f8d7 3094 	ldr.w	r3, [r7, #148]	; 0x94
 8003ba0:	f8c7 309c 	str.w	r3, [r7, #156]	; 0x9c
  if (value == 0U)
 8003ba4:	f8d7 309c 	ldr.w	r3, [r7, #156]	; 0x9c
 8003ba8:	2b00      	cmp	r3, #0
 8003baa:	d101      	bne.n	8003bb0 <HAL_ADC_ConfigChannel+0x28c>
    return 32U;
 8003bac:	2320      	movs	r3, #32
 8003bae:	e004      	b.n	8003bba <HAL_ADC_ConfigChannel+0x296>
  return __builtin_clz(value);
 8003bb0:	f8d7 309c 	ldr.w	r3, [r7, #156]	; 0x9c
 8003bb4:	fab3 f383 	clz	r3, r3
 8003bb8:	b2db      	uxtb	r3, r3
        if (__LL_ADC_CHANNEL_TO_DECIMAL_NB(LL_ADC_GetOffsetChannel(hadc->Instance, LL_ADC_OFFSET_2))
 8003bba:	429a      	cmp	r2, r3
 8003bbc:	d106      	bne.n	8003bcc <HAL_ADC_ConfigChannel+0x2a8>
        {
          LL_ADC_SetOffsetState(hadc->Instance, LL_ADC_OFFSET_2, LL_ADC_OFFSET_DISABLE);
 8003bbe:	687b      	ldr	r3, [r7, #4]
 8003bc0:	681b      	ldr	r3, [r3, #0]
 8003bc2:	2200      	movs	r2, #0
 8003bc4:	2101      	movs	r1, #1
 8003bc6:	4618      	mov	r0, r3
 8003bc8:	f7ff fb7e 	bl	80032c8 <LL_ADC_SetOffsetState>
        }
        if (__LL_ADC_CHANNEL_TO_DECIMAL_NB(LL_ADC_GetOffsetChannel(hadc->Instance, LL_ADC_OFFSET_3))
 8003bcc:	687b      	ldr	r3, [r7, #4]
 8003bce:	681b      	ldr	r3, [r3, #0]
 8003bd0:	2102      	movs	r1, #2
 8003bd2:	4618      	mov	r0, r3
 8003bd4:	f7ff fb62 	bl	800329c <LL_ADC_GetOffsetChannel>
 8003bd8:	4603      	mov	r3, r0
 8003bda:	f3c3 0312 	ubfx	r3, r3, #0, #19
 8003bde:	2b00      	cmp	r3, #0
 8003be0:	d10a      	bne.n	8003bf8 <HAL_ADC_ConfigChannel+0x2d4>
 8003be2:	687b      	ldr	r3, [r7, #4]
 8003be4:	681b      	ldr	r3, [r3, #0]
 8003be6:	2102      	movs	r1, #2
 8003be8:	4618      	mov	r0, r3
 8003bea:	f7ff fb57 	bl	800329c <LL_ADC_GetOffsetChannel>
 8003bee:	4603      	mov	r3, r0
 8003bf0:	0e9b      	lsrs	r3, r3, #26
 8003bf2:	f003 021f 	and.w	r2, r3, #31
 8003bf6:	e01e      	b.n	8003c36 <HAL_ADC_ConfigChannel+0x312>
 8003bf8:	687b      	ldr	r3, [r7, #4]
 8003bfa:	681b      	ldr	r3, [r3, #0]
 8003bfc:	2102      	movs	r1, #2
 8003bfe:	4618      	mov	r0, r3
 8003c00:	f7ff fb4c 	bl	800329c <LL_ADC_GetOffsetChannel>
 8003c04:	4603      	mov	r3, r0
 8003c06:	f8c7 308c 	str.w	r3, [r7, #140]	; 0x8c
   __ASM volatile ("rbit %0, %1" : "=r" (result) : "r" (value) );
 8003c0a:	f8d7 308c 	ldr.w	r3, [r7, #140]	; 0x8c
 8003c0e:	fa93 f3a3 	rbit	r3, r3
 8003c12:	f8c7 3088 	str.w	r3, [r7, #136]	; 0x88
  return result;
 8003c16:	f8d7 3088 	ldr.w	r3, [r7, #136]	; 0x88
 8003c1a:	f8c7 3090 	str.w	r3, [r7, #144]	; 0x90
  if (value == 0U)
 8003c1e:	f8d7 3090 	ldr.w	r3, [r7, #144]	; 0x90
 8003c22:	2b00      	cmp	r3, #0
 8003c24:	d101      	bne.n	8003c2a <HAL_ADC_ConfigChannel+0x306>
    return 32U;
 8003c26:	2320      	movs	r3, #32
 8003c28:	e004      	b.n	8003c34 <HAL_ADC_ConfigChannel+0x310>
  return __builtin_clz(value);
 8003c2a:	f8d7 3090 	ldr.w	r3, [r7, #144]	; 0x90
 8003c2e:	fab3 f383 	clz	r3, r3
 8003c32:	b2db      	uxtb	r3, r3
 8003c34:	461a      	mov	r2, r3
            == __LL_ADC_CHANNEL_TO_DECIMAL_NB(sConfig->Channel))
 8003c36:	683b      	ldr	r3, [r7, #0]
 8003c38:	681b      	ldr	r3, [r3, #0]
 8003c3a:	f3c3 0312 	ubfx	r3, r3, #0, #19
 8003c3e:	2b00      	cmp	r3, #0
 8003c40:	d105      	bne.n	8003c4e <HAL_ADC_ConfigChannel+0x32a>
 8003c42:	683b      	ldr	r3, [r7, #0]
 8003c44:	681b      	ldr	r3, [r3, #0]
 8003c46:	0e9b      	lsrs	r3, r3, #26
 8003c48:	f003 031f 	and.w	r3, r3, #31
 8003c4c:	e016      	b.n	8003c7c <HAL_ADC_ConfigChannel+0x358>
 8003c4e:	683b      	ldr	r3, [r7, #0]
 8003c50:	681b      	ldr	r3, [r3, #0]
 8003c52:	f8c7 3080 	str.w	r3, [r7, #128]	; 0x80
   __ASM volatile ("rbit %0, %1" : "=r" (result) : "r" (value) );
 8003c56:	f8d7 3080 	ldr.w	r3, [r7, #128]	; 0x80
 8003c5a:	fa93 f3a3 	rbit	r3, r3
 8003c5e:	67fb      	str	r3, [r7, #124]	; 0x7c
  return result;
 8003c60:	6ffb      	ldr	r3, [r7, #124]	; 0x7c
 8003c62:	f8c7 3084 	str.w	r3, [r7, #132]	; 0x84
  if (value == 0U)
 8003c66:	f8d7 3084 	ldr.w	r3, [r7, #132]	; 0x84
 8003c6a:	2b00      	cmp	r3, #0
 8003c6c:	d101      	bne.n	8003c72 <HAL_ADC_ConfigChannel+0x34e>
    return 32U;
 8003c6e:	2320      	movs	r3, #32
 8003c70:	e004      	b.n	8003c7c <HAL_ADC_ConfigChannel+0x358>
  return __builtin_clz(value);
 8003c72:	f8d7 3084 	ldr.w	r3, [r7, #132]	; 0x84
 8003c76:	fab3 f383 	clz	r3, r3
 8003c7a:	b2db      	uxtb	r3, r3
        if (__LL_ADC_CHANNEL_TO_DECIMAL_NB(LL_ADC_GetOffsetChannel(hadc->Instance, LL_ADC_OFFSET_3))
 8003c7c:	429a      	cmp	r2, r3
 8003c7e:	d106      	bne.n	8003c8e <HAL_ADC_ConfigChannel+0x36a>
        {
          LL_ADC_SetOffsetState(hadc->Instance, LL_ADC_OFFSET_3, LL_ADC_OFFSET_DISABLE);
 8003c80:	687b      	ldr	r3, [r7, #4]
 8003c82:	681b      	ldr	r3, [r3, #0]
 8003c84:	2200      	movs	r2, #0
 8003c86:	2102      	movs	r1, #2
 8003c88:	4618      	mov	r0, r3
 8003c8a:	f7ff fb1d 	bl	80032c8 <LL_ADC_SetOffsetState>
        }
        if (__LL_ADC_CHANNEL_TO_DECIMAL_NB(LL_ADC_GetOffsetChannel(hadc->Instance, LL_ADC_OFFSET_4))
 8003c8e:	687b      	ldr	r3, [r7, #4]
 8003c90:	681b      	ldr	r3, [r3, #0]
 8003c92:	2103      	movs	r1, #3
 8003c94:	4618      	mov	r0, r3
 8003c96:	f7ff fb01 	bl	800329c <LL_ADC_GetOffsetChannel>
 8003c9a:	4603      	mov	r3, r0
 8003c9c:	f3c3 0312 	ubfx	r3, r3, #0, #19
 8003ca0:	2b00      	cmp	r3, #0
 8003ca2:	d10a      	bne.n	8003cba <HAL_ADC_ConfigChannel+0x396>
 8003ca4:	687b      	ldr	r3, [r7, #4]
 8003ca6:	681b      	ldr	r3, [r3, #0]
 8003ca8:	2103      	movs	r1, #3
 8003caa:	4618      	mov	r0, r3
 8003cac:	f7ff faf6 	bl	800329c <LL_ADC_GetOffsetChannel>
 8003cb0:	4603      	mov	r3, r0
 8003cb2:	0e9b      	lsrs	r3, r3, #26
 8003cb4:	f003 021f 	and.w	r2, r3, #31
 8003cb8:	e017      	b.n	8003cea <HAL_ADC_ConfigChannel+0x3c6>
 8003cba:	687b      	ldr	r3, [r7, #4]
 8003cbc:	681b      	ldr	r3, [r3, #0]
 8003cbe:	2103      	movs	r1, #3
 8003cc0:	4618      	mov	r0, r3
 8003cc2:	f7ff faeb 	bl	800329c <LL_ADC_GetOffsetChannel>
 8003cc6:	4603      	mov	r3, r0
 8003cc8:	677b      	str	r3, [r7, #116]	; 0x74
   __ASM volatile ("rbit %0, %1" : "=r" (result) : "r" (value) );
 8003cca:	6f7b      	ldr	r3, [r7, #116]	; 0x74
 8003ccc:	fa93 f3a3 	rbit	r3, r3
 8003cd0:	673b      	str	r3, [r7, #112]	; 0x70
  return result;
 8003cd2:	6f3b      	ldr	r3, [r7, #112]	; 0x70
 8003cd4:	67bb      	str	r3, [r7, #120]	; 0x78
  if (value == 0U)
 8003cd6:	6fbb      	ldr	r3, [r7, #120]	; 0x78
 8003cd8:	2b00      	cmp	r3, #0
 8003cda:	d101      	bne.n	8003ce0 <HAL_ADC_ConfigChannel+0x3bc>
    return 32U;
 8003cdc:	2320      	movs	r3, #32
 8003cde:	e003      	b.n	8003ce8 <HAL_ADC_ConfigChannel+0x3c4>
  return __builtin_clz(value);
 8003ce0:	6fbb      	ldr	r3, [r7, #120]	; 0x78
 8003ce2:	fab3 f383 	clz	r3, r3
 8003ce6:	b2db      	uxtb	r3, r3
 8003ce8:	461a      	mov	r2, r3
            == __LL_ADC_CHANNEL_TO_DECIMAL_NB(sConfig->Channel))
 8003cea:	683b      	ldr	r3, [r7, #0]
 8003cec:	681b      	ldr	r3, [r3, #0]
 8003cee:	f3c3 0312 	ubfx	r3, r3, #0, #19
 8003cf2:	2b00      	cmp	r3, #0
 8003cf4:	d105      	bne.n	8003d02 <HAL_ADC_ConfigChannel+0x3de>
 8003cf6:	683b      	ldr	r3, [r7, #0]
 8003cf8:	681b      	ldr	r3, [r3, #0]
 8003cfa:	0e9b      	lsrs	r3, r3, #26
 8003cfc:	f003 031f 	and.w	r3, r3, #31
 8003d00:	e011      	b.n	8003d26 <HAL_ADC_ConfigChannel+0x402>
 8003d02:	683b      	ldr	r3, [r7, #0]
 8003d04:	681b      	ldr	r3, [r3, #0]
 8003d06:	66bb      	str	r3, [r7, #104]	; 0x68
   __ASM volatile ("rbit %0, %1" : "=r" (result) : "r" (value) );
 8003d08:	6ebb      	ldr	r3, [r7, #104]	; 0x68
 8003d0a:	fa93 f3a3 	rbit	r3, r3
 8003d0e:	667b      	str	r3, [r7, #100]	; 0x64
  return result;
 8003d10:	6e7b      	ldr	r3, [r7, #100]	; 0x64
 8003d12:	66fb      	str	r3, [r7, #108]	; 0x6c
  if (value == 0U)
 8003d14:	6efb      	ldr	r3, [r7, #108]	; 0x6c
 8003d16:	2b00      	cmp	r3, #0
 8003d18:	d101      	bne.n	8003d1e <HAL_ADC_ConfigChannel+0x3fa>
    return 32U;
 8003d1a:	2320      	movs	r3, #32
 8003d1c:	e003      	b.n	8003d26 <HAL_ADC_ConfigChannel+0x402>
  return __builtin_clz(value);
 8003d1e:	6efb      	ldr	r3, [r7, #108]	; 0x6c
 8003d20:	fab3 f383 	clz	r3, r3
 8003d24:	b2db      	uxtb	r3, r3
        if (__LL_ADC_CHANNEL_TO_DECIMAL_NB(LL_ADC_GetOffsetChannel(hadc->Instance, LL_ADC_OFFSET_4))
 8003d26:	429a      	cmp	r2, r3
 8003d28:	d106      	bne.n	8003d38 <HAL_ADC_ConfigChannel+0x414>
        {
          LL_ADC_SetOffsetState(hadc->Instance, LL_ADC_OFFSET_4, LL_ADC_OFFSET_DISABLE);
 8003d2a:	687b      	ldr	r3, [r7, #4]
 8003d2c:	681b      	ldr	r3, [r3, #0]
 8003d2e:	2200      	movs	r2, #0
 8003d30:	2103      	movs	r1, #3
 8003d32:	4618      	mov	r0, r3
 8003d34:	f7ff fac8 	bl	80032c8 <LL_ADC_SetOffsetState>
    }

    /* Parameters update conditioned to ADC state:                              */
    /* Parameters that can be updated only when ADC is disabled:                */
    /*  - Single or differential mode                                           */
    if (LL_ADC_IsEnabled(hadc->Instance) == 0UL)
 8003d38:	687b      	ldr	r3, [r7, #4]
 8003d3a:	681b      	ldr	r3, [r3, #0]
 8003d3c:	4618      	mov	r0, r3
 8003d3e:	f7ff fbcf 	bl	80034e0 <LL_ADC_IsEnabled>
 8003d42:	4603      	mov	r3, r0
 8003d44:	2b00      	cmp	r3, #0
 8003d46:	f040 813f 	bne.w	8003fc8 <HAL_ADC_ConfigChannel+0x6a4>
    {
      /* Set mode single-ended or differential input of the selected ADC channel */
      LL_ADC_SetChannelSingleDiff(hadc->Instance, sConfig->Channel, sConfig->SingleDiff);
 8003d4a:	687b      	ldr	r3, [r7, #4]
 8003d4c:	6818      	ldr	r0, [r3, #0]
 8003d4e:	683b      	ldr	r3, [r7, #0]
 8003d50:	6819      	ldr	r1, [r3, #0]
 8003d52:	683b      	ldr	r3, [r7, #0]
 8003d54:	68db      	ldr	r3, [r3, #12]
 8003d56:	461a      	mov	r2, r3
 8003d58:	f7ff fb3c 	bl	80033d4 <LL_ADC_SetChannelSingleDiff>

      /* Configuration of differential mode */
      if (sConfig->SingleDiff == ADC_DIFFERENTIAL_ENDED)
 8003d5c:	683b      	ldr	r3, [r7, #0]
 8003d5e:	68db      	ldr	r3, [r3, #12]
 8003d60:	4a8e      	ldr	r2, [pc, #568]	; (8003f9c <HAL_ADC_ConfigChannel+0x678>)
 8003d62:	4293      	cmp	r3, r2
 8003d64:	f040 8130 	bne.w	8003fc8 <HAL_ADC_ConfigChannel+0x6a4>
      {
        /* Set sampling time of the selected ADC channel */
        /* Note: ADC channel number masked with value "0x1F" to ensure shift value within 32 bits range */
        LL_ADC_SetChannelSamplingTime(hadc->Instance,
 8003d68:	687b      	ldr	r3, [r7, #4]
 8003d6a:	6818      	ldr	r0, [r3, #0]
                                      (uint32_t)(__LL_ADC_DECIMAL_NB_TO_CHANNEL((__LL_ADC_CHANNEL_TO_DECIMAL_NB((uint32_t)sConfig->Channel) + 1UL) & 0x1FUL)),
 8003d6c:	683b      	ldr	r3, [r7, #0]
 8003d6e:	681b      	ldr	r3, [r3, #0]
 8003d70:	f3c3 0312 	ubfx	r3, r3, #0, #19
 8003d74:	2b00      	cmp	r3, #0
 8003d76:	d10b      	bne.n	8003d90 <HAL_ADC_ConfigChannel+0x46c>
 8003d78:	683b      	ldr	r3, [r7, #0]
 8003d7a:	681b      	ldr	r3, [r3, #0]
 8003d7c:	0e9b      	lsrs	r3, r3, #26
 8003d7e:	3301      	adds	r3, #1
 8003d80:	f003 031f 	and.w	r3, r3, #31
 8003d84:	2b09      	cmp	r3, #9
 8003d86:	bf94      	ite	ls
 8003d88:	2301      	movls	r3, #1
 8003d8a:	2300      	movhi	r3, #0
 8003d8c:	b2db      	uxtb	r3, r3
 8003d8e:	e019      	b.n	8003dc4 <HAL_ADC_ConfigChannel+0x4a0>
 8003d90:	683b      	ldr	r3, [r7, #0]
 8003d92:	681b      	ldr	r3, [r3, #0]
 8003d94:	65fb      	str	r3, [r7, #92]	; 0x5c
   __ASM volatile ("rbit %0, %1" : "=r" (result) : "r" (value) );
 8003d96:	6dfb      	ldr	r3, [r7, #92]	; 0x5c
 8003d98:	fa93 f3a3 	rbit	r3, r3
 8003d9c:	65bb      	str	r3, [r7, #88]	; 0x58
  return result;
 8003d9e:	6dbb      	ldr	r3, [r7, #88]	; 0x58
 8003da0:	663b      	str	r3, [r7, #96]	; 0x60
  if (value == 0U)
 8003da2:	6e3b      	ldr	r3, [r7, #96]	; 0x60
 8003da4:	2b00      	cmp	r3, #0
 8003da6:	d101      	bne.n	8003dac <HAL_ADC_ConfigChannel+0x488>
    return 32U;
 8003da8:	2320      	movs	r3, #32
 8003daa:	e003      	b.n	8003db4 <HAL_ADC_ConfigChannel+0x490>
  return __builtin_clz(value);
 8003dac:	6e3b      	ldr	r3, [r7, #96]	; 0x60
 8003dae:	fab3 f383 	clz	r3, r3
 8003db2:	b2db      	uxtb	r3, r3
 8003db4:	3301      	adds	r3, #1
 8003db6:	f003 031f 	and.w	r3, r3, #31
 8003dba:	2b09      	cmp	r3, #9
 8003dbc:	bf94      	ite	ls
 8003dbe:	2301      	movls	r3, #1
 8003dc0:	2300      	movhi	r3, #0
 8003dc2:	b2db      	uxtb	r3, r3
        LL_ADC_SetChannelSamplingTime(hadc->Instance,
 8003dc4:	2b00      	cmp	r3, #0
 8003dc6:	d079      	beq.n	8003ebc <HAL_ADC_ConfigChannel+0x598>
                                      (uint32_t)(__LL_ADC_DECIMAL_NB_TO_CHANNEL((__LL_ADC_CHANNEL_TO_DECIMAL_NB((uint32_t)sConfig->Channel) + 1UL) & 0x1FUL)),
 8003dc8:	683b      	ldr	r3, [r7, #0]
 8003dca:	681b      	ldr	r3, [r3, #0]
 8003dcc:	f3c3 0312 	ubfx	r3, r3, #0, #19
 8003dd0:	2b00      	cmp	r3, #0
 8003dd2:	d107      	bne.n	8003de4 <HAL_ADC_ConfigChannel+0x4c0>
 8003dd4:	683b      	ldr	r3, [r7, #0]
 8003dd6:	681b      	ldr	r3, [r3, #0]
 8003dd8:	0e9b      	lsrs	r3, r3, #26
 8003dda:	3301      	adds	r3, #1
 8003ddc:	069b      	lsls	r3, r3, #26
 8003dde:	f003 42f8 	and.w	r2, r3, #2080374784	; 0x7c000000
 8003de2:	e015      	b.n	8003e10 <HAL_ADC_ConfigChannel+0x4ec>
 8003de4:	683b      	ldr	r3, [r7, #0]
 8003de6:	681b      	ldr	r3, [r3, #0]
 8003de8:	653b      	str	r3, [r7, #80]	; 0x50
   __ASM volatile ("rbit %0, %1" : "=r" (result) : "r" (value) );
 8003dea:	6d3b      	ldr	r3, [r7, #80]	; 0x50
 8003dec:	fa93 f3a3 	rbit	r3, r3
 8003df0:	64fb      	str	r3, [r7, #76]	; 0x4c
  return result;
 8003df2:	6cfb      	ldr	r3, [r7, #76]	; 0x4c
 8003df4:	657b      	str	r3, [r7, #84]	; 0x54
  if (value == 0U)
 8003df6:	6d7b      	ldr	r3, [r7, #84]	; 0x54
 8003df8:	2b00      	cmp	r3, #0
 8003dfa:	d101      	bne.n	8003e00 <HAL_ADC_ConfigChannel+0x4dc>
    return 32U;
 8003dfc:	2320      	movs	r3, #32
 8003dfe:	e003      	b.n	8003e08 <HAL_ADC_ConfigChannel+0x4e4>
  return __builtin_clz(value);
 8003e00:	6d7b      	ldr	r3, [r7, #84]	; 0x54
 8003e02:	fab3 f383 	clz	r3, r3
 8003e06:	b2db      	uxtb	r3, r3
 8003e08:	3301      	adds	r3, #1
 8003e0a:	069b      	lsls	r3, r3, #26
 8003e0c:	f003 42f8 	and.w	r2, r3, #2080374784	; 0x7c000000
 8003e10:	683b      	ldr	r3, [r7, #0]
 8003e12:	681b      	ldr	r3, [r3, #0]
 8003e14:	f3c3 0312 	ubfx	r3, r3, #0, #19
 8003e18:	2b00      	cmp	r3, #0
 8003e1a:	d109      	bne.n	8003e30 <HAL_ADC_ConfigChannel+0x50c>
 8003e1c:	683b      	ldr	r3, [r7, #0]
 8003e1e:	681b      	ldr	r3, [r3, #0]
 8003e20:	0e9b      	lsrs	r3, r3, #26
 8003e22:	3301      	adds	r3, #1
 8003e24:	f003 031f 	and.w	r3, r3, #31
 8003e28:	2101      	movs	r1, #1
 8003e2a:	fa01 f303 	lsl.w	r3, r1, r3
 8003e2e:	e017      	b.n	8003e60 <HAL_ADC_ConfigChannel+0x53c>
 8003e30:	683b      	ldr	r3, [r7, #0]
 8003e32:	681b      	ldr	r3, [r3, #0]
 8003e34:	647b      	str	r3, [r7, #68]	; 0x44
   __ASM volatile ("rbit %0, %1" : "=r" (result) : "r" (value) );
 8003e36:	6c7b      	ldr	r3, [r7, #68]	; 0x44
 8003e38:	fa93 f3a3 	rbit	r3, r3
 8003e3c:	643b      	str	r3, [r7, #64]	; 0x40
  return result;
 8003e3e:	6c3b      	ldr	r3, [r7, #64]	; 0x40
 8003e40:	64bb      	str	r3, [r7, #72]	; 0x48
  if (value == 0U)
 8003e42:	6cbb      	ldr	r3, [r7, #72]	; 0x48
 8003e44:	2b00      	cmp	r3, #0
 8003e46:	d101      	bne.n	8003e4c <HAL_ADC_ConfigChannel+0x528>
    return 32U;
 8003e48:	2320      	movs	r3, #32
 8003e4a:	e003      	b.n	8003e54 <HAL_ADC_ConfigChannel+0x530>
  return __builtin_clz(value);
 8003e4c:	6cbb      	ldr	r3, [r7, #72]	; 0x48
 8003e4e:	fab3 f383 	clz	r3, r3
 8003e52:	b2db      	uxtb	r3, r3
 8003e54:	3301      	adds	r3, #1
 8003e56:	f003 031f 	and.w	r3, r3, #31
 8003e5a:	2101      	movs	r1, #1
 8003e5c:	fa01 f303 	lsl.w	r3, r1, r3
 8003e60:	ea42 0103 	orr.w	r1, r2, r3
 8003e64:	683b      	ldr	r3, [r7, #0]
 8003e66:	681b      	ldr	r3, [r3, #0]
 8003e68:	f3c3 0312 	ubfx	r3, r3, #0, #19
 8003e6c:	2b00      	cmp	r3, #0
 8003e6e:	d10a      	bne.n	8003e86 <HAL_ADC_ConfigChannel+0x562>
 8003e70:	683b      	ldr	r3, [r7, #0]
 8003e72:	681b      	ldr	r3, [r3, #0]
 8003e74:	0e9b      	lsrs	r3, r3, #26
 8003e76:	3301      	adds	r3, #1
 8003e78:	f003 021f 	and.w	r2, r3, #31
 8003e7c:	4613      	mov	r3, r2
 8003e7e:	005b      	lsls	r3, r3, #1
 8003e80:	4413      	add	r3, r2
 8003e82:	051b      	lsls	r3, r3, #20
 8003e84:	e018      	b.n	8003eb8 <HAL_ADC_ConfigChannel+0x594>
 8003e86:	683b      	ldr	r3, [r7, #0]
 8003e88:	681b      	ldr	r3, [r3, #0]
 8003e8a:	63bb      	str	r3, [r7, #56]	; 0x38
   __ASM volatile ("rbit %0, %1" : "=r" (result) : "r" (value) );
 8003e8c:	6bbb      	ldr	r3, [r7, #56]	; 0x38
 8003e8e:	fa93 f3a3 	rbit	r3, r3
 8003e92:	637b      	str	r3, [r7, #52]	; 0x34
  return result;
 8003e94:	6b7b      	ldr	r3, [r7, #52]	; 0x34
 8003e96:	63fb      	str	r3, [r7, #60]	; 0x3c
  if (value == 0U)
 8003e98:	6bfb      	ldr	r3, [r7, #60]	; 0x3c
 8003e9a:	2b00      	cmp	r3, #0
 8003e9c:	d101      	bne.n	8003ea2 <HAL_ADC_ConfigChannel+0x57e>
    return 32U;
 8003e9e:	2320      	movs	r3, #32
 8003ea0:	e003      	b.n	8003eaa <HAL_ADC_ConfigChannel+0x586>
  return __builtin_clz(value);
 8003ea2:	6bfb      	ldr	r3, [r7, #60]	; 0x3c
 8003ea4:	fab3 f383 	clz	r3, r3
 8003ea8:	b2db      	uxtb	r3, r3
 8003eaa:	3301      	adds	r3, #1
 8003eac:	f003 021f 	and.w	r2, r3, #31
 8003eb0:	4613      	mov	r3, r2
 8003eb2:	005b      	lsls	r3, r3, #1
 8003eb4:	4413      	add	r3, r2
 8003eb6:	051b      	lsls	r3, r3, #20
        LL_ADC_SetChannelSamplingTime(hadc->Instance,
 8003eb8:	430b      	orrs	r3, r1
 8003eba:	e080      	b.n	8003fbe <HAL_ADC_ConfigChannel+0x69a>
                                      (uint32_t)(__LL_ADC_DECIMAL_NB_TO_CHANNEL((__LL_ADC_CHANNEL_TO_DECIMAL_NB((uint32_t)sConfig->Channel) + 1UL) & 0x1FUL)),
 8003ebc:	683b      	ldr	r3, [r7, #0]
 8003ebe:	681b      	ldr	r3, [r3, #0]
 8003ec0:	f3c3 0312 	ubfx	r3, r3, #0, #19
 8003ec4:	2b00      	cmp	r3, #0
 8003ec6:	d107      	bne.n	8003ed8 <HAL_ADC_ConfigChannel+0x5b4>
 8003ec8:	683b      	ldr	r3, [r7, #0]
 8003eca:	681b      	ldr	r3, [r3, #0]
 8003ecc:	0e9b      	lsrs	r3, r3, #26
 8003ece:	3301      	adds	r3, #1
 8003ed0:	069b      	lsls	r3, r3, #26
 8003ed2:	f003 42f8 	and.w	r2, r3, #2080374784	; 0x7c000000
 8003ed6:	e015      	b.n	8003f04 <HAL_ADC_ConfigChannel+0x5e0>
 8003ed8:	683b      	ldr	r3, [r7, #0]
 8003eda:	681b      	ldr	r3, [r3, #0]
 8003edc:	62fb      	str	r3, [r7, #44]	; 0x2c
   __ASM volatile ("rbit %0, %1" : "=r" (result) : "r" (value) );
 8003ede:	6afb      	ldr	r3, [r7, #44]	; 0x2c
 8003ee0:	fa93 f3a3 	rbit	r3, r3
 8003ee4:	62bb      	str	r3, [r7, #40]	; 0x28
  return result;
 8003ee6:	6abb      	ldr	r3, [r7, #40]	; 0x28
 8003ee8:	633b      	str	r3, [r7, #48]	; 0x30
  if (value == 0U)
 8003eea:	6b3b      	ldr	r3, [r7, #48]	; 0x30
 8003eec:	2b00      	cmp	r3, #0
 8003eee:	d101      	bne.n	8003ef4 <HAL_ADC_ConfigChannel+0x5d0>
    return 32U;
 8003ef0:	2320      	movs	r3, #32
 8003ef2:	e003      	b.n	8003efc <HAL_ADC_ConfigChannel+0x5d8>
  return __builtin_clz(value);
 8003ef4:	6b3b      	ldr	r3, [r7, #48]	; 0x30
 8003ef6:	fab3 f383 	clz	r3, r3
 8003efa:	b2db      	uxtb	r3, r3
 8003efc:	3301      	adds	r3, #1
 8003efe:	069b      	lsls	r3, r3, #26
 8003f00:	f003 42f8 	and.w	r2, r3, #2080374784	; 0x7c000000
 8003f04:	683b      	ldr	r3, [r7, #0]
 8003f06:	681b      	ldr	r3, [r3, #0]
 8003f08:	f3c3 0312 	ubfx	r3, r3, #0, #19
 8003f0c:	2b00      	cmp	r3, #0
 8003f0e:	d109      	bne.n	8003f24 <HAL_ADC_ConfigChannel+0x600>
 8003f10:	683b      	ldr	r3, [r7, #0]
 8003f12:	681b      	ldr	r3, [r3, #0]
 8003f14:	0e9b      	lsrs	r3, r3, #26
 8003f16:	3301      	adds	r3, #1
 8003f18:	f003 031f 	and.w	r3, r3, #31
 8003f1c:	2101      	movs	r1, #1
 8003f1e:	fa01 f303 	lsl.w	r3, r1, r3
 8003f22:	e017      	b.n	8003f54 <HAL_ADC_ConfigChannel+0x630>
 8003f24:	683b      	ldr	r3, [r7, #0]
 8003f26:	681b      	ldr	r3, [r3, #0]
 8003f28:	623b      	str	r3, [r7, #32]
   __ASM volatile ("rbit %0, %1" : "=r" (result) : "r" (value) );
 8003f2a:	6a3b      	ldr	r3, [r7, #32]
 8003f2c:	fa93 f3a3 	rbit	r3, r3
 8003f30:	61fb      	str	r3, [r7, #28]
  return result;
 8003f32:	69fb      	ldr	r3, [r7, #28]
 8003f34:	627b      	str	r3, [r7, #36]	; 0x24
  if (value == 0U)
 8003f36:	6a7b      	ldr	r3, [r7, #36]	; 0x24
 8003f38:	2b00      	cmp	r3, #0
 8003f3a:	d101      	bne.n	8003f40 <HAL_ADC_ConfigChannel+0x61c>
    return 32U;
 8003f3c:	2320      	movs	r3, #32
 8003f3e:	e003      	b.n	8003f48 <HAL_ADC_ConfigChannel+0x624>
  return __builtin_clz(value);
 8003f40:	6a7b      	ldr	r3, [r7, #36]	; 0x24
 8003f42:	fab3 f383 	clz	r3, r3
 8003f46:	b2db      	uxtb	r3, r3
 8003f48:	3301      	adds	r3, #1
 8003f4a:	f003 031f 	and.w	r3, r3, #31
 8003f4e:	2101      	movs	r1, #1
 8003f50:	fa01 f303 	lsl.w	r3, r1, r3
 8003f54:	ea42 0103 	orr.w	r1, r2, r3
 8003f58:	683b      	ldr	r3, [r7, #0]
 8003f5a:	681b      	ldr	r3, [r3, #0]
 8003f5c:	f3c3 0312 	ubfx	r3, r3, #0, #19
 8003f60:	2b00      	cmp	r3, #0
 8003f62:	d10d      	bne.n	8003f80 <HAL_ADC_ConfigChannel+0x65c>
 8003f64:	683b      	ldr	r3, [r7, #0]
 8003f66:	681b      	ldr	r3, [r3, #0]
 8003f68:	0e9b      	lsrs	r3, r3, #26
 8003f6a:	3301      	adds	r3, #1
 8003f6c:	f003 021f 	and.w	r2, r3, #31
 8003f70:	4613      	mov	r3, r2
 8003f72:	005b      	lsls	r3, r3, #1
 8003f74:	4413      	add	r3, r2
 8003f76:	3b1e      	subs	r3, #30
 8003f78:	051b      	lsls	r3, r3, #20
 8003f7a:	f043 7300 	orr.w	r3, r3, #33554432	; 0x2000000
 8003f7e:	e01d      	b.n	8003fbc <HAL_ADC_ConfigChannel+0x698>
 8003f80:	683b      	ldr	r3, [r7, #0]
 8003f82:	681b      	ldr	r3, [r3, #0]
 8003f84:	617b      	str	r3, [r7, #20]
   __ASM volatile ("rbit %0, %1" : "=r" (result) : "r" (value) );
 8003f86:	697b      	ldr	r3, [r7, #20]
 8003f88:	fa93 f3a3 	rbit	r3, r3
 8003f8c:	613b      	str	r3, [r7, #16]
  return result;
 8003f8e:	693b      	ldr	r3, [r7, #16]
 8003f90:	61bb      	str	r3, [r7, #24]
  if (value == 0U)
 8003f92:	69bb      	ldr	r3, [r7, #24]
 8003f94:	2b00      	cmp	r3, #0
 8003f96:	d103      	bne.n	8003fa0 <HAL_ADC_ConfigChannel+0x67c>
    return 32U;
 8003f98:	2320      	movs	r3, #32
 8003f9a:	e005      	b.n	8003fa8 <HAL_ADC_ConfigChannel+0x684>
 8003f9c:	407f0000 	.word	0x407f0000
  return __builtin_clz(value);
 8003fa0:	69bb      	ldr	r3, [r7, #24]
 8003fa2:	fab3 f383 	clz	r3, r3
 8003fa6:	b2db      	uxtb	r3, r3
 8003fa8:	3301      	adds	r3, #1
 8003faa:	f003 021f 	and.w	r2, r3, #31
 8003fae:	4613      	mov	r3, r2
 8003fb0:	005b      	lsls	r3, r3, #1
 8003fb2:	4413      	add	r3, r2
 8003fb4:	3b1e      	subs	r3, #30
 8003fb6:	051b      	lsls	r3, r3, #20
 8003fb8:	f043 7300 	orr.w	r3, r3, #33554432	; 0x2000000
        LL_ADC_SetChannelSamplingTime(hadc->Instance,
 8003fbc:	430b      	orrs	r3, r1
 8003fbe:	683a      	ldr	r2, [r7, #0]
 8003fc0:	6892      	ldr	r2, [r2, #8]
 8003fc2:	4619      	mov	r1, r3
 8003fc4:	f7ff f9da 	bl	800337c <LL_ADC_SetChannelSamplingTime>
    /* If internal channel selected, enable dedicated internal buffers and    */
    /* paths.                                                                 */
    /* Note: these internal measurement paths can be disabled using           */
    /* HAL_ADC_DeInit().                                                      */

    if (__LL_ADC_IS_CHANNEL_INTERNAL(sConfig->Channel))
 8003fc8:	683b      	ldr	r3, [r7, #0]
 8003fca:	681a      	ldr	r2, [r3, #0]
 8003fcc:	4b3c      	ldr	r3, [pc, #240]	; (80040c0 <HAL_ADC_ConfigChannel+0x79c>)
 8003fce:	4013      	ands	r3, r2
 8003fd0:	2b00      	cmp	r3, #0
 8003fd2:	d06b      	beq.n	80040ac <HAL_ADC_ConfigChannel+0x788>
    {
      tmp_config_internal_channel = LL_ADC_GetCommonPathInternalCh(__LL_ADC_COMMON_INSTANCE(hadc->Instance));
 8003fd4:	483b      	ldr	r0, [pc, #236]	; (80040c4 <HAL_ADC_ConfigChannel+0x7a0>)
 8003fd6:	f7ff f92f 	bl	8003238 <LL_ADC_GetCommonPathInternalCh>
 8003fda:	f8c7 00c4 	str.w	r0, [r7, #196]	; 0xc4

      /* If the requested internal measurement path has already been enabled, */
      /* bypass the configuration processing.                                 */
      if ((sConfig->Channel == ADC_CHANNEL_TEMPSENSOR)
 8003fde:	683b      	ldr	r3, [r7, #0]
 8003fe0:	681b      	ldr	r3, [r3, #0]
 8003fe2:	4a39      	ldr	r2, [pc, #228]	; (80040c8 <HAL_ADC_ConfigChannel+0x7a4>)
 8003fe4:	4293      	cmp	r3, r2
 8003fe6:	d126      	bne.n	8004036 <HAL_ADC_ConfigChannel+0x712>
          && ((tmp_config_internal_channel & LL_ADC_PATH_INTERNAL_TEMPSENSOR) == 0UL))
 8003fe8:	f8d7 30c4 	ldr.w	r3, [r7, #196]	; 0xc4
 8003fec:	f403 0300 	and.w	r3, r3, #8388608	; 0x800000
 8003ff0:	2b00      	cmp	r3, #0
 8003ff2:	d120      	bne.n	8004036 <HAL_ADC_ConfigChannel+0x712>
      {
        if (ADC_TEMPERATURE_SENSOR_INSTANCE(hadc))
 8003ff4:	687b      	ldr	r3, [r7, #4]
 8003ff6:	681b      	ldr	r3, [r3, #0]
 8003ff8:	4a34      	ldr	r2, [pc, #208]	; (80040cc <HAL_ADC_ConfigChannel+0x7a8>)
 8003ffa:	4293      	cmp	r3, r2
 8003ffc:	d156      	bne.n	80040ac <HAL_ADC_ConfigChannel+0x788>
        {
          LL_ADC_SetCommonPathInternalCh(__LL_ADC_COMMON_INSTANCE(hadc->Instance),
 8003ffe:	f8d7 30c4 	ldr.w	r3, [r7, #196]	; 0xc4
 8004002:	f443 0300 	orr.w	r3, r3, #8388608	; 0x800000
 8004006:	4619      	mov	r1, r3
 8004008:	482e      	ldr	r0, [pc, #184]	; (80040c4 <HAL_ADC_ConfigChannel+0x7a0>)
 800400a:	f7ff f902 	bl	8003212 <LL_ADC_SetCommonPathInternalCh>
          /* Delay for temperature sensor stabilization time */
          /* Wait loop initialization and execution */
          /* Note: Variable divided by 2 to compensate partially              */
          /*       CPU processing cycles, scaling in us split to not          */
          /*       exceed 32 bits register capacity and handle low frequency. */
          wait_loop_index = ((LL_ADC_DELAY_TEMPSENSOR_STAB_US / 10UL) * (SystemCoreClock / (100000UL * 2UL)));
 800400e:	4b30      	ldr	r3, [pc, #192]	; (80040d0 <HAL_ADC_ConfigChannel+0x7ac>)
 8004010:	681b      	ldr	r3, [r3, #0]
 8004012:	099b      	lsrs	r3, r3, #6
 8004014:	4a2f      	ldr	r2, [pc, #188]	; (80040d4 <HAL_ADC_ConfigChannel+0x7b0>)
 8004016:	fba2 2303 	umull	r2, r3, r2, r3
 800401a:	099a      	lsrs	r2, r3, #6
 800401c:	4613      	mov	r3, r2
 800401e:	005b      	lsls	r3, r3, #1
 8004020:	4413      	add	r3, r2
 8004022:	009b      	lsls	r3, r3, #2
 8004024:	60fb      	str	r3, [r7, #12]
          while (wait_loop_index != 0UL)
 8004026:	e002      	b.n	800402e <HAL_ADC_ConfigChannel+0x70a>
          {
            wait_loop_index--;
 8004028:	68fb      	ldr	r3, [r7, #12]
 800402a:	3b01      	subs	r3, #1
 800402c:	60fb      	str	r3, [r7, #12]
          while (wait_loop_index != 0UL)
 800402e:	68fb      	ldr	r3, [r7, #12]
 8004030:	2b00      	cmp	r3, #0
 8004032:	d1f9      	bne.n	8004028 <HAL_ADC_ConfigChannel+0x704>
        if (ADC_TEMPERATURE_SENSOR_INSTANCE(hadc))
 8004034:	e03a      	b.n	80040ac <HAL_ADC_ConfigChannel+0x788>
          }
        }
      }
      else if ((sConfig->Channel == ADC_CHANNEL_VBAT) && ((tmp_config_internal_channel & LL_ADC_PATH_INTERNAL_VBAT) == 0UL))
 8004036:	683b      	ldr	r3, [r7, #0]
 8004038:	681b      	ldr	r3, [r3, #0]
 800403a:	4a27      	ldr	r2, [pc, #156]	; (80040d8 <HAL_ADC_ConfigChannel+0x7b4>)
 800403c:	4293      	cmp	r3, r2
 800403e:	d113      	bne.n	8004068 <HAL_ADC_ConfigChannel+0x744>
 8004040:	f8d7 30c4 	ldr.w	r3, [r7, #196]	; 0xc4
 8004044:	f003 7380 	and.w	r3, r3, #16777216	; 0x1000000
 8004048:	2b00      	cmp	r3, #0
 800404a:	d10d      	bne.n	8004068 <HAL_ADC_ConfigChannel+0x744>
      {
        if (ADC_BATTERY_VOLTAGE_INSTANCE(hadc))
 800404c:	687b      	ldr	r3, [r7, #4]
 800404e:	681b      	ldr	r3, [r3, #0]
 8004050:	4a1e      	ldr	r2, [pc, #120]	; (80040cc <HAL_ADC_ConfigChannel+0x7a8>)
 8004052:	4293      	cmp	r3, r2
 8004054:	d12a      	bne.n	80040ac <HAL_ADC_ConfigChannel+0x788>
        {
          LL_ADC_SetCommonPathInternalCh(__LL_ADC_COMMON_INSTANCE(hadc->Instance),
 8004056:	f8d7 30c4 	ldr.w	r3, [r7, #196]	; 0xc4
 800405a:	f043 7380 	orr.w	r3, r3, #16777216	; 0x1000000
 800405e:	4619      	mov	r1, r3
 8004060:	4818      	ldr	r0, [pc, #96]	; (80040c4 <HAL_ADC_ConfigChannel+0x7a0>)
 8004062:	f7ff f8d6 	bl	8003212 <LL_ADC_SetCommonPathInternalCh>
        if (ADC_BATTERY_VOLTAGE_INSTANCE(hadc))
 8004066:	e021      	b.n	80040ac <HAL_ADC_ConfigChannel+0x788>
                                         LL_ADC_PATH_INTERNAL_VBAT | tmp_config_internal_channel);
        }
      }
      else if ((sConfig->Channel == ADC_CHANNEL_VREFINT)
 8004068:	683b      	ldr	r3, [r7, #0]
 800406a:	681b      	ldr	r3, [r3, #0]
 800406c:	4a1b      	ldr	r2, [pc, #108]	; (80040dc <HAL_ADC_ConfigChannel+0x7b8>)
 800406e:	4293      	cmp	r3, r2
 8004070:	d11c      	bne.n	80040ac <HAL_ADC_ConfigChannel+0x788>
               && ((tmp_config_internal_channel & LL_ADC_PATH_INTERNAL_VREFINT) == 0UL))
 8004072:	f8d7 30c4 	ldr.w	r3, [r7, #196]	; 0xc4
 8004076:	f403 0380 	and.w	r3, r3, #4194304	; 0x400000
 800407a:	2b00      	cmp	r3, #0
 800407c:	d116      	bne.n	80040ac <HAL_ADC_ConfigChannel+0x788>
      {
        if (ADC_VREFINT_INSTANCE(hadc))
 800407e:	687b      	ldr	r3, [r7, #4]
 8004080:	681b      	ldr	r3, [r3, #0]
 8004082:	4a12      	ldr	r2, [pc, #72]	; (80040cc <HAL_ADC_ConfigChannel+0x7a8>)
 8004084:	4293      	cmp	r3, r2
 8004086:	d111      	bne.n	80040ac <HAL_ADC_ConfigChannel+0x788>
        {
          LL_ADC_SetCommonPathInternalCh(__LL_ADC_COMMON_INSTANCE(hadc->Instance),
 8004088:	f8d7 30c4 	ldr.w	r3, [r7, #196]	; 0xc4
 800408c:	f443 0380 	orr.w	r3, r3, #4194304	; 0x400000
 8004090:	4619      	mov	r1, r3
 8004092:	480c      	ldr	r0, [pc, #48]	; (80040c4 <HAL_ADC_ConfigChannel+0x7a0>)
 8004094:	f7ff f8bd 	bl	8003212 <LL_ADC_SetCommonPathInternalCh>
 8004098:	e008      	b.n	80040ac <HAL_ADC_ConfigChannel+0x788>
  /* channel could be done on neither of the channel configuration structure  */
  /* parameters.                                                              */
  else
  {
    /* Update ADC state machine to error */
    SET_BIT(hadc->State, HAL_ADC_STATE_ERROR_CONFIG);
 800409a:	687b      	ldr	r3, [r7, #4]
 800409c:	6d5b      	ldr	r3, [r3, #84]	; 0x54
 800409e:	f043 0220 	orr.w	r2, r3, #32
 80040a2:	687b      	ldr	r3, [r7, #4]
 80040a4:	655a      	str	r2, [r3, #84]	; 0x54

    tmp_hal_status = HAL_ERROR;
 80040a6:	2301      	movs	r3, #1
 80040a8:	f887 30d7 	strb.w	r3, [r7, #215]	; 0xd7
  }

  /* Process unlocked */
  __HAL_UNLOCK(hadc);
 80040ac:	687b      	ldr	r3, [r7, #4]
 80040ae:	2200      	movs	r2, #0
 80040b0:	f883 2050 	strb.w	r2, [r3, #80]	; 0x50

  /* Return function status */
  return tmp_hal_status;
 80040b4:	f897 30d7 	ldrb.w	r3, [r7, #215]	; 0xd7
}
 80040b8:	4618      	mov	r0, r3
 80040ba:	37d8      	adds	r7, #216	; 0xd8
 80040bc:	46bd      	mov	sp, r7
 80040be:	bd80      	pop	{r7, pc}
 80040c0:	80080000 	.word	0x80080000
 80040c4:	50040300 	.word	0x50040300
 80040c8:	c7520000 	.word	0xc7520000
 80040cc:	50040000 	.word	0x50040000
 80040d0:	200007d8 	.word	0x200007d8
 80040d4:	053e2d63 	.word	0x053e2d63
 80040d8:	cb840000 	.word	0xcb840000
 80040dc:	80000001 	.word	0x80000001

080040e0 <ADC_Enable>:
  *         and voltage regulator must be enabled (done into HAL_ADC_Init()).
  * @param hadc ADC handle
  * @retval HAL status.
  */
HAL_StatusTypeDef ADC_Enable(ADC_HandleTypeDef *hadc)
{
 80040e0:	b580      	push	{r7, lr}
 80040e2:	b084      	sub	sp, #16
 80040e4:	af00      	add	r7, sp, #0
 80040e6:	6078      	str	r0, [r7, #4]

  /* ADC enable and wait for ADC ready (in case of ADC is disabled or         */
  /* enabling phase not yet completed: flag ADC ready not yet set).           */
  /* Timeout implemented to not be stuck if ADC cannot be enabled (possible   */
  /* causes: ADC clock not running, ...).                                     */
  if (LL_ADC_IsEnabled(hadc->Instance) == 0UL)
 80040e8:	687b      	ldr	r3, [r7, #4]
 80040ea:	681b      	ldr	r3, [r3, #0]
 80040ec:	4618      	mov	r0, r3
 80040ee:	f7ff f9f7 	bl	80034e0 <LL_ADC_IsEnabled>
 80040f2:	4603      	mov	r3, r0
 80040f4:	2b00      	cmp	r3, #0
 80040f6:	d146      	bne.n	8004186 <ADC_Enable+0xa6>
  {
    /* Check if conditions to enable the ADC are fulfilled */
    if ((hadc->Instance->CR & (ADC_CR_ADCAL | ADC_CR_JADSTP | ADC_CR_ADSTP | ADC_CR_JADSTART | ADC_CR_ADSTART
 80040f8:	687b      	ldr	r3, [r7, #4]
 80040fa:	681b      	ldr	r3, [r3, #0]
 80040fc:	689a      	ldr	r2, [r3, #8]
 80040fe:	4b24      	ldr	r3, [pc, #144]	; (8004190 <ADC_Enable+0xb0>)
 8004100:	4013      	ands	r3, r2
 8004102:	2b00      	cmp	r3, #0
 8004104:	d00d      	beq.n	8004122 <ADC_Enable+0x42>
                               | ADC_CR_ADDIS | ADC_CR_ADEN)) != 0UL)
    {
      /* Update ADC state machine to error */
      SET_BIT(hadc->State, HAL_ADC_STATE_ERROR_INTERNAL);
 8004106:	687b      	ldr	r3, [r7, #4]
 8004108:	6d5b      	ldr	r3, [r3, #84]	; 0x54
 800410a:	f043 0210 	orr.w	r2, r3, #16
 800410e:	687b      	ldr	r3, [r7, #4]
 8004110:	655a      	str	r2, [r3, #84]	; 0x54

      /* Set ADC error code to ADC peripheral internal error */
      SET_BIT(hadc->ErrorCode, HAL_ADC_ERROR_INTERNAL);
 8004112:	687b      	ldr	r3, [r7, #4]
 8004114:	6d9b      	ldr	r3, [r3, #88]	; 0x58
 8004116:	f043 0201 	orr.w	r2, r3, #1
 800411a:	687b      	ldr	r3, [r7, #4]
 800411c:	659a      	str	r2, [r3, #88]	; 0x58

      return HAL_ERROR;
 800411e:	2301      	movs	r3, #1
 8004120:	e032      	b.n	8004188 <ADC_Enable+0xa8>
    }

    /* Enable the ADC peripheral */
    LL_ADC_Enable(hadc->Instance);
 8004122:	687b      	ldr	r3, [r7, #4]
 8004124:	681b      	ldr	r3, [r3, #0]
 8004126:	4618      	mov	r0, r3
 8004128:	f7ff f9c6 	bl	80034b8 <LL_ADC_Enable>

    /* Wait for ADC effectively enabled */
    tickstart = HAL_GetTick();
 800412c:	f7ff f830 	bl	8003190 <HAL_GetTick>
 8004130:	60f8      	str	r0, [r7, #12]

    while (__HAL_ADC_GET_FLAG(hadc, ADC_FLAG_RDY) == 0UL)
 8004132:	e021      	b.n	8004178 <ADC_Enable+0x98>
          The workaround is to continue setting ADEN until ADRDY is becomes 1.
          Additionally, ADC_ENABLE_TIMEOUT is defined to encompass this
          4 ADC clock cycle duration */
      /* Note: Test of ADC enabled required due to hardware constraint to     */
      /*       not enable ADC if already enabled.                             */
      if (LL_ADC_IsEnabled(hadc->Instance) == 0UL)
 8004134:	687b      	ldr	r3, [r7, #4]
 8004136:	681b      	ldr	r3, [r3, #0]
 8004138:	4618      	mov	r0, r3
 800413a:	f7ff f9d1 	bl	80034e0 <LL_ADC_IsEnabled>
 800413e:	4603      	mov	r3, r0
 8004140:	2b00      	cmp	r3, #0
 8004142:	d104      	bne.n	800414e <ADC_Enable+0x6e>
      {
        LL_ADC_Enable(hadc->Instance);
 8004144:	687b      	ldr	r3, [r7, #4]
 8004146:	681b      	ldr	r3, [r3, #0]
 8004148:	4618      	mov	r0, r3
 800414a:	f7ff f9b5 	bl	80034b8 <LL_ADC_Enable>
      }

      if ((HAL_GetTick() - tickstart) > ADC_ENABLE_TIMEOUT)
 800414e:	f7ff f81f 	bl	8003190 <HAL_GetTick>
 8004152:	4602      	mov	r2, r0
 8004154:	68fb      	ldr	r3, [r7, #12]
 8004156:	1ad3      	subs	r3, r2, r3
 8004158:	2b02      	cmp	r3, #2
 800415a:	d90d      	bls.n	8004178 <ADC_Enable+0x98>
      {
        /* Update ADC state machine to error */
        SET_BIT(hadc->State, HAL_ADC_STATE_ERROR_INTERNAL);
 800415c:	687b      	ldr	r3, [r7, #4]
 800415e:	6d5b      	ldr	r3, [r3, #84]	; 0x54
 8004160:	f043 0210 	orr.w	r2, r3, #16
 8004164:	687b      	ldr	r3, [r7, #4]
 8004166:	655a      	str	r2, [r3, #84]	; 0x54

        /* Set ADC error code to ADC peripheral internal error */
        SET_BIT(hadc->ErrorCode, HAL_ADC_ERROR_INTERNAL);
 8004168:	687b      	ldr	r3, [r7, #4]
 800416a:	6d9b      	ldr	r3, [r3, #88]	; 0x58
 800416c:	f043 0201 	orr.w	r2, r3, #1
 8004170:	687b      	ldr	r3, [r7, #4]
 8004172:	659a      	str	r2, [r3, #88]	; 0x58

        return HAL_ERROR;
 8004174:	2301      	movs	r3, #1
 8004176:	e007      	b.n	8004188 <ADC_Enable+0xa8>
    while (__HAL_ADC_GET_FLAG(hadc, ADC_FLAG_RDY) == 0UL)
 8004178:	687b      	ldr	r3, [r7, #4]
 800417a:	681b      	ldr	r3, [r3, #0]
 800417c:	681b      	ldr	r3, [r3, #0]
 800417e:	f003 0301 	and.w	r3, r3, #1
 8004182:	2b01      	cmp	r3, #1
 8004184:	d1d6      	bne.n	8004134 <ADC_Enable+0x54>
      }
    }
  }

  /* Return HAL status */
  return HAL_OK;
 8004186:	2300      	movs	r3, #0
}
 8004188:	4618      	mov	r0, r3
 800418a:	3710      	adds	r7, #16
 800418c:	46bd      	mov	sp, r7
 800418e:	bd80      	pop	{r7, pc}
 8004190:	8000003f 	.word	0x8000003f

08004194 <ADC_DMAConvCplt>:
  * @brief  DMA transfer complete callback.
  * @param hdma pointer to DMA handle.
  * @retval None
  */
void ADC_DMAConvCplt(DMA_HandleTypeDef *hdma)
{
 8004194:	b580      	push	{r7, lr}
 8004196:	b084      	sub	sp, #16
 8004198:	af00      	add	r7, sp, #0
 800419a:	6078      	str	r0, [r7, #4]
  /* Retrieve ADC handle corresponding to current DMA handle */
  ADC_HandleTypeDef *hadc = (ADC_HandleTypeDef *)((DMA_HandleTypeDef *)hdma)->Parent;
 800419c:	687b      	ldr	r3, [r7, #4]
 800419e:	6a9b      	ldr	r3, [r3, #40]	; 0x28
 80041a0:	60fb      	str	r3, [r7, #12]

  /* Update state machine on conversion status if not in error state */
  if ((hadc->State & (HAL_ADC_STATE_ERROR_INTERNAL | HAL_ADC_STATE_ERROR_DMA)) == 0UL)
 80041a2:	68fb      	ldr	r3, [r7, #12]
 80041a4:	6d5b      	ldr	r3, [r3, #84]	; 0x54
 80041a6:	f003 0350 	and.w	r3, r3, #80	; 0x50
 80041aa:	2b00      	cmp	r3, #0
 80041ac:	d14b      	bne.n	8004246 <ADC_DMAConvCplt+0xb2>
  {
    /* Set ADC state */
    SET_BIT(hadc->State, HAL_ADC_STATE_REG_EOC);
 80041ae:	68fb      	ldr	r3, [r7, #12]
 80041b0:	6d5b      	ldr	r3, [r3, #84]	; 0x54
 80041b2:	f443 7200 	orr.w	r2, r3, #512	; 0x200
 80041b6:	68fb      	ldr	r3, [r7, #12]
 80041b8:	655a      	str	r2, [r3, #84]	; 0x54

    /* Determine whether any further conversion upcoming on group regular     */
    /* by external trigger, continuous mode or scan sequence on going         */
    /* to disable interruption.                                               */
    /* Is it the end of the regular sequence ? */
    if ((hadc->Instance->ISR & ADC_FLAG_EOS) != 0UL)
 80041ba:	68fb      	ldr	r3, [r7, #12]
 80041bc:	681b      	ldr	r3, [r3, #0]
 80041be:	681b      	ldr	r3, [r3, #0]
 80041c0:	f003 0308 	and.w	r3, r3, #8
 80041c4:	2b00      	cmp	r3, #0
 80041c6:	d021      	beq.n	800420c <ADC_DMAConvCplt+0x78>
    {
      /* Are conversions software-triggered ? */
      if (LL_ADC_REG_IsTriggerSourceSWStart(hadc->Instance) != 0UL)
 80041c8:	68fb      	ldr	r3, [r7, #12]
 80041ca:	681b      	ldr	r3, [r3, #0]
 80041cc:	4618      	mov	r0, r3
 80041ce:	f7ff f896 	bl	80032fe <LL_ADC_REG_IsTriggerSourceSWStart>
 80041d2:	4603      	mov	r3, r0
 80041d4:	2b00      	cmp	r3, #0
 80041d6:	d032      	beq.n	800423e <ADC_DMAConvCplt+0xaa>
      {
        /* Is CONT bit set ? */
        if (READ_BIT(hadc->Instance->CFGR, ADC_CFGR_CONT) == 0UL)
 80041d8:	68fb      	ldr	r3, [r7, #12]
 80041da:	681b      	ldr	r3, [r3, #0]
 80041dc:	68db      	ldr	r3, [r3, #12]
 80041de:	f403 5300 	and.w	r3, r3, #8192	; 0x2000
 80041e2:	2b00      	cmp	r3, #0
 80041e4:	d12b      	bne.n	800423e <ADC_DMAConvCplt+0xaa>
        {
          /* CONT bit is not set, no more conversions expected */
          CLEAR_BIT(hadc->State, HAL_ADC_STATE_REG_BUSY);
 80041e6:	68fb      	ldr	r3, [r7, #12]
 80041e8:	6d5b      	ldr	r3, [r3, #84]	; 0x54
 80041ea:	f423 7280 	bic.w	r2, r3, #256	; 0x100
 80041ee:	68fb      	ldr	r3, [r7, #12]
 80041f0:	655a      	str	r2, [r3, #84]	; 0x54
          if ((hadc->State & HAL_ADC_STATE_INJ_BUSY) == 0UL)
 80041f2:	68fb      	ldr	r3, [r7, #12]
 80041f4:	6d5b      	ldr	r3, [r3, #84]	; 0x54
 80041f6:	f403 5380 	and.w	r3, r3, #4096	; 0x1000
 80041fa:	2b00      	cmp	r3, #0
 80041fc:	d11f      	bne.n	800423e <ADC_DMAConvCplt+0xaa>
          {
            SET_BIT(hadc->State, HAL_ADC_STATE_READY);
 80041fe:	68fb      	ldr	r3, [r7, #12]
 8004200:	6d5b      	ldr	r3, [r3, #84]	; 0x54
 8004202:	f043 0201 	orr.w	r2, r3, #1
 8004206:	68fb      	ldr	r3, [r7, #12]
 8004208:	655a      	str	r2, [r3, #84]	; 0x54
 800420a:	e018      	b.n	800423e <ADC_DMAConvCplt+0xaa>
    }
    else
    {
      /* DMA End of Transfer interrupt was triggered but conversions sequence
         is not over. If DMACFG is set to 0, conversions are stopped. */
      if (READ_BIT(hadc->Instance->CFGR, ADC_CFGR_DMACFG) == 0UL)
 800420c:	68fb      	ldr	r3, [r7, #12]
 800420e:	681b      	ldr	r3, [r3, #0]
 8004210:	68db      	ldr	r3, [r3, #12]
 8004212:	f003 0302 	and.w	r3, r3, #2
 8004216:	2b00      	cmp	r3, #0
 8004218:	d111      	bne.n	800423e <ADC_DMAConvCplt+0xaa>
      {
        /* DMACFG bit is not set, conversions are stopped. */
        CLEAR_BIT(hadc->State, HAL_ADC_STATE_REG_BUSY);
 800421a:	68fb      	ldr	r3, [r7, #12]
 800421c:	6d5b      	ldr	r3, [r3, #84]	; 0x54
 800421e:	f423 7280 	bic.w	r2, r3, #256	; 0x100
 8004222:	68fb      	ldr	r3, [r7, #12]
 8004224:	655a      	str	r2, [r3, #84]	; 0x54
        if ((hadc->State & HAL_ADC_STATE_INJ_BUSY) == 0UL)
 8004226:	68fb      	ldr	r3, [r7, #12]
 8004228:	6d5b      	ldr	r3, [r3, #84]	; 0x54
 800422a:	f403 5380 	and.w	r3, r3, #4096	; 0x1000
 800422e:	2b00      	cmp	r3, #0
 8004230:	d105      	bne.n	800423e <ADC_DMAConvCplt+0xaa>
        {
          SET_BIT(hadc->State, HAL_ADC_STATE_READY);
 8004232:	68fb      	ldr	r3, [r7, #12]
 8004234:	6d5b      	ldr	r3, [r3, #84]	; 0x54
 8004236:	f043 0201 	orr.w	r2, r3, #1
 800423a:	68fb      	ldr	r3, [r7, #12]
 800423c:	655a      	str	r2, [r3, #84]	; 0x54

    /* Conversion complete callback */
#if (USE_HAL_ADC_REGISTER_CALLBACKS == 1)
    hadc->ConvCpltCallback(hadc);
#else
    HAL_ADC_ConvCpltCallback(hadc);
 800423e:	68f8      	ldr	r0, [r7, #12]
 8004240:	f7fd fad4 	bl	80017ec <HAL_ADC_ConvCpltCallback>
    {
      /* Call ADC DMA error callback */
      hadc->DMA_Handle->XferErrorCallback(hdma);
    }
  }
}
 8004244:	e00e      	b.n	8004264 <ADC_DMAConvCplt+0xd0>
    if ((hadc->State & HAL_ADC_STATE_ERROR_INTERNAL) != 0UL)
 8004246:	68fb      	ldr	r3, [r7, #12]
 8004248:	6d5b      	ldr	r3, [r3, #84]	; 0x54
 800424a:	f003 0310 	and.w	r3, r3, #16
 800424e:	2b00      	cmp	r3, #0
 8004250:	d003      	beq.n	800425a <ADC_DMAConvCplt+0xc6>
      HAL_ADC_ErrorCallback(hadc);
 8004252:	68f8      	ldr	r0, [r7, #12]
 8004254:	f7ff fb5c 	bl	8003910 <HAL_ADC_ErrorCallback>
}
 8004258:	e004      	b.n	8004264 <ADC_DMAConvCplt+0xd0>
      hadc->DMA_Handle->XferErrorCallback(hdma);
 800425a:	68fb      	ldr	r3, [r7, #12]
 800425c:	6cdb      	ldr	r3, [r3, #76]	; 0x4c
 800425e:	6b5b      	ldr	r3, [r3, #52]	; 0x34
 8004260:	6878      	ldr	r0, [r7, #4]
 8004262:	4798      	blx	r3
}
 8004264:	bf00      	nop
 8004266:	3710      	adds	r7, #16
 8004268:	46bd      	mov	sp, r7
 800426a:	bd80      	pop	{r7, pc}

0800426c <ADC_DMAHalfConvCplt>:
  * @brief  DMA half transfer complete callback.
  * @param hdma pointer to DMA handle.
  * @retval None
  */
void ADC_DMAHalfConvCplt(DMA_HandleTypeDef *hdma)
{
 800426c:	b580      	push	{r7, lr}
 800426e:	b084      	sub	sp, #16
 8004270:	af00      	add	r7, sp, #0
 8004272:	6078      	str	r0, [r7, #4]
  /* Retrieve ADC handle corresponding to current DMA handle */
  ADC_HandleTypeDef *hadc = (ADC_HandleTypeDef *)((DMA_HandleTypeDef *)hdma)->Parent;
 8004274:	687b      	ldr	r3, [r7, #4]
 8004276:	6a9b      	ldr	r3, [r3, #40]	; 0x28
 8004278:	60fb      	str	r3, [r7, #12]

  /* Half conversion callback */
#if (USE_HAL_ADC_REGISTER_CALLBACKS == 1)
  hadc->ConvHalfCpltCallback(hadc);
#else
  HAL_ADC_ConvHalfCpltCallback(hadc);
 800427a:	68f8      	ldr	r0, [r7, #12]
 800427c:	f7fd fa74 	bl	8001768 <HAL_ADC_ConvHalfCpltCallback>
#endif /* USE_HAL_ADC_REGISTER_CALLBACKS */
}
 8004280:	bf00      	nop
 8004282:	3710      	adds	r7, #16
 8004284:	46bd      	mov	sp, r7
 8004286:	bd80      	pop	{r7, pc}

08004288 <ADC_DMAError>:
  * @brief  DMA error callback.
  * @param hdma pointer to DMA handle.
  * @retval None
  */
void ADC_DMAError(DMA_HandleTypeDef *hdma)
{
 8004288:	b580      	push	{r7, lr}
 800428a:	b084      	sub	sp, #16
 800428c:	af00      	add	r7, sp, #0
 800428e:	6078      	str	r0, [r7, #4]
  /* Retrieve ADC handle corresponding to current DMA handle */
  ADC_HandleTypeDef *hadc = (ADC_HandleTypeDef *)((DMA_HandleTypeDef *)hdma)->Parent;
 8004290:	687b      	ldr	r3, [r7, #4]
 8004292:	6a9b      	ldr	r3, [r3, #40]	; 0x28
 8004294:	60fb      	str	r3, [r7, #12]

  /* Set ADC state */
  SET_BIT(hadc->State, HAL_ADC_STATE_ERROR_DMA);
 8004296:	68fb      	ldr	r3, [r7, #12]
 8004298:	6d5b      	ldr	r3, [r3, #84]	; 0x54
 800429a:	f043 0240 	orr.w	r2, r3, #64	; 0x40
 800429e:	68fb      	ldr	r3, [r7, #12]
 80042a0:	655a      	str	r2, [r3, #84]	; 0x54

  /* Set ADC error code to DMA error */
  SET_BIT(hadc->ErrorCode, HAL_ADC_ERROR_DMA);
 80042a2:	68fb      	ldr	r3, [r7, #12]
 80042a4:	6d9b      	ldr	r3, [r3, #88]	; 0x58
 80042a6:	f043 0204 	orr.w	r2, r3, #4
 80042aa:	68fb      	ldr	r3, [r7, #12]
 80042ac:	659a      	str	r2, [r3, #88]	; 0x58

  /* Error callback */
#if (USE_HAL_ADC_REGISTER_CALLBACKS == 1)
  hadc->ErrorCallback(hadc);
#else
  HAL_ADC_ErrorCallback(hadc);
 80042ae:	68f8      	ldr	r0, [r7, #12]
 80042b0:	f7ff fb2e 	bl	8003910 <HAL_ADC_ErrorCallback>
#endif /* USE_HAL_ADC_REGISTER_CALLBACKS */
}
 80042b4:	bf00      	nop
 80042b6:	3710      	adds	r7, #16
 80042b8:	46bd      	mov	sp, r7
 80042ba:	bd80      	pop	{r7, pc}

080042bc <__NVIC_SetPriorityGrouping>:
           In case of a conflict between priority grouping and available
           priority bits (__NVIC_PRIO_BITS), the smallest possible priority group is set.
  \param [in]      PriorityGroup  Priority grouping field.
 */
__STATIC_INLINE void __NVIC_SetPriorityGrouping(uint32_t PriorityGroup)
{
 80042bc:	b480      	push	{r7}
 80042be:	b085      	sub	sp, #20
 80042c0:	af00      	add	r7, sp, #0
 80042c2:	6078      	str	r0, [r7, #4]
  uint32_t reg_value;
  uint32_t PriorityGroupTmp = (PriorityGroup & (uint32_t)0x07UL);             /* only values 0..7 are used          */
 80042c4:	687b      	ldr	r3, [r7, #4]
 80042c6:	f003 0307 	and.w	r3, r3, #7
 80042ca:	60fb      	str	r3, [r7, #12]

  reg_value  =  SCB->AIRCR;                                                   /* read old register configuration    */
 80042cc:	4b0c      	ldr	r3, [pc, #48]	; (8004300 <__NVIC_SetPriorityGrouping+0x44>)
 80042ce:	68db      	ldr	r3, [r3, #12]
 80042d0:	60bb      	str	r3, [r7, #8]
  reg_value &= ~((uint32_t)(SCB_AIRCR_VECTKEY_Msk | SCB_AIRCR_PRIGROUP_Msk)); /* clear bits to change               */
 80042d2:	68ba      	ldr	r2, [r7, #8]
 80042d4:	f64f 03ff 	movw	r3, #63743	; 0xf8ff
 80042d8:	4013      	ands	r3, r2
 80042da:	60bb      	str	r3, [r7, #8]
  reg_value  =  (reg_value                                   |
                ((uint32_t)0x5FAUL << SCB_AIRCR_VECTKEY_Pos) |
                (PriorityGroupTmp << SCB_AIRCR_PRIGROUP_Pos)  );              /* Insert write key and priority group */
 80042dc:	68fb      	ldr	r3, [r7, #12]
 80042de:	021a      	lsls	r2, r3, #8
                ((uint32_t)0x5FAUL << SCB_AIRCR_VECTKEY_Pos) |
 80042e0:	68bb      	ldr	r3, [r7, #8]
 80042e2:	4313      	orrs	r3, r2
  reg_value  =  (reg_value                                   |
 80042e4:	f043 63bf 	orr.w	r3, r3, #100139008	; 0x5f80000
 80042e8:	f443 3300 	orr.w	r3, r3, #131072	; 0x20000
 80042ec:	60bb      	str	r3, [r7, #8]
  SCB->AIRCR =  reg_value;
 80042ee:	4a04      	ldr	r2, [pc, #16]	; (8004300 <__NVIC_SetPriorityGrouping+0x44>)
 80042f0:	68bb      	ldr	r3, [r7, #8]
 80042f2:	60d3      	str	r3, [r2, #12]
}
 80042f4:	bf00      	nop
 80042f6:	3714      	adds	r7, #20
 80042f8:	46bd      	mov	sp, r7
 80042fa:	f85d 7b04 	ldr.w	r7, [sp], #4
 80042fe:	4770      	bx	lr
 8004300:	e000ed00 	.word	0xe000ed00

08004304 <__NVIC_GetPriorityGrouping>:
  \brief   Get Priority Grouping
  \details Reads the priority grouping field from the NVIC Interrupt Controller.
  \return                Priority grouping field (SCB->AIRCR [10:8] PRIGROUP field).
 */
__STATIC_INLINE uint32_t __NVIC_GetPriorityGrouping(void)
{
 8004304:	b480      	push	{r7}
 8004306:	af00      	add	r7, sp, #0
  return ((uint32_t)((SCB->AIRCR & SCB_AIRCR_PRIGROUP_Msk) >> SCB_AIRCR_PRIGROUP_Pos));
 8004308:	4b04      	ldr	r3, [pc, #16]	; (800431c <__NVIC_GetPriorityGrouping+0x18>)
 800430a:	68db      	ldr	r3, [r3, #12]
 800430c:	0a1b      	lsrs	r3, r3, #8
 800430e:	f003 0307 	and.w	r3, r3, #7
}
 8004312:	4618      	mov	r0, r3
 8004314:	46bd      	mov	sp, r7
 8004316:	f85d 7b04 	ldr.w	r7, [sp], #4
 800431a:	4770      	bx	lr
 800431c:	e000ed00 	.word	0xe000ed00

08004320 <__NVIC_EnableIRQ>:
  \details Enables a device specific interrupt in the NVIC interrupt controller.
  \param [in]      IRQn  Device specific interrupt number.
  \note    IRQn must not be negative.
 */
__STATIC_INLINE void __NVIC_EnableIRQ(IRQn_Type IRQn)
{
 8004320:	b480      	push	{r7}
 8004322:	b083      	sub	sp, #12
 8004324:	af00      	add	r7, sp, #0
 8004326:	4603      	mov	r3, r0
 8004328:	71fb      	strb	r3, [r7, #7]
  if ((int32_t)(IRQn) >= 0)
 800432a:	f997 3007 	ldrsb.w	r3, [r7, #7]
 800432e:	2b00      	cmp	r3, #0
 8004330:	db0b      	blt.n	800434a <__NVIC_EnableIRQ+0x2a>
  {
    __COMPILER_BARRIER();
    NVIC->ISER[(((uint32_t)IRQn) >> 5UL)] = (uint32_t)(1UL << (((uint32_t)IRQn) & 0x1FUL));
 8004332:	79fb      	ldrb	r3, [r7, #7]
 8004334:	f003 021f 	and.w	r2, r3, #31
 8004338:	4907      	ldr	r1, [pc, #28]	; (8004358 <__NVIC_EnableIRQ+0x38>)
 800433a:	f997 3007 	ldrsb.w	r3, [r7, #7]
 800433e:	095b      	lsrs	r3, r3, #5
 8004340:	2001      	movs	r0, #1
 8004342:	fa00 f202 	lsl.w	r2, r0, r2
 8004346:	f841 2023 	str.w	r2, [r1, r3, lsl #2]
    __COMPILER_BARRIER();
  }
}
 800434a:	bf00      	nop
 800434c:	370c      	adds	r7, #12
 800434e:	46bd      	mov	sp, r7
 8004350:	f85d 7b04 	ldr.w	r7, [sp], #4
 8004354:	4770      	bx	lr
 8004356:	bf00      	nop
 8004358:	e000e100 	.word	0xe000e100

0800435c <__NVIC_SetPriority>:
  \param [in]      IRQn  Interrupt number.
  \param [in]  priority  Priority to set.
  \note    The priority cannot be set for every processor exception.
 */
__STATIC_INLINE void __NVIC_SetPriority(IRQn_Type IRQn, uint32_t priority)
{
 800435c:	b480      	push	{r7}
 800435e:	b083      	sub	sp, #12
 8004360:	af00      	add	r7, sp, #0
 8004362:	4603      	mov	r3, r0
 8004364:	6039      	str	r1, [r7, #0]
 8004366:	71fb      	strb	r3, [r7, #7]
  if ((int32_t)(IRQn) >= 0)
 8004368:	f997 3007 	ldrsb.w	r3, [r7, #7]
 800436c:	2b00      	cmp	r3, #0
 800436e:	db0a      	blt.n	8004386 <__NVIC_SetPriority+0x2a>
  {
    NVIC->IP[((uint32_t)IRQn)]               = (uint8_t)((priority << (8U - __NVIC_PRIO_BITS)) & (uint32_t)0xFFUL);
 8004370:	683b      	ldr	r3, [r7, #0]
 8004372:	b2da      	uxtb	r2, r3
 8004374:	490c      	ldr	r1, [pc, #48]	; (80043a8 <__NVIC_SetPriority+0x4c>)
 8004376:	f997 3007 	ldrsb.w	r3, [r7, #7]
 800437a:	0112      	lsls	r2, r2, #4
 800437c:	b2d2      	uxtb	r2, r2
 800437e:	440b      	add	r3, r1
 8004380:	f883 2300 	strb.w	r2, [r3, #768]	; 0x300
  }
  else
  {
    SCB->SHP[(((uint32_t)IRQn) & 0xFUL)-4UL] = (uint8_t)((priority << (8U - __NVIC_PRIO_BITS)) & (uint32_t)0xFFUL);
  }
}
 8004384:	e00a      	b.n	800439c <__NVIC_SetPriority+0x40>
    SCB->SHP[(((uint32_t)IRQn) & 0xFUL)-4UL] = (uint8_t)((priority << (8U - __NVIC_PRIO_BITS)) & (uint32_t)0xFFUL);
 8004386:	683b      	ldr	r3, [r7, #0]
 8004388:	b2da      	uxtb	r2, r3
 800438a:	4908      	ldr	r1, [pc, #32]	; (80043ac <__NVIC_SetPriority+0x50>)
 800438c:	79fb      	ldrb	r3, [r7, #7]
 800438e:	f003 030f 	and.w	r3, r3, #15
 8004392:	3b04      	subs	r3, #4
 8004394:	0112      	lsls	r2, r2, #4
 8004396:	b2d2      	uxtb	r2, r2
 8004398:	440b      	add	r3, r1
 800439a:	761a      	strb	r2, [r3, #24]
}
 800439c:	bf00      	nop
 800439e:	370c      	adds	r7, #12
 80043a0:	46bd      	mov	sp, r7
 80043a2:	f85d 7b04 	ldr.w	r7, [sp], #4
 80043a6:	4770      	bx	lr
 80043a8:	e000e100 	.word	0xe000e100
 80043ac:	e000ed00 	.word	0xe000ed00

080043b0 <NVIC_EncodePriority>:
  \param [in]   PreemptPriority  Preemptive priority value (starting from 0).
  \param [in]       SubPriority  Subpriority value (starting from 0).
  \return                        Encoded priority. Value can be used in the function \ref NVIC_SetPriority().
 */
__STATIC_INLINE uint32_t NVIC_EncodePriority (uint32_t PriorityGroup, uint32_t PreemptPriority, uint32_t SubPriority)
{
 80043b0:	b480      	push	{r7}
 80043b2:	b089      	sub	sp, #36	; 0x24
 80043b4:	af00      	add	r7, sp, #0
 80043b6:	60f8      	str	r0, [r7, #12]
 80043b8:	60b9      	str	r1, [r7, #8]
 80043ba:	607a      	str	r2, [r7, #4]
  uint32_t PriorityGroupTmp = (PriorityGroup & (uint32_t)0x07UL);   /* only values 0..7 are used          */
 80043bc:	68fb      	ldr	r3, [r7, #12]
 80043be:	f003 0307 	and.w	r3, r3, #7
 80043c2:	61fb      	str	r3, [r7, #28]
  uint32_t PreemptPriorityBits;
  uint32_t SubPriorityBits;

  PreemptPriorityBits = ((7UL - PriorityGroupTmp) > (uint32_t)(__NVIC_PRIO_BITS)) ? (uint32_t)(__NVIC_PRIO_BITS) : (uint32_t)(7UL - PriorityGroupTmp);
 80043c4:	69fb      	ldr	r3, [r7, #28]
 80043c6:	f1c3 0307 	rsb	r3, r3, #7
 80043ca:	2b04      	cmp	r3, #4
 80043cc:	bf28      	it	cs
 80043ce:	2304      	movcs	r3, #4
 80043d0:	61bb      	str	r3, [r7, #24]
  SubPriorityBits     = ((PriorityGroupTmp + (uint32_t)(__NVIC_PRIO_BITS)) < (uint32_t)7UL) ? (uint32_t)0UL : (uint32_t)((PriorityGroupTmp - 7UL) + (uint32_t)(__NVIC_PRIO_BITS));
 80043d2:	69fb      	ldr	r3, [r7, #28]
 80043d4:	3304      	adds	r3, #4
 80043d6:	2b06      	cmp	r3, #6
 80043d8:	d902      	bls.n	80043e0 <NVIC_EncodePriority+0x30>
 80043da:	69fb      	ldr	r3, [r7, #28]
 80043dc:	3b03      	subs	r3, #3
 80043de:	e000      	b.n	80043e2 <NVIC_EncodePriority+0x32>
 80043e0:	2300      	movs	r3, #0
 80043e2:	617b      	str	r3, [r7, #20]

  return (
           ((PreemptPriority & (uint32_t)((1UL << (PreemptPriorityBits)) - 1UL)) << SubPriorityBits) |
 80043e4:	f04f 32ff 	mov.w	r2, #4294967295	; 0xffffffff
 80043e8:	69bb      	ldr	r3, [r7, #24]
 80043ea:	fa02 f303 	lsl.w	r3, r2, r3
 80043ee:	43da      	mvns	r2, r3
 80043f0:	68bb      	ldr	r3, [r7, #8]
 80043f2:	401a      	ands	r2, r3
 80043f4:	697b      	ldr	r3, [r7, #20]
 80043f6:	409a      	lsls	r2, r3
           ((SubPriority     & (uint32_t)((1UL << (SubPriorityBits    )) - 1UL)))
 80043f8:	f04f 31ff 	mov.w	r1, #4294967295	; 0xffffffff
 80043fc:	697b      	ldr	r3, [r7, #20]
 80043fe:	fa01 f303 	lsl.w	r3, r1, r3
 8004402:	43d9      	mvns	r1, r3
 8004404:	687b      	ldr	r3, [r7, #4]
 8004406:	400b      	ands	r3, r1
           ((PreemptPriority & (uint32_t)((1UL << (PreemptPriorityBits)) - 1UL)) << SubPriorityBits) |
 8004408:	4313      	orrs	r3, r2
         );
}
 800440a:	4618      	mov	r0, r3
 800440c:	3724      	adds	r7, #36	; 0x24
 800440e:	46bd      	mov	sp, r7
 8004410:	f85d 7b04 	ldr.w	r7, [sp], #4
 8004414:	4770      	bx	lr
	...

08004418 <SysTick_Config>:
  \note    When the variable <b>__Vendor_SysTickConfig</b> is set to 1, then the
           function <b>SysTick_Config</b> is not included. In this case, the file <b><i>device</i>.h</b>
           must contain a vendor-specific implementation of this function.
 */
__STATIC_INLINE uint32_t SysTick_Config(uint32_t ticks)
{
 8004418:	b580      	push	{r7, lr}
 800441a:	b082      	sub	sp, #8
 800441c:	af00      	add	r7, sp, #0
 800441e:	6078      	str	r0, [r7, #4]
  if ((ticks - 1UL) > SysTick_LOAD_RELOAD_Msk)
 8004420:	687b      	ldr	r3, [r7, #4]
 8004422:	3b01      	subs	r3, #1
 8004424:	f1b3 7f80 	cmp.w	r3, #16777216	; 0x1000000
 8004428:	d301      	bcc.n	800442e <SysTick_Config+0x16>
  {
    return (1UL);                                                   /* Reload value impossible */
 800442a:	2301      	movs	r3, #1
 800442c:	e00f      	b.n	800444e <SysTick_Config+0x36>
  }

  SysTick->LOAD  = (uint32_t)(ticks - 1UL);                         /* set reload register */
 800442e:	4a0a      	ldr	r2, [pc, #40]	; (8004458 <SysTick_Config+0x40>)
 8004430:	687b      	ldr	r3, [r7, #4]
 8004432:	3b01      	subs	r3, #1
 8004434:	6053      	str	r3, [r2, #4]
  NVIC_SetPriority (SysTick_IRQn, (1UL << __NVIC_PRIO_BITS) - 1UL); /* set Priority for Systick Interrupt */
 8004436:	210f      	movs	r1, #15
 8004438:	f04f 30ff 	mov.w	r0, #4294967295	; 0xffffffff
 800443c:	f7ff ff8e 	bl	800435c <__NVIC_SetPriority>
  SysTick->VAL   = 0UL;                                             /* Load the SysTick Counter Value */
 8004440:	4b05      	ldr	r3, [pc, #20]	; (8004458 <SysTick_Config+0x40>)
 8004442:	2200      	movs	r2, #0
 8004444:	609a      	str	r2, [r3, #8]
  SysTick->CTRL  = SysTick_CTRL_CLKSOURCE_Msk |
 8004446:	4b04      	ldr	r3, [pc, #16]	; (8004458 <SysTick_Config+0x40>)
 8004448:	2207      	movs	r2, #7
 800444a:	601a      	str	r2, [r3, #0]
                   SysTick_CTRL_TICKINT_Msk   |
                   SysTick_CTRL_ENABLE_Msk;                         /* Enable SysTick IRQ and SysTick Timer */
  return (0UL);                                                     /* Function successful */
 800444c:	2300      	movs	r3, #0
}
 800444e:	4618      	mov	r0, r3
 8004450:	3708      	adds	r7, #8
 8004452:	46bd      	mov	sp, r7
 8004454:	bd80      	pop	{r7, pc}
 8004456:	bf00      	nop
 8004458:	e000e010 	.word	0xe000e010

0800445c <HAL_NVIC_SetPriorityGrouping>:
  * @note   When the NVIC_PriorityGroup_0 is selected, IRQ pre-emption is no more possible.
  *         The pending IRQ priority will be managed only by the subpriority.
  * @retval None
  */
void HAL_NVIC_SetPriorityGrouping(uint32_t PriorityGroup)
{
 800445c:	b580      	push	{r7, lr}
 800445e:	b082      	sub	sp, #8
 8004460:	af00      	add	r7, sp, #0
 8004462:	6078      	str	r0, [r7, #4]
  /* Check the parameters */
  assert_param(IS_NVIC_PRIORITY_GROUP(PriorityGroup));

  /* Set the PRIGROUP[10:8] bits according to the PriorityGroup parameter value */
  NVIC_SetPriorityGrouping(PriorityGroup);
 8004464:	6878      	ldr	r0, [r7, #4]
 8004466:	f7ff ff29 	bl	80042bc <__NVIC_SetPriorityGrouping>
}
 800446a:	bf00      	nop
 800446c:	3708      	adds	r7, #8
 800446e:	46bd      	mov	sp, r7
 8004470:	bd80      	pop	{r7, pc}

08004472 <HAL_NVIC_SetPriority>:
  *         This parameter can be a value between 0 and 15
  *         A lower priority value indicates a higher priority.
  * @retval None
  */
void HAL_NVIC_SetPriority(IRQn_Type IRQn, uint32_t PreemptPriority, uint32_t SubPriority)
{
 8004472:	b580      	push	{r7, lr}
 8004474:	b086      	sub	sp, #24
 8004476:	af00      	add	r7, sp, #0
 8004478:	4603      	mov	r3, r0
 800447a:	60b9      	str	r1, [r7, #8]
 800447c:	607a      	str	r2, [r7, #4]
 800447e:	73fb      	strb	r3, [r7, #15]
  uint32_t prioritygroup = 0x00;
 8004480:	2300      	movs	r3, #0
 8004482:	617b      	str	r3, [r7, #20]

  /* Check the parameters */
  assert_param(IS_NVIC_SUB_PRIORITY(SubPriority));
  assert_param(IS_NVIC_PREEMPTION_PRIORITY(PreemptPriority));

  prioritygroup = NVIC_GetPriorityGrouping();
 8004484:	f7ff ff3e 	bl	8004304 <__NVIC_GetPriorityGrouping>
 8004488:	6178      	str	r0, [r7, #20]

  NVIC_SetPriority(IRQn, NVIC_EncodePriority(prioritygroup, PreemptPriority, SubPriority));
 800448a:	687a      	ldr	r2, [r7, #4]
 800448c:	68b9      	ldr	r1, [r7, #8]
 800448e:	6978      	ldr	r0, [r7, #20]
 8004490:	f7ff ff8e 	bl	80043b0 <NVIC_EncodePriority>
 8004494:	4602      	mov	r2, r0
 8004496:	f997 300f 	ldrsb.w	r3, [r7, #15]
 800449a:	4611      	mov	r1, r2
 800449c:	4618      	mov	r0, r3
 800449e:	f7ff ff5d 	bl	800435c <__NVIC_SetPriority>
}
 80044a2:	bf00      	nop
 80044a4:	3718      	adds	r7, #24
 80044a6:	46bd      	mov	sp, r7
 80044a8:	bd80      	pop	{r7, pc}

080044aa <HAL_NVIC_EnableIRQ>:
  *         This parameter can be an enumerator of IRQn_Type enumeration
  *         (For the complete STM32 Devices IRQ Channels list, please refer to the appropriate CMSIS device file (stm32l4xxxx.h))
  * @retval None
  */
void HAL_NVIC_EnableIRQ(IRQn_Type IRQn)
{
 80044aa:	b580      	push	{r7, lr}
 80044ac:	b082      	sub	sp, #8
 80044ae:	af00      	add	r7, sp, #0
 80044b0:	4603      	mov	r3, r0
 80044b2:	71fb      	strb	r3, [r7, #7]
  /* Check the parameters */
  assert_param(IS_NVIC_DEVICE_IRQ(IRQn));
  
  /* Enable interrupt */
  NVIC_EnableIRQ(IRQn);
 80044b4:	f997 3007 	ldrsb.w	r3, [r7, #7]
 80044b8:	4618      	mov	r0, r3
 80044ba:	f7ff ff31 	bl	8004320 <__NVIC_EnableIRQ>
}
 80044be:	bf00      	nop
 80044c0:	3708      	adds	r7, #8
 80044c2:	46bd      	mov	sp, r7
 80044c4:	bd80      	pop	{r7, pc}

080044c6 <HAL_SYSTICK_Config>:
  * @param  TicksNumb: Specifies the ticks Number of ticks between two interrupts.
  * @retval status:  - 0  Function succeeded.
  *                  - 1  Function failed.
  */
uint32_t HAL_SYSTICK_Config(uint32_t TicksNumb)
{
 80044c6:	b580      	push	{r7, lr}
 80044c8:	b082      	sub	sp, #8
 80044ca:	af00      	add	r7, sp, #0
 80044cc:	6078      	str	r0, [r7, #4]
   return SysTick_Config(TicksNumb);
 80044ce:	6878      	ldr	r0, [r7, #4]
 80044d0:	f7ff ffa2 	bl	8004418 <SysTick_Config>
 80044d4:	4603      	mov	r3, r0
}
 80044d6:	4618      	mov	r0, r3
 80044d8:	3708      	adds	r7, #8
 80044da:	46bd      	mov	sp, r7
 80044dc:	bd80      	pop	{r7, pc}

080044de <HAL_DAC_Init>:
  * @param  hdac pointer to a DAC_HandleTypeDef structure that contains
  *         the configuration information for the specified DAC.
  * @retval HAL status
  */
HAL_StatusTypeDef HAL_DAC_Init(DAC_HandleTypeDef *hdac)
{
 80044de:	b580      	push	{r7, lr}
 80044e0:	b082      	sub	sp, #8
 80044e2:	af00      	add	r7, sp, #0
 80044e4:	6078      	str	r0, [r7, #4]
  /* Check DAC handle */
  if (hdac == NULL)
 80044e6:	687b      	ldr	r3, [r7, #4]
 80044e8:	2b00      	cmp	r3, #0
 80044ea:	d101      	bne.n	80044f0 <HAL_DAC_Init+0x12>
  {
     return HAL_ERROR;
 80044ec:	2301      	movs	r3, #1
 80044ee:	e014      	b.n	800451a <HAL_DAC_Init+0x3c>
  }
  /* Check the parameters */
  assert_param(IS_DAC_ALL_INSTANCE(hdac->Instance));

  if (hdac->State == HAL_DAC_STATE_RESET)
 80044f0:	687b      	ldr	r3, [r7, #4]
 80044f2:	791b      	ldrb	r3, [r3, #4]
 80044f4:	b2db      	uxtb	r3, r3
 80044f6:	2b00      	cmp	r3, #0
 80044f8:	d105      	bne.n	8004506 <HAL_DAC_Init+0x28>
      hdac->MspInitCallback             = HAL_DAC_MspInit;
    }
#endif /* USE_HAL_DAC_REGISTER_CALLBACKS */

    /* Allocate lock resource and initialize it */
    hdac->Lock = HAL_UNLOCKED;
 80044fa:	687b      	ldr	r3, [r7, #4]
 80044fc:	2200      	movs	r2, #0
 80044fe:	715a      	strb	r2, [r3, #5]
#if (USE_HAL_DAC_REGISTER_CALLBACKS == 1)
    /* Init the low level hardware */
    hdac->MspInitCallback(hdac);
#else
    /* Init the low level hardware */
    HAL_DAC_MspInit(hdac);
 8004500:	6878      	ldr	r0, [r7, #4]
 8004502:	f7fc fe53 	bl	80011ac <HAL_DAC_MspInit>
#endif /* USE_HAL_DAC_REGISTER_CALLBACKS */
  }

  /* Initialize the DAC state*/
  hdac->State = HAL_DAC_STATE_BUSY;
 8004506:	687b      	ldr	r3, [r7, #4]
 8004508:	2202      	movs	r2, #2
 800450a:	711a      	strb	r2, [r3, #4]

  /* Set DAC error code to none */
  hdac->ErrorCode = HAL_DAC_ERROR_NONE;
 800450c:	687b      	ldr	r3, [r7, #4]
 800450e:	2200      	movs	r2, #0
 8004510:	611a      	str	r2, [r3, #16]

  /* Initialize the DAC state*/
  hdac->State = HAL_DAC_STATE_READY;
 8004512:	687b      	ldr	r3, [r7, #4]
 8004514:	2201      	movs	r2, #1
 8004516:	711a      	strb	r2, [r3, #4]

  /* Return function status */
  return HAL_OK;
 8004518:	2300      	movs	r3, #0
}
 800451a:	4618      	mov	r0, r3
 800451c:	3708      	adds	r7, #8
 800451e:	46bd      	mov	sp, r7
 8004520:	bd80      	pop	{r7, pc}
	...

08004524 <HAL_DAC_Start_DMA>:
  *            @arg DAC_ALIGN_12B_R: 12bit right data alignment selected
  * @retval HAL status
  */
HAL_StatusTypeDef HAL_DAC_Start_DMA(DAC_HandleTypeDef *hdac, uint32_t Channel, uint32_t *pData, uint32_t Length,
                                    uint32_t Alignment)
{
 8004524:	b580      	push	{r7, lr}
 8004526:	b086      	sub	sp, #24
 8004528:	af00      	add	r7, sp, #0
 800452a:	60f8      	str	r0, [r7, #12]
 800452c:	60b9      	str	r1, [r7, #8]
 800452e:	607a      	str	r2, [r7, #4]
 8004530:	603b      	str	r3, [r7, #0]
  HAL_StatusTypeDef status;
  uint32_t tmpreg = 0U;
 8004532:	2300      	movs	r3, #0
 8004534:	613b      	str	r3, [r7, #16]
  /* Check the parameters */
  assert_param(IS_DAC_CHANNEL(Channel));
  assert_param(IS_DAC_ALIGN(Alignment));

  /* Process locked */
  __HAL_LOCK(hdac);
 8004536:	68fb      	ldr	r3, [r7, #12]
 8004538:	795b      	ldrb	r3, [r3, #5]
 800453a:	2b01      	cmp	r3, #1
 800453c:	d101      	bne.n	8004542 <HAL_DAC_Start_DMA+0x1e>
 800453e:	2302      	movs	r3, #2
 8004540:	e09e      	b.n	8004680 <HAL_DAC_Start_DMA+0x15c>
 8004542:	68fb      	ldr	r3, [r7, #12]
 8004544:	2201      	movs	r2, #1
 8004546:	715a      	strb	r2, [r3, #5]

  /* Change DAC state */
  hdac->State = HAL_DAC_STATE_BUSY;
 8004548:	68fb      	ldr	r3, [r7, #12]
 800454a:	2202      	movs	r2, #2
 800454c:	711a      	strb	r2, [r3, #4]

  if (Channel == DAC_CHANNEL_1)
 800454e:	68bb      	ldr	r3, [r7, #8]
 8004550:	2b00      	cmp	r3, #0
 8004552:	d12a      	bne.n	80045aa <HAL_DAC_Start_DMA+0x86>
  {
    /* Set the DMA transfer complete callback for channel1 */
    hdac->DMA_Handle1->XferCpltCallback = DAC_DMAConvCpltCh1;
 8004554:	68fb      	ldr	r3, [r7, #12]
 8004556:	689b      	ldr	r3, [r3, #8]
 8004558:	4a4b      	ldr	r2, [pc, #300]	; (8004688 <HAL_DAC_Start_DMA+0x164>)
 800455a:	62da      	str	r2, [r3, #44]	; 0x2c

    /* Set the DMA half transfer complete callback for channel1 */
    hdac->DMA_Handle1->XferHalfCpltCallback = DAC_DMAHalfConvCpltCh1;
 800455c:	68fb      	ldr	r3, [r7, #12]
 800455e:	689b      	ldr	r3, [r3, #8]
 8004560:	4a4a      	ldr	r2, [pc, #296]	; (800468c <HAL_DAC_Start_DMA+0x168>)
 8004562:	631a      	str	r2, [r3, #48]	; 0x30

    /* Set the DMA error callback for channel1 */
    hdac->DMA_Handle1->XferErrorCallback = DAC_DMAErrorCh1;
 8004564:	68fb      	ldr	r3, [r7, #12]
 8004566:	689b      	ldr	r3, [r3, #8]
 8004568:	4a49      	ldr	r2, [pc, #292]	; (8004690 <HAL_DAC_Start_DMA+0x16c>)
 800456a:	635a      	str	r2, [r3, #52]	; 0x34

    /* Enable the selected DAC channel1 DMA request */
    SET_BIT(hdac->Instance->CR, DAC_CR_DMAEN1);
 800456c:	68fb      	ldr	r3, [r7, #12]
 800456e:	681b      	ldr	r3, [r3, #0]
 8004570:	681a      	ldr	r2, [r3, #0]
 8004572:	68fb      	ldr	r3, [r7, #12]
 8004574:	681b      	ldr	r3, [r3, #0]
 8004576:	f442 5280 	orr.w	r2, r2, #4096	; 0x1000
 800457a:	601a      	str	r2, [r3, #0]

    /* Case of use of channel 1 */
    switch (Alignment)
 800457c:	6a3b      	ldr	r3, [r7, #32]
 800457e:	2b04      	cmp	r3, #4
 8004580:	d009      	beq.n	8004596 <HAL_DAC_Start_DMA+0x72>
 8004582:	2b08      	cmp	r3, #8
 8004584:	d00c      	beq.n	80045a0 <HAL_DAC_Start_DMA+0x7c>
 8004586:	2b00      	cmp	r3, #0
 8004588:	d000      	beq.n	800458c <HAL_DAC_Start_DMA+0x68>
      case DAC_ALIGN_8B_R:
        /* Get DHR8R1 address */
        tmpreg = (uint32_t)&hdac->Instance->DHR8R1;
        break;
      default:
        break;
 800458a:	e039      	b.n	8004600 <HAL_DAC_Start_DMA+0xdc>
        tmpreg = (uint32_t)&hdac->Instance->DHR12R1;
 800458c:	68fb      	ldr	r3, [r7, #12]
 800458e:	681b      	ldr	r3, [r3, #0]
 8004590:	3308      	adds	r3, #8
 8004592:	613b      	str	r3, [r7, #16]
        break;
 8004594:	e034      	b.n	8004600 <HAL_DAC_Start_DMA+0xdc>
        tmpreg = (uint32_t)&hdac->Instance->DHR12L1;
 8004596:	68fb      	ldr	r3, [r7, #12]
 8004598:	681b      	ldr	r3, [r3, #0]
 800459a:	330c      	adds	r3, #12
 800459c:	613b      	str	r3, [r7, #16]
        break;
 800459e:	e02f      	b.n	8004600 <HAL_DAC_Start_DMA+0xdc>
        tmpreg = (uint32_t)&hdac->Instance->DHR8R1;
 80045a0:	68fb      	ldr	r3, [r7, #12]
 80045a2:	681b      	ldr	r3, [r3, #0]
 80045a4:	3310      	adds	r3, #16
 80045a6:	613b      	str	r3, [r7, #16]
        break;
 80045a8:	e02a      	b.n	8004600 <HAL_DAC_Start_DMA+0xdc>
    }
  }
  else
  {
    /* Set the DMA transfer complete callback for channel2 */
    hdac->DMA_Handle2->XferCpltCallback = DAC_DMAConvCpltCh2;
 80045aa:	68fb      	ldr	r3, [r7, #12]
 80045ac:	68db      	ldr	r3, [r3, #12]
 80045ae:	4a39      	ldr	r2, [pc, #228]	; (8004694 <HAL_DAC_Start_DMA+0x170>)
 80045b0:	62da      	str	r2, [r3, #44]	; 0x2c

    /* Set the DMA half transfer complete callback for channel2 */
    hdac->DMA_Handle2->XferHalfCpltCallback = DAC_DMAHalfConvCpltCh2;
 80045b2:	68fb      	ldr	r3, [r7, #12]
 80045b4:	68db      	ldr	r3, [r3, #12]
 80045b6:	4a38      	ldr	r2, [pc, #224]	; (8004698 <HAL_DAC_Start_DMA+0x174>)
 80045b8:	631a      	str	r2, [r3, #48]	; 0x30

    /* Set the DMA error callback for channel2 */
    hdac->DMA_Handle2->XferErrorCallback = DAC_DMAErrorCh2;
 80045ba:	68fb      	ldr	r3, [r7, #12]
 80045bc:	68db      	ldr	r3, [r3, #12]
 80045be:	4a37      	ldr	r2, [pc, #220]	; (800469c <HAL_DAC_Start_DMA+0x178>)
 80045c0:	635a      	str	r2, [r3, #52]	; 0x34

    /* Enable the selected DAC channel2 DMA request */
    SET_BIT(hdac->Instance->CR, DAC_CR_DMAEN2);
 80045c2:	68fb      	ldr	r3, [r7, #12]
 80045c4:	681b      	ldr	r3, [r3, #0]
 80045c6:	681a      	ldr	r2, [r3, #0]
 80045c8:	68fb      	ldr	r3, [r7, #12]
 80045ca:	681b      	ldr	r3, [r3, #0]
 80045cc:	f042 5280 	orr.w	r2, r2, #268435456	; 0x10000000
 80045d0:	601a      	str	r2, [r3, #0]

    /* Case of use of channel 2 */
    switch (Alignment)
 80045d2:	6a3b      	ldr	r3, [r7, #32]
 80045d4:	2b04      	cmp	r3, #4
 80045d6:	d009      	beq.n	80045ec <HAL_DAC_Start_DMA+0xc8>
 80045d8:	2b08      	cmp	r3, #8
 80045da:	d00c      	beq.n	80045f6 <HAL_DAC_Start_DMA+0xd2>
 80045dc:	2b00      	cmp	r3, #0
 80045de:	d000      	beq.n	80045e2 <HAL_DAC_Start_DMA+0xbe>
      case DAC_ALIGN_8B_R:
        /* Get DHR8R2 address */
        tmpreg = (uint32_t)&hdac->Instance->DHR8R2;
        break;
      default:
        break;
 80045e0:	e00e      	b.n	8004600 <HAL_DAC_Start_DMA+0xdc>
        tmpreg = (uint32_t)&hdac->Instance->DHR12R2;
 80045e2:	68fb      	ldr	r3, [r7, #12]
 80045e4:	681b      	ldr	r3, [r3, #0]
 80045e6:	3314      	adds	r3, #20
 80045e8:	613b      	str	r3, [r7, #16]
        break;
 80045ea:	e009      	b.n	8004600 <HAL_DAC_Start_DMA+0xdc>
        tmpreg = (uint32_t)&hdac->Instance->DHR12L2;
 80045ec:	68fb      	ldr	r3, [r7, #12]
 80045ee:	681b      	ldr	r3, [r3, #0]
 80045f0:	3318      	adds	r3, #24
 80045f2:	613b      	str	r3, [r7, #16]
        break;
 80045f4:	e004      	b.n	8004600 <HAL_DAC_Start_DMA+0xdc>
        tmpreg = (uint32_t)&hdac->Instance->DHR8R2;
 80045f6:	68fb      	ldr	r3, [r7, #12]
 80045f8:	681b      	ldr	r3, [r3, #0]
 80045fa:	331c      	adds	r3, #28
 80045fc:	613b      	str	r3, [r7, #16]
        break;
 80045fe:	bf00      	nop
    }
  }

  /* Enable the DMA channel */
  if (Channel == DAC_CHANNEL_1)
 8004600:	68bb      	ldr	r3, [r7, #8]
 8004602:	2b00      	cmp	r3, #0
 8004604:	d111      	bne.n	800462a <HAL_DAC_Start_DMA+0x106>
  {
    /* Enable the DAC DMA underrun interrupt */
    __HAL_DAC_ENABLE_IT(hdac, DAC_IT_DMAUDR1);
 8004606:	68fb      	ldr	r3, [r7, #12]
 8004608:	681b      	ldr	r3, [r3, #0]
 800460a:	681a      	ldr	r2, [r3, #0]
 800460c:	68fb      	ldr	r3, [r7, #12]
 800460e:	681b      	ldr	r3, [r3, #0]
 8004610:	f442 5200 	orr.w	r2, r2, #8192	; 0x2000
 8004614:	601a      	str	r2, [r3, #0]

    /* Enable the DMA channel */
    status = HAL_DMA_Start_IT(hdac->DMA_Handle1, (uint32_t)pData, tmpreg, Length);
 8004616:	68fb      	ldr	r3, [r7, #12]
 8004618:	6898      	ldr	r0, [r3, #8]
 800461a:	6879      	ldr	r1, [r7, #4]
 800461c:	683b      	ldr	r3, [r7, #0]
 800461e:	693a      	ldr	r2, [r7, #16]
 8004620:	f000 fab8 	bl	8004b94 <HAL_DMA_Start_IT>
 8004624:	4603      	mov	r3, r0
 8004626:	75fb      	strb	r3, [r7, #23]
 8004628:	e010      	b.n	800464c <HAL_DAC_Start_DMA+0x128>
  }
  else
  {
    /* Enable the DAC DMA underrun interrupt */
    __HAL_DAC_ENABLE_IT(hdac, DAC_IT_DMAUDR2);
 800462a:	68fb      	ldr	r3, [r7, #12]
 800462c:	681b      	ldr	r3, [r3, #0]
 800462e:	681a      	ldr	r2, [r3, #0]
 8004630:	68fb      	ldr	r3, [r7, #12]
 8004632:	681b      	ldr	r3, [r3, #0]
 8004634:	f042 5200 	orr.w	r2, r2, #536870912	; 0x20000000
 8004638:	601a      	str	r2, [r3, #0]

    /* Enable the DMA channel */
    status = HAL_DMA_Start_IT(hdac->DMA_Handle2, (uint32_t)pData, tmpreg, Length);
 800463a:	68fb      	ldr	r3, [r7, #12]
 800463c:	68d8      	ldr	r0, [r3, #12]
 800463e:	6879      	ldr	r1, [r7, #4]
 8004640:	683b      	ldr	r3, [r7, #0]
 8004642:	693a      	ldr	r2, [r7, #16]
 8004644:	f000 faa6 	bl	8004b94 <HAL_DMA_Start_IT>
 8004648:	4603      	mov	r3, r0
 800464a:	75fb      	strb	r3, [r7, #23]
  }

  /* Process Unlocked */
  __HAL_UNLOCK(hdac);
 800464c:	68fb      	ldr	r3, [r7, #12]
 800464e:	2200      	movs	r2, #0
 8004650:	715a      	strb	r2, [r3, #5]

  if (status == HAL_OK)
 8004652:	7dfb      	ldrb	r3, [r7, #23]
 8004654:	2b00      	cmp	r3, #0
 8004656:	d10c      	bne.n	8004672 <HAL_DAC_Start_DMA+0x14e>
  {
    /* Enable the Peripheral */
    __HAL_DAC_ENABLE(hdac, Channel);
 8004658:	68fb      	ldr	r3, [r7, #12]
 800465a:	681b      	ldr	r3, [r3, #0]
 800465c:	6819      	ldr	r1, [r3, #0]
 800465e:	68bb      	ldr	r3, [r7, #8]
 8004660:	f003 0310 	and.w	r3, r3, #16
 8004664:	2201      	movs	r2, #1
 8004666:	409a      	lsls	r2, r3
 8004668:	68fb      	ldr	r3, [r7, #12]
 800466a:	681b      	ldr	r3, [r3, #0]
 800466c:	430a      	orrs	r2, r1
 800466e:	601a      	str	r2, [r3, #0]
 8004670:	e005      	b.n	800467e <HAL_DAC_Start_DMA+0x15a>
  }
  else
  {
    hdac->ErrorCode |= HAL_DAC_ERROR_DMA;
 8004672:	68fb      	ldr	r3, [r7, #12]
 8004674:	691b      	ldr	r3, [r3, #16]
 8004676:	f043 0204 	orr.w	r2, r3, #4
 800467a:	68fb      	ldr	r3, [r7, #12]
 800467c:	611a      	str	r2, [r3, #16]
  }

  /* Return function status */
  return status;
 800467e:	7dfb      	ldrb	r3, [r7, #23]
}
 8004680:	4618      	mov	r0, r3
 8004682:	3718      	adds	r7, #24
 8004684:	46bd      	mov	sp, r7
 8004686:	bd80      	pop	{r7, pc}
 8004688:	08004911 	.word	0x08004911
 800468c:	08004933 	.word	0x08004933
 8004690:	0800494f 	.word	0x0800494f
 8004694:	080049b9 	.word	0x080049b9
 8004698:	080049db 	.word	0x080049db
 800469c:	080049f7 	.word	0x080049f7

080046a0 <HAL_DAC_ConvCpltCallbackCh1>:
  * @param  hdac pointer to a DAC_HandleTypeDef structure that contains
  *         the configuration information for the specified DAC.
  * @retval None
  */
__weak void HAL_DAC_ConvCpltCallbackCh1(DAC_HandleTypeDef *hdac)
{
 80046a0:	b480      	push	{r7}
 80046a2:	b083      	sub	sp, #12
 80046a4:	af00      	add	r7, sp, #0
 80046a6:	6078      	str	r0, [r7, #4]
  UNUSED(hdac);

  /* NOTE : This function should not be modified, when the callback is needed,
            the HAL_DAC_ConvCpltCallbackCh1 could be implemented in the user file
   */
}
 80046a8:	bf00      	nop
 80046aa:	370c      	adds	r7, #12
 80046ac:	46bd      	mov	sp, r7
 80046ae:	f85d 7b04 	ldr.w	r7, [sp], #4
 80046b2:	4770      	bx	lr

080046b4 <HAL_DAC_ConvHalfCpltCallbackCh1>:
  * @param  hdac pointer to a DAC_HandleTypeDef structure that contains
  *         the configuration information for the specified DAC.
  * @retval None
  */
__weak void HAL_DAC_ConvHalfCpltCallbackCh1(DAC_HandleTypeDef *hdac)
{
 80046b4:	b480      	push	{r7}
 80046b6:	b083      	sub	sp, #12
 80046b8:	af00      	add	r7, sp, #0
 80046ba:	6078      	str	r0, [r7, #4]
  UNUSED(hdac);

  /* NOTE : This function should not be modified, when the callback is needed,
            the HAL_DAC_ConvHalfCpltCallbackCh1 could be implemented in the user file
   */
}
 80046bc:	bf00      	nop
 80046be:	370c      	adds	r7, #12
 80046c0:	46bd      	mov	sp, r7
 80046c2:	f85d 7b04 	ldr.w	r7, [sp], #4
 80046c6:	4770      	bx	lr

080046c8 <HAL_DAC_ErrorCallbackCh1>:
  * @param  hdac pointer to a DAC_HandleTypeDef structure that contains
  *         the configuration information for the specified DAC.
  * @retval None
  */
__weak void HAL_DAC_ErrorCallbackCh1(DAC_HandleTypeDef *hdac)
{
 80046c8:	b480      	push	{r7}
 80046ca:	b083      	sub	sp, #12
 80046cc:	af00      	add	r7, sp, #0
 80046ce:	6078      	str	r0, [r7, #4]
  UNUSED(hdac);

  /* NOTE : This function should not be modified, when the callback is needed,
            the HAL_DAC_ErrorCallbackCh1 could be implemented in the user file
   */
}
 80046d0:	bf00      	nop
 80046d2:	370c      	adds	r7, #12
 80046d4:	46bd      	mov	sp, r7
 80046d6:	f85d 7b04 	ldr.w	r7, [sp], #4
 80046da:	4770      	bx	lr

080046dc <HAL_DAC_ConfigChannel>:
  *            @arg DAC_CHANNEL_1: DAC Channel1 selected
  *            @arg DAC_CHANNEL_2: DAC Channel2 selected (Whenever present)
  * @retval HAL status
  */
HAL_StatusTypeDef HAL_DAC_ConfigChannel(DAC_HandleTypeDef *hdac, DAC_ChannelConfTypeDef *sConfig, uint32_t Channel)
{
 80046dc:	b580      	push	{r7, lr}
 80046de:	b088      	sub	sp, #32
 80046e0:	af00      	add	r7, sp, #0
 80046e2:	60f8      	str	r0, [r7, #12]
 80046e4:	60b9      	str	r1, [r7, #8]
 80046e6:	607a      	str	r2, [r7, #4]
  uint32_t tmpreg1;
  uint32_t tmpreg2;
  uint32_t tickstart = 0U;
 80046e8:	2300      	movs	r3, #0
 80046ea:	61fb      	str	r3, [r7, #28]
    assert_param(IS_DAC_REFRESHTIME(sConfig->DAC_SampleAndHoldConfig.DAC_RefreshTime));
  }
  assert_param(IS_DAC_CHANNEL(Channel));

  /* Process locked */
  __HAL_LOCK(hdac);
 80046ec:	68fb      	ldr	r3, [r7, #12]
 80046ee:	795b      	ldrb	r3, [r3, #5]
 80046f0:	2b01      	cmp	r3, #1
 80046f2:	d101      	bne.n	80046f8 <HAL_DAC_ConfigChannel+0x1c>
 80046f4:	2302      	movs	r3, #2
 80046f6:	e107      	b.n	8004908 <HAL_DAC_ConfigChannel+0x22c>
 80046f8:	68fb      	ldr	r3, [r7, #12]
 80046fa:	2201      	movs	r2, #1
 80046fc:	715a      	strb	r2, [r3, #5]

  /* Change DAC state */
  hdac->State = HAL_DAC_STATE_BUSY;
 80046fe:	68fb      	ldr	r3, [r7, #12]
 8004700:	2202      	movs	r2, #2
 8004702:	711a      	strb	r2, [r3, #4]

  if (sConfig->DAC_SampleAndHold == DAC_SAMPLEANDHOLD_ENABLE)
 8004704:	68bb      	ldr	r3, [r7, #8]
 8004706:	681b      	ldr	r3, [r3, #0]
 8004708:	2b04      	cmp	r3, #4
 800470a:	d174      	bne.n	80047f6 <HAL_DAC_ConfigChannel+0x11a>
  /* Sample on old configuration */
  {
    /* Get timeout */
    tickstart = HAL_GetTick();
 800470c:	f7fe fd40 	bl	8003190 <HAL_GetTick>
 8004710:	61f8      	str	r0, [r7, #28]

    if (Channel == DAC_CHANNEL_1)
 8004712:	687b      	ldr	r3, [r7, #4]
 8004714:	2b00      	cmp	r3, #0
 8004716:	d134      	bne.n	8004782 <HAL_DAC_ConfigChannel+0xa6>
    {

      /* SHSR1 can be written when BWST1 is cleared */
      while (((hdac->Instance->SR) & DAC_SR_BWST1) != 0UL)
 8004718:	e011      	b.n	800473e <HAL_DAC_ConfigChannel+0x62>
      {
        /* Check for the Timeout */
        if ((HAL_GetTick() - tickstart) > TIMEOUT_DAC_CALIBCONFIG)
 800471a:	f7fe fd39 	bl	8003190 <HAL_GetTick>
 800471e:	4602      	mov	r2, r0
 8004720:	69fb      	ldr	r3, [r7, #28]
 8004722:	1ad3      	subs	r3, r2, r3
 8004724:	2b01      	cmp	r3, #1
 8004726:	d90a      	bls.n	800473e <HAL_DAC_ConfigChannel+0x62>
        {
          /* Update error code */
          SET_BIT(hdac->ErrorCode, HAL_DAC_ERROR_TIMEOUT);
 8004728:	68fb      	ldr	r3, [r7, #12]
 800472a:	691b      	ldr	r3, [r3, #16]
 800472c:	f043 0208 	orr.w	r2, r3, #8
 8004730:	68fb      	ldr	r3, [r7, #12]
 8004732:	611a      	str	r2, [r3, #16]

          /* Change the DMA state */
          hdac->State = HAL_DAC_STATE_TIMEOUT;
 8004734:	68fb      	ldr	r3, [r7, #12]
 8004736:	2203      	movs	r2, #3
 8004738:	711a      	strb	r2, [r3, #4]

          return HAL_TIMEOUT;
 800473a:	2303      	movs	r3, #3
 800473c:	e0e4      	b.n	8004908 <HAL_DAC_ConfigChannel+0x22c>
      while (((hdac->Instance->SR) & DAC_SR_BWST1) != 0UL)
 800473e:	68fb      	ldr	r3, [r7, #12]
 8004740:	681b      	ldr	r3, [r3, #0]
 8004742:	6b5b      	ldr	r3, [r3, #52]	; 0x34
 8004744:	f403 4300 	and.w	r3, r3, #32768	; 0x8000
 8004748:	2b00      	cmp	r3, #0
 800474a:	d1e6      	bne.n	800471a <HAL_DAC_ConfigChannel+0x3e>
        }
      }
      HAL_Delay(1);
 800474c:	2001      	movs	r0, #1
 800474e:	f7fe fd2b 	bl	80031a8 <HAL_Delay>
      hdac->Instance->SHSR1 = sConfig->DAC_SampleAndHoldConfig.DAC_SampleTime;
 8004752:	68fb      	ldr	r3, [r7, #12]
 8004754:	681b      	ldr	r3, [r3, #0]
 8004756:	68ba      	ldr	r2, [r7, #8]
 8004758:	6992      	ldr	r2, [r2, #24]
 800475a:	641a      	str	r2, [r3, #64]	; 0x40
 800475c:	e01e      	b.n	800479c <HAL_DAC_ConfigChannel+0xc0>
      /* SHSR2 can be written when BWST2 is cleared */

      while (((hdac->Instance->SR) & DAC_SR_BWST2) != 0UL)
      {
        /* Check for the Timeout */
        if ((HAL_GetTick() - tickstart) > TIMEOUT_DAC_CALIBCONFIG)
 800475e:	f7fe fd17 	bl	8003190 <HAL_GetTick>
 8004762:	4602      	mov	r2, r0
 8004764:	69fb      	ldr	r3, [r7, #28]
 8004766:	1ad3      	subs	r3, r2, r3
 8004768:	2b01      	cmp	r3, #1
 800476a:	d90a      	bls.n	8004782 <HAL_DAC_ConfigChannel+0xa6>
        {
          /* Update error code */
          SET_BIT(hdac->ErrorCode, HAL_DAC_ERROR_TIMEOUT);
 800476c:	68fb      	ldr	r3, [r7, #12]
 800476e:	691b      	ldr	r3, [r3, #16]
 8004770:	f043 0208 	orr.w	r2, r3, #8
 8004774:	68fb      	ldr	r3, [r7, #12]
 8004776:	611a      	str	r2, [r3, #16]

          /* Change the DMA state */
          hdac->State = HAL_DAC_STATE_TIMEOUT;
 8004778:	68fb      	ldr	r3, [r7, #12]
 800477a:	2203      	movs	r2, #3
 800477c:	711a      	strb	r2, [r3, #4]

          return HAL_TIMEOUT;
 800477e:	2303      	movs	r3, #3
 8004780:	e0c2      	b.n	8004908 <HAL_DAC_ConfigChannel+0x22c>
      while (((hdac->Instance->SR) & DAC_SR_BWST2) != 0UL)
 8004782:	68fb      	ldr	r3, [r7, #12]
 8004784:	681b      	ldr	r3, [r3, #0]
 8004786:	6b5b      	ldr	r3, [r3, #52]	; 0x34
 8004788:	2b00      	cmp	r3, #0
 800478a:	dbe8      	blt.n	800475e <HAL_DAC_ConfigChannel+0x82>
        }
      }
      HAL_Delay(1U);
 800478c:	2001      	movs	r0, #1
 800478e:	f7fe fd0b 	bl	80031a8 <HAL_Delay>
      hdac->Instance->SHSR2 = sConfig->DAC_SampleAndHoldConfig.DAC_SampleTime;
 8004792:	68fb      	ldr	r3, [r7, #12]
 8004794:	681b      	ldr	r3, [r3, #0]
 8004796:	68ba      	ldr	r2, [r7, #8]
 8004798:	6992      	ldr	r2, [r2, #24]
 800479a:	645a      	str	r2, [r3, #68]	; 0x44
    }
#endif /* STM32L451xx STM32L452xx STM32L462xx */

    /* HoldTime */
    MODIFY_REG(hdac->Instance->SHHR, DAC_SHHR_THOLD1 << (Channel & 0x10UL), (sConfig->DAC_SampleAndHoldConfig.DAC_HoldTime) << (Channel & 0x10UL));
 800479c:	68fb      	ldr	r3, [r7, #12]
 800479e:	681b      	ldr	r3, [r3, #0]
 80047a0:	6c9a      	ldr	r2, [r3, #72]	; 0x48
 80047a2:	687b      	ldr	r3, [r7, #4]
 80047a4:	f003 0310 	and.w	r3, r3, #16
 80047a8:	f240 31ff 	movw	r1, #1023	; 0x3ff
 80047ac:	fa01 f303 	lsl.w	r3, r1, r3
 80047b0:	43db      	mvns	r3, r3
 80047b2:	ea02 0103 	and.w	r1, r2, r3
 80047b6:	68bb      	ldr	r3, [r7, #8]
 80047b8:	69da      	ldr	r2, [r3, #28]
 80047ba:	687b      	ldr	r3, [r7, #4]
 80047bc:	f003 0310 	and.w	r3, r3, #16
 80047c0:	409a      	lsls	r2, r3
 80047c2:	68fb      	ldr	r3, [r7, #12]
 80047c4:	681b      	ldr	r3, [r3, #0]
 80047c6:	430a      	orrs	r2, r1
 80047c8:	649a      	str	r2, [r3, #72]	; 0x48
    /* RefreshTime */
    MODIFY_REG(hdac->Instance->SHRR, DAC_SHRR_TREFRESH1 << (Channel & 0x10UL), (sConfig->DAC_SampleAndHoldConfig.DAC_RefreshTime) << (Channel & 0x10UL));
 80047ca:	68fb      	ldr	r3, [r7, #12]
 80047cc:	681b      	ldr	r3, [r3, #0]
 80047ce:	6cda      	ldr	r2, [r3, #76]	; 0x4c
 80047d0:	687b      	ldr	r3, [r7, #4]
 80047d2:	f003 0310 	and.w	r3, r3, #16
 80047d6:	21ff      	movs	r1, #255	; 0xff
 80047d8:	fa01 f303 	lsl.w	r3, r1, r3
 80047dc:	43db      	mvns	r3, r3
 80047de:	ea02 0103 	and.w	r1, r2, r3
 80047e2:	68bb      	ldr	r3, [r7, #8]
 80047e4:	6a1a      	ldr	r2, [r3, #32]
 80047e6:	687b      	ldr	r3, [r7, #4]
 80047e8:	f003 0310 	and.w	r3, r3, #16
 80047ec:	409a      	lsls	r2, r3
 80047ee:	68fb      	ldr	r3, [r7, #12]
 80047f0:	681b      	ldr	r3, [r3, #0]
 80047f2:	430a      	orrs	r2, r1
 80047f4:	64da      	str	r2, [r3, #76]	; 0x4c
  }

  if (sConfig->DAC_UserTrimming == DAC_TRIMMING_USER)
 80047f6:	68bb      	ldr	r3, [r7, #8]
 80047f8:	691b      	ldr	r3, [r3, #16]
 80047fa:	2b01      	cmp	r3, #1
 80047fc:	d11d      	bne.n	800483a <HAL_DAC_ConfigChannel+0x15e>
  /* USER TRIMMING */
  {
    /* Get the DAC CCR value */
    tmpreg1 = hdac->Instance->CCR;
 80047fe:	68fb      	ldr	r3, [r7, #12]
 8004800:	681b      	ldr	r3, [r3, #0]
 8004802:	6b9b      	ldr	r3, [r3, #56]	; 0x38
 8004804:	61bb      	str	r3, [r7, #24]
    /* Clear trimming value */
    tmpreg1 &= ~(((uint32_t)(DAC_CCR_OTRIM1)) << (Channel & 0x10UL));
 8004806:	687b      	ldr	r3, [r7, #4]
 8004808:	f003 0310 	and.w	r3, r3, #16
 800480c:	221f      	movs	r2, #31
 800480e:	fa02 f303 	lsl.w	r3, r2, r3
 8004812:	43db      	mvns	r3, r3
 8004814:	69ba      	ldr	r2, [r7, #24]
 8004816:	4013      	ands	r3, r2
 8004818:	61bb      	str	r3, [r7, #24]
    /* Configure for the selected trimming offset */
    tmpreg2 = sConfig->DAC_TrimmingValue;
 800481a:	68bb      	ldr	r3, [r7, #8]
 800481c:	695b      	ldr	r3, [r3, #20]
 800481e:	617b      	str	r3, [r7, #20]
    /* Calculate CCR register value depending on DAC_Channel */
    tmpreg1 |= tmpreg2 << (Channel & 0x10UL);
 8004820:	687b      	ldr	r3, [r7, #4]
 8004822:	f003 0310 	and.w	r3, r3, #16
 8004826:	697a      	ldr	r2, [r7, #20]
 8004828:	fa02 f303 	lsl.w	r3, r2, r3
 800482c:	69ba      	ldr	r2, [r7, #24]
 800482e:	4313      	orrs	r3, r2
 8004830:	61bb      	str	r3, [r7, #24]
    /* Write to DAC CCR */
    hdac->Instance->CCR = tmpreg1;
 8004832:	68fb      	ldr	r3, [r7, #12]
 8004834:	681b      	ldr	r3, [r3, #0]
 8004836:	69ba      	ldr	r2, [r7, #24]
 8004838:	639a      	str	r2, [r3, #56]	; 0x38
  }
  /* else factory trimming is used (factory setting are available at reset)*/
  /* SW Nothing has nothing to do */

  /* Get the DAC MCR value */
  tmpreg1 = hdac->Instance->MCR;
 800483a:	68fb      	ldr	r3, [r7, #12]
 800483c:	681b      	ldr	r3, [r3, #0]
 800483e:	6bdb      	ldr	r3, [r3, #60]	; 0x3c
 8004840:	61bb      	str	r3, [r7, #24]
  /* Clear DAC_MCR_MODEx bits */
  tmpreg1 &= ~(((uint32_t)(DAC_MCR_MODE1)) << (Channel & 0x10UL));
 8004842:	687b      	ldr	r3, [r7, #4]
 8004844:	f003 0310 	and.w	r3, r3, #16
 8004848:	2207      	movs	r2, #7
 800484a:	fa02 f303 	lsl.w	r3, r2, r3
 800484e:	43db      	mvns	r3, r3
 8004850:	69ba      	ldr	r2, [r7, #24]
 8004852:	4013      	ands	r3, r2
 8004854:	61bb      	str	r3, [r7, #24]
  /* Configure for the selected DAC channel: mode, buffer output & on chip peripheral connect */
  tmpreg2 = (sConfig->DAC_SampleAndHold | sConfig->DAC_OutputBuffer | sConfig->DAC_ConnectOnChipPeripheral);
 8004856:	68bb      	ldr	r3, [r7, #8]
 8004858:	681a      	ldr	r2, [r3, #0]
 800485a:	68bb      	ldr	r3, [r7, #8]
 800485c:	689b      	ldr	r3, [r3, #8]
 800485e:	431a      	orrs	r2, r3
 8004860:	68bb      	ldr	r3, [r7, #8]
 8004862:	68db      	ldr	r3, [r3, #12]
 8004864:	4313      	orrs	r3, r2
 8004866:	617b      	str	r3, [r7, #20]
  /* Calculate MCR register value depending on DAC_Channel */
  tmpreg1 |= tmpreg2 << (Channel & 0x10UL);
 8004868:	687b      	ldr	r3, [r7, #4]
 800486a:	f003 0310 	and.w	r3, r3, #16
 800486e:	697a      	ldr	r2, [r7, #20]
 8004870:	fa02 f303 	lsl.w	r3, r2, r3
 8004874:	69ba      	ldr	r2, [r7, #24]
 8004876:	4313      	orrs	r3, r2
 8004878:	61bb      	str	r3, [r7, #24]
  /* Write to DAC MCR */
  hdac->Instance->MCR = tmpreg1;
 800487a:	68fb      	ldr	r3, [r7, #12]
 800487c:	681b      	ldr	r3, [r3, #0]
 800487e:	69ba      	ldr	r2, [r7, #24]
 8004880:	63da      	str	r2, [r3, #60]	; 0x3c

  /* DAC in normal operating mode hence clear DAC_CR_CENx bit */
  CLEAR_BIT(hdac->Instance->CR, DAC_CR_CEN1 << (Channel & 0x10UL));
 8004882:	68fb      	ldr	r3, [r7, #12]
 8004884:	681b      	ldr	r3, [r3, #0]
 8004886:	6819      	ldr	r1, [r3, #0]
 8004888:	687b      	ldr	r3, [r7, #4]
 800488a:	f003 0310 	and.w	r3, r3, #16
 800488e:	f44f 4280 	mov.w	r2, #16384	; 0x4000
 8004892:	fa02 f303 	lsl.w	r3, r2, r3
 8004896:	43da      	mvns	r2, r3
 8004898:	68fb      	ldr	r3, [r7, #12]
 800489a:	681b      	ldr	r3, [r3, #0]
 800489c:	400a      	ands	r2, r1
 800489e:	601a      	str	r2, [r3, #0]

  /* Get the DAC CR value */
  tmpreg1 = hdac->Instance->CR;
 80048a0:	68fb      	ldr	r3, [r7, #12]
 80048a2:	681b      	ldr	r3, [r3, #0]
 80048a4:	681b      	ldr	r3, [r3, #0]
 80048a6:	61bb      	str	r3, [r7, #24]
  /* Clear TENx, TSELx, WAVEx and MAMPx bits */
  tmpreg1 &= ~(((uint32_t)(DAC_CR_MAMP1 | DAC_CR_WAVE1 | DAC_CR_TSEL1 | DAC_CR_TEN1)) << (Channel & 0x10UL));
 80048a8:	687b      	ldr	r3, [r7, #4]
 80048aa:	f003 0310 	and.w	r3, r3, #16
 80048ae:	f640 72fc 	movw	r2, #4092	; 0xffc
 80048b2:	fa02 f303 	lsl.w	r3, r2, r3
 80048b6:	43db      	mvns	r3, r3
 80048b8:	69ba      	ldr	r2, [r7, #24]
 80048ba:	4013      	ands	r3, r2
 80048bc:	61bb      	str	r3, [r7, #24]
  /* Configure for the selected DAC channel: trigger */
  /* Set TSELx and TENx bits according to DAC_Trigger value */
  tmpreg2 = sConfig->DAC_Trigger;
 80048be:	68bb      	ldr	r3, [r7, #8]
 80048c0:	685b      	ldr	r3, [r3, #4]
 80048c2:	617b      	str	r3, [r7, #20]
  /* Calculate CR register value depending on DAC_Channel */
  tmpreg1 |= tmpreg2 << (Channel & 0x10UL);
 80048c4:	687b      	ldr	r3, [r7, #4]
 80048c6:	f003 0310 	and.w	r3, r3, #16
 80048ca:	697a      	ldr	r2, [r7, #20]
 80048cc:	fa02 f303 	lsl.w	r3, r2, r3
 80048d0:	69ba      	ldr	r2, [r7, #24]
 80048d2:	4313      	orrs	r3, r2
 80048d4:	61bb      	str	r3, [r7, #24]
  }

#endif /* STM32L4P5xx STM32L4Q5xx STM32L4R5xx STM32L4R7xx STM32L4R9xx STM32L4S5xx STM32L4S7xx STM32L4S9xx */

  /* Write to DAC CR */
  hdac->Instance->CR = tmpreg1;
 80048d6:	68fb      	ldr	r3, [r7, #12]
 80048d8:	681b      	ldr	r3, [r3, #0]
 80048da:	69ba      	ldr	r2, [r7, #24]
 80048dc:	601a      	str	r2, [r3, #0]
  /* Disable wave generation */
  hdac->Instance->CR &= ~(DAC_CR_WAVE1 << (Channel & 0x10UL));
 80048de:	68fb      	ldr	r3, [r7, #12]
 80048e0:	681b      	ldr	r3, [r3, #0]
 80048e2:	6819      	ldr	r1, [r3, #0]
 80048e4:	687b      	ldr	r3, [r7, #4]
 80048e6:	f003 0310 	and.w	r3, r3, #16
 80048ea:	22c0      	movs	r2, #192	; 0xc0
 80048ec:	fa02 f303 	lsl.w	r3, r2, r3
 80048f0:	43da      	mvns	r2, r3
 80048f2:	68fb      	ldr	r3, [r7, #12]
 80048f4:	681b      	ldr	r3, [r3, #0]
 80048f6:	400a      	ands	r2, r1
 80048f8:	601a      	str	r2, [r3, #0]

  /* Change DAC state */
  hdac->State = HAL_DAC_STATE_READY;
 80048fa:	68fb      	ldr	r3, [r7, #12]
 80048fc:	2201      	movs	r2, #1
 80048fe:	711a      	strb	r2, [r3, #4]

  /* Process unlocked */
  __HAL_UNLOCK(hdac);
 8004900:	68fb      	ldr	r3, [r7, #12]
 8004902:	2200      	movs	r2, #0
 8004904:	715a      	strb	r2, [r3, #5]

  /* Return function status */
  return HAL_OK;
 8004906:	2300      	movs	r3, #0
}
 8004908:	4618      	mov	r0, r3
 800490a:	3720      	adds	r7, #32
 800490c:	46bd      	mov	sp, r7
 800490e:	bd80      	pop	{r7, pc}

08004910 <DAC_DMAConvCpltCh1>:
  * @param  hdma pointer to a DMA_HandleTypeDef structure that contains
  *                the configuration information for the specified DMA module.
  * @retval None
  */
void DAC_DMAConvCpltCh1(DMA_HandleTypeDef *hdma)
{
 8004910:	b580      	push	{r7, lr}
 8004912:	b084      	sub	sp, #16
 8004914:	af00      	add	r7, sp, #0
 8004916:	6078      	str	r0, [r7, #4]
  DAC_HandleTypeDef *hdac = (DAC_HandleTypeDef *)((DMA_HandleTypeDef *)hdma)->Parent;
 8004918:	687b      	ldr	r3, [r7, #4]
 800491a:	6a9b      	ldr	r3, [r3, #40]	; 0x28
 800491c:	60fb      	str	r3, [r7, #12]

#if (USE_HAL_DAC_REGISTER_CALLBACKS == 1)
  hdac->ConvCpltCallbackCh1(hdac);
#else
  HAL_DAC_ConvCpltCallbackCh1(hdac);
 800491e:	68f8      	ldr	r0, [r7, #12]
 8004920:	f7ff febe 	bl	80046a0 <HAL_DAC_ConvCpltCallbackCh1>
#endif /* USE_HAL_DAC_REGISTER_CALLBACKS */

  hdac->State = HAL_DAC_STATE_READY;
 8004924:	68fb      	ldr	r3, [r7, #12]
 8004926:	2201      	movs	r2, #1
 8004928:	711a      	strb	r2, [r3, #4]
}
 800492a:	bf00      	nop
 800492c:	3710      	adds	r7, #16
 800492e:	46bd      	mov	sp, r7
 8004930:	bd80      	pop	{r7, pc}

08004932 <DAC_DMAHalfConvCpltCh1>:
  * @param  hdma pointer to a DMA_HandleTypeDef structure that contains
  *                the configuration information for the specified DMA module.
  * @retval None
  */
void DAC_DMAHalfConvCpltCh1(DMA_HandleTypeDef *hdma)
{
 8004932:	b580      	push	{r7, lr}
 8004934:	b084      	sub	sp, #16
 8004936:	af00      	add	r7, sp, #0
 8004938:	6078      	str	r0, [r7, #4]
  DAC_HandleTypeDef *hdac = (DAC_HandleTypeDef *)((DMA_HandleTypeDef *)hdma)->Parent;
 800493a:	687b      	ldr	r3, [r7, #4]
 800493c:	6a9b      	ldr	r3, [r3, #40]	; 0x28
 800493e:	60fb      	str	r3, [r7, #12]
  /* Conversion complete callback */
#if (USE_HAL_DAC_REGISTER_CALLBACKS == 1)
  hdac->ConvHalfCpltCallbackCh1(hdac);
#else
  HAL_DAC_ConvHalfCpltCallbackCh1(hdac);
 8004940:	68f8      	ldr	r0, [r7, #12]
 8004942:	f7ff feb7 	bl	80046b4 <HAL_DAC_ConvHalfCpltCallbackCh1>
#endif  /* USE_HAL_DAC_REGISTER_CALLBACKS */
}
 8004946:	bf00      	nop
 8004948:	3710      	adds	r7, #16
 800494a:	46bd      	mov	sp, r7
 800494c:	bd80      	pop	{r7, pc}

0800494e <DAC_DMAErrorCh1>:
  * @param  hdma pointer to a DMA_HandleTypeDef structure that contains
  *                the configuration information for the specified DMA module.
  * @retval None
  */
void DAC_DMAErrorCh1(DMA_HandleTypeDef *hdma)
{
 800494e:	b580      	push	{r7, lr}
 8004950:	b084      	sub	sp, #16
 8004952:	af00      	add	r7, sp, #0
 8004954:	6078      	str	r0, [r7, #4]
  DAC_HandleTypeDef *hdac = (DAC_HandleTypeDef *)((DMA_HandleTypeDef *)hdma)->Parent;
 8004956:	687b      	ldr	r3, [r7, #4]
 8004958:	6a9b      	ldr	r3, [r3, #40]	; 0x28
 800495a:	60fb      	str	r3, [r7, #12]

  /* Set DAC error code to DMA error */
  hdac->ErrorCode |= HAL_DAC_ERROR_DMA;
 800495c:	68fb      	ldr	r3, [r7, #12]
 800495e:	691b      	ldr	r3, [r3, #16]
 8004960:	f043 0204 	orr.w	r2, r3, #4
 8004964:	68fb      	ldr	r3, [r7, #12]
 8004966:	611a      	str	r2, [r3, #16]

#if (USE_HAL_DAC_REGISTER_CALLBACKS == 1)
  hdac->ErrorCallbackCh1(hdac);
#else
  HAL_DAC_ErrorCallbackCh1(hdac);
 8004968:	68f8      	ldr	r0, [r7, #12]
 800496a:	f7ff fead 	bl	80046c8 <HAL_DAC_ErrorCallbackCh1>
#endif /* USE_HAL_DAC_REGISTER_CALLBACKS */

  hdac->State = HAL_DAC_STATE_READY;
 800496e:	68fb      	ldr	r3, [r7, #12]
 8004970:	2201      	movs	r2, #1
 8004972:	711a      	strb	r2, [r3, #4]
}
 8004974:	bf00      	nop
 8004976:	3710      	adds	r7, #16
 8004978:	46bd      	mov	sp, r7
 800497a:	bd80      	pop	{r7, pc}

0800497c <HAL_DACEx_ConvCpltCallbackCh2>:
  * @param  hdac pointer to a DAC_HandleTypeDef structure that contains
  *         the configuration information for the specified DAC.
  * @retval None
  */
__weak void HAL_DACEx_ConvCpltCallbackCh2(DAC_HandleTypeDef *hdac)
{
 800497c:	b480      	push	{r7}
 800497e:	b083      	sub	sp, #12
 8004980:	af00      	add	r7, sp, #0
 8004982:	6078      	str	r0, [r7, #4]
  UNUSED(hdac);

  /* NOTE : This function should not be modified, when the callback is needed,
            the HAL_DACEx_ConvCpltCallbackCh2 could be implemented in the user file
   */
}
 8004984:	bf00      	nop
 8004986:	370c      	adds	r7, #12
 8004988:	46bd      	mov	sp, r7
 800498a:	f85d 7b04 	ldr.w	r7, [sp], #4
 800498e:	4770      	bx	lr

08004990 <HAL_DACEx_ConvHalfCpltCallbackCh2>:
  * @param  hdac pointer to a DAC_HandleTypeDef structure that contains
  *         the configuration information for the specified DAC.
  * @retval None
  */
__weak void HAL_DACEx_ConvHalfCpltCallbackCh2(DAC_HandleTypeDef *hdac)
{
 8004990:	b480      	push	{r7}
 8004992:	b083      	sub	sp, #12
 8004994:	af00      	add	r7, sp, #0
 8004996:	6078      	str	r0, [r7, #4]
  UNUSED(hdac);

  /* NOTE : This function should not be modified, when the callback is needed,
            the HAL_DACEx_ConvHalfCpltCallbackCh2 could be implemented in the user file
   */
}
 8004998:	bf00      	nop
 800499a:	370c      	adds	r7, #12
 800499c:	46bd      	mov	sp, r7
 800499e:	f85d 7b04 	ldr.w	r7, [sp], #4
 80049a2:	4770      	bx	lr

080049a4 <HAL_DACEx_ErrorCallbackCh2>:
  * @param  hdac pointer to a DAC_HandleTypeDef structure that contains
  *         the configuration information for the specified DAC.
  * @retval None
  */
__weak void HAL_DACEx_ErrorCallbackCh2(DAC_HandleTypeDef *hdac)
{
 80049a4:	b480      	push	{r7}
 80049a6:	b083      	sub	sp, #12
 80049a8:	af00      	add	r7, sp, #0
 80049aa:	6078      	str	r0, [r7, #4]
  UNUSED(hdac);

  /* NOTE : This function should not be modified, when the callback is needed,
            the HAL_DACEx_ErrorCallbackCh2 could be implemented in the user file
   */
}
 80049ac:	bf00      	nop
 80049ae:	370c      	adds	r7, #12
 80049b0:	46bd      	mov	sp, r7
 80049b2:	f85d 7b04 	ldr.w	r7, [sp], #4
 80049b6:	4770      	bx	lr

080049b8 <DAC_DMAConvCpltCh2>:
  * @param  hdma pointer to a DMA_HandleTypeDef structure that contains
  *                the configuration information for the specified DMA module.
  * @retval None
  */
void DAC_DMAConvCpltCh2(DMA_HandleTypeDef *hdma)
{
 80049b8:	b580      	push	{r7, lr}
 80049ba:	b084      	sub	sp, #16
 80049bc:	af00      	add	r7, sp, #0
 80049be:	6078      	str	r0, [r7, #4]
  DAC_HandleTypeDef *hdac = (DAC_HandleTypeDef *)((DMA_HandleTypeDef *)hdma)->Parent;
 80049c0:	687b      	ldr	r3, [r7, #4]
 80049c2:	6a9b      	ldr	r3, [r3, #40]	; 0x28
 80049c4:	60fb      	str	r3, [r7, #12]

#if (USE_HAL_DAC_REGISTER_CALLBACKS == 1)
  hdac->ConvCpltCallbackCh2(hdac);
#else
  HAL_DACEx_ConvCpltCallbackCh2(hdac);
 80049c6:	68f8      	ldr	r0, [r7, #12]
 80049c8:	f7ff ffd8 	bl	800497c <HAL_DACEx_ConvCpltCallbackCh2>
#endif /* USE_HAL_DAC_REGISTER_CALLBACKS */

  hdac->State = HAL_DAC_STATE_READY;
 80049cc:	68fb      	ldr	r3, [r7, #12]
 80049ce:	2201      	movs	r2, #1
 80049d0:	711a      	strb	r2, [r3, #4]
}
 80049d2:	bf00      	nop
 80049d4:	3710      	adds	r7, #16
 80049d6:	46bd      	mov	sp, r7
 80049d8:	bd80      	pop	{r7, pc}

080049da <DAC_DMAHalfConvCpltCh2>:
  * @param  hdma pointer to a DMA_HandleTypeDef structure that contains
  *                the configuration information for the specified DMA module.
  * @retval None
  */
void DAC_DMAHalfConvCpltCh2(DMA_HandleTypeDef *hdma)
{
 80049da:	b580      	push	{r7, lr}
 80049dc:	b084      	sub	sp, #16
 80049de:	af00      	add	r7, sp, #0
 80049e0:	6078      	str	r0, [r7, #4]
  DAC_HandleTypeDef *hdac = (DAC_HandleTypeDef *)((DMA_HandleTypeDef *)hdma)->Parent;
 80049e2:	687b      	ldr	r3, [r7, #4]
 80049e4:	6a9b      	ldr	r3, [r3, #40]	; 0x28
 80049e6:	60fb      	str	r3, [r7, #12]
  /* Conversion complete callback */
#if (USE_HAL_DAC_REGISTER_CALLBACKS == 1)
  hdac->ConvHalfCpltCallbackCh2(hdac);
#else
  HAL_DACEx_ConvHalfCpltCallbackCh2(hdac);
 80049e8:	68f8      	ldr	r0, [r7, #12]
 80049ea:	f7ff ffd1 	bl	8004990 <HAL_DACEx_ConvHalfCpltCallbackCh2>
#endif /* USE_HAL_DAC_REGISTER_CALLBACKS */
}
 80049ee:	bf00      	nop
 80049f0:	3710      	adds	r7, #16
 80049f2:	46bd      	mov	sp, r7
 80049f4:	bd80      	pop	{r7, pc}

080049f6 <DAC_DMAErrorCh2>:
  * @param  hdma pointer to a DMA_HandleTypeDef structure that contains
  *                the configuration information for the specified DMA module.
  * @retval None
  */
void DAC_DMAErrorCh2(DMA_HandleTypeDef *hdma)
{
 80049f6:	b580      	push	{r7, lr}
 80049f8:	b084      	sub	sp, #16
 80049fa:	af00      	add	r7, sp, #0
 80049fc:	6078      	str	r0, [r7, #4]
  DAC_HandleTypeDef *hdac = (DAC_HandleTypeDef *)((DMA_HandleTypeDef *)hdma)->Parent;
 80049fe:	687b      	ldr	r3, [r7, #4]
 8004a00:	6a9b      	ldr	r3, [r3, #40]	; 0x28
 8004a02:	60fb      	str	r3, [r7, #12]

  /* Set DAC error code to DMA error */
  hdac->ErrorCode |= HAL_DAC_ERROR_DMA;
 8004a04:	68fb      	ldr	r3, [r7, #12]
 8004a06:	691b      	ldr	r3, [r3, #16]
 8004a08:	f043 0204 	orr.w	r2, r3, #4
 8004a0c:	68fb      	ldr	r3, [r7, #12]
 8004a0e:	611a      	str	r2, [r3, #16]

#if (USE_HAL_DAC_REGISTER_CALLBACKS == 1)
  hdac->ErrorCallbackCh2(hdac);
#else
  HAL_DACEx_ErrorCallbackCh2(hdac);
 8004a10:	68f8      	ldr	r0, [r7, #12]
 8004a12:	f7ff ffc7 	bl	80049a4 <HAL_DACEx_ErrorCallbackCh2>
#endif /* USE_HAL_DAC_REGISTER_CALLBACKS */

  hdac->State = HAL_DAC_STATE_READY;
 8004a16:	68fb      	ldr	r3, [r7, #12]
 8004a18:	2201      	movs	r2, #1
 8004a1a:	711a      	strb	r2, [r3, #4]
}
 8004a1c:	bf00      	nop
 8004a1e:	3710      	adds	r7, #16
 8004a20:	46bd      	mov	sp, r7
 8004a22:	bd80      	pop	{r7, pc}

08004a24 <HAL_DMA_Init>:
  * @param  hdma pointer to a DMA_HandleTypeDef structure that contains
  *              the configuration information for the specified DMA Channel.
  * @retval HAL status
  */
HAL_StatusTypeDef HAL_DMA_Init(DMA_HandleTypeDef *hdma)
{
 8004a24:	b480      	push	{r7}
 8004a26:	b085      	sub	sp, #20
 8004a28:	af00      	add	r7, sp, #0
 8004a2a:	6078      	str	r0, [r7, #4]
  uint32_t tmp;

  /* Check the DMA handle allocation */
  if(hdma == NULL)
 8004a2c:	687b      	ldr	r3, [r7, #4]
 8004a2e:	2b00      	cmp	r3, #0
 8004a30:	d101      	bne.n	8004a36 <HAL_DMA_Init+0x12>
  {
    return HAL_ERROR;
 8004a32:	2301      	movs	r3, #1
 8004a34:	e098      	b.n	8004b68 <HAL_DMA_Init+0x144>
  assert_param(IS_DMA_PRIORITY(hdma->Init.Priority));

  assert_param(IS_DMA_ALL_REQUEST(hdma->Init.Request));

  /* Compute the channel index */
  if ((uint32_t)(hdma->Instance) < (uint32_t)(DMA2_Channel1))
 8004a36:	687b      	ldr	r3, [r7, #4]
 8004a38:	681b      	ldr	r3, [r3, #0]
 8004a3a:	461a      	mov	r2, r3
 8004a3c:	4b4d      	ldr	r3, [pc, #308]	; (8004b74 <HAL_DMA_Init+0x150>)
 8004a3e:	429a      	cmp	r2, r3
 8004a40:	d80f      	bhi.n	8004a62 <HAL_DMA_Init+0x3e>
  {
    /* DMA1 */
    hdma->ChannelIndex = (((uint32_t)hdma->Instance - (uint32_t)DMA1_Channel1) / ((uint32_t)DMA1_Channel2 - (uint32_t)DMA1_Channel1)) << 2U;
 8004a42:	687b      	ldr	r3, [r7, #4]
 8004a44:	681b      	ldr	r3, [r3, #0]
 8004a46:	461a      	mov	r2, r3
 8004a48:	4b4b      	ldr	r3, [pc, #300]	; (8004b78 <HAL_DMA_Init+0x154>)
 8004a4a:	4413      	add	r3, r2
 8004a4c:	4a4b      	ldr	r2, [pc, #300]	; (8004b7c <HAL_DMA_Init+0x158>)
 8004a4e:	fba2 2303 	umull	r2, r3, r2, r3
 8004a52:	091b      	lsrs	r3, r3, #4
 8004a54:	009a      	lsls	r2, r3, #2
 8004a56:	687b      	ldr	r3, [r7, #4]
 8004a58:	645a      	str	r2, [r3, #68]	; 0x44
    hdma->DmaBaseAddress = DMA1;
 8004a5a:	687b      	ldr	r3, [r7, #4]
 8004a5c:	4a48      	ldr	r2, [pc, #288]	; (8004b80 <HAL_DMA_Init+0x15c>)
 8004a5e:	641a      	str	r2, [r3, #64]	; 0x40
 8004a60:	e00e      	b.n	8004a80 <HAL_DMA_Init+0x5c>
  }
  else
  {
    /* DMA2 */
    hdma->ChannelIndex = (((uint32_t)hdma->Instance - (uint32_t)DMA2_Channel1) / ((uint32_t)DMA2_Channel2 - (uint32_t)DMA2_Channel1)) << 2U;
 8004a62:	687b      	ldr	r3, [r7, #4]
 8004a64:	681b      	ldr	r3, [r3, #0]
 8004a66:	461a      	mov	r2, r3
 8004a68:	4b46      	ldr	r3, [pc, #280]	; (8004b84 <HAL_DMA_Init+0x160>)
 8004a6a:	4413      	add	r3, r2
 8004a6c:	4a43      	ldr	r2, [pc, #268]	; (8004b7c <HAL_DMA_Init+0x158>)
 8004a6e:	fba2 2303 	umull	r2, r3, r2, r3
 8004a72:	091b      	lsrs	r3, r3, #4
 8004a74:	009a      	lsls	r2, r3, #2
 8004a76:	687b      	ldr	r3, [r7, #4]
 8004a78:	645a      	str	r2, [r3, #68]	; 0x44
    hdma->DmaBaseAddress = DMA2;
 8004a7a:	687b      	ldr	r3, [r7, #4]
 8004a7c:	4a42      	ldr	r2, [pc, #264]	; (8004b88 <HAL_DMA_Init+0x164>)
 8004a7e:	641a      	str	r2, [r3, #64]	; 0x40
  }

  /* Change DMA peripheral state */
  hdma->State = HAL_DMA_STATE_BUSY;
 8004a80:	687b      	ldr	r3, [r7, #4]
 8004a82:	2202      	movs	r2, #2
 8004a84:	f883 2025 	strb.w	r2, [r3, #37]	; 0x25

  /* Get the CR register value */
  tmp = hdma->Instance->CCR;
 8004a88:	687b      	ldr	r3, [r7, #4]
 8004a8a:	681b      	ldr	r3, [r3, #0]
 8004a8c:	681b      	ldr	r3, [r3, #0]
 8004a8e:	60fb      	str	r3, [r7, #12]

  /* Clear PL, MSIZE, PSIZE, MINC, PINC, CIRC, DIR and MEM2MEM bits */
  tmp &= ((uint32_t)~(DMA_CCR_PL    | DMA_CCR_MSIZE  | DMA_CCR_PSIZE  |
 8004a90:	68fb      	ldr	r3, [r7, #12]
 8004a92:	f423 43ff 	bic.w	r3, r3, #32640	; 0x7f80
 8004a96:	f023 0370 	bic.w	r3, r3, #112	; 0x70
 8004a9a:	60fb      	str	r3, [r7, #12]
                      DMA_CCR_MINC  | DMA_CCR_PINC   | DMA_CCR_CIRC   |
                      DMA_CCR_DIR   | DMA_CCR_MEM2MEM));

  /* Prepare the DMA Channel configuration */
  tmp |=  hdma->Init.Direction        |
 8004a9c:	687b      	ldr	r3, [r7, #4]
 8004a9e:	689a      	ldr	r2, [r3, #8]
          hdma->Init.PeriphInc           | hdma->Init.MemInc           |
 8004aa0:	687b      	ldr	r3, [r7, #4]
 8004aa2:	68db      	ldr	r3, [r3, #12]
  tmp |=  hdma->Init.Direction        |
 8004aa4:	431a      	orrs	r2, r3
          hdma->Init.PeriphInc           | hdma->Init.MemInc           |
 8004aa6:	687b      	ldr	r3, [r7, #4]
 8004aa8:	691b      	ldr	r3, [r3, #16]
 8004aaa:	431a      	orrs	r2, r3
          hdma->Init.PeriphDataAlignment | hdma->Init.MemDataAlignment |
 8004aac:	687b      	ldr	r3, [r7, #4]
 8004aae:	695b      	ldr	r3, [r3, #20]
          hdma->Init.PeriphInc           | hdma->Init.MemInc           |
 8004ab0:	431a      	orrs	r2, r3
          hdma->Init.PeriphDataAlignment | hdma->Init.MemDataAlignment |
 8004ab2:	687b      	ldr	r3, [r7, #4]
 8004ab4:	699b      	ldr	r3, [r3, #24]
 8004ab6:	431a      	orrs	r2, r3
          hdma->Init.Mode                | hdma->Init.Priority;
 8004ab8:	687b      	ldr	r3, [r7, #4]
 8004aba:	69db      	ldr	r3, [r3, #28]
          hdma->Init.PeriphDataAlignment | hdma->Init.MemDataAlignment |
 8004abc:	431a      	orrs	r2, r3
          hdma->Init.Mode                | hdma->Init.Priority;
 8004abe:	687b      	ldr	r3, [r7, #4]
 8004ac0:	6a1b      	ldr	r3, [r3, #32]
 8004ac2:	4313      	orrs	r3, r2
  tmp |=  hdma->Init.Direction        |
 8004ac4:	68fa      	ldr	r2, [r7, #12]
 8004ac6:	4313      	orrs	r3, r2
 8004ac8:	60fb      	str	r3, [r7, #12]

  /* Write to DMA Channel CR register */
  hdma->Instance->CCR = tmp;
 8004aca:	687b      	ldr	r3, [r7, #4]
 8004acc:	681b      	ldr	r3, [r3, #0]
 8004ace:	68fa      	ldr	r2, [r7, #12]
 8004ad0:	601a      	str	r2, [r3, #0]
#endif /* DMAMUX1 */

#if !defined (DMAMUX1)

  /* Set request selection */
  if(hdma->Init.Direction != DMA_MEMORY_TO_MEMORY)
 8004ad2:	687b      	ldr	r3, [r7, #4]
 8004ad4:	689b      	ldr	r3, [r3, #8]
 8004ad6:	f5b3 4f80 	cmp.w	r3, #16384	; 0x4000
 8004ada:	d039      	beq.n	8004b50 <HAL_DMA_Init+0x12c>
  {
    /* Write to DMA channel selection register */
    if (DMA1 == hdma->DmaBaseAddress)
 8004adc:	687b      	ldr	r3, [r7, #4]
 8004ade:	6c1b      	ldr	r3, [r3, #64]	; 0x40
 8004ae0:	4a27      	ldr	r2, [pc, #156]	; (8004b80 <HAL_DMA_Init+0x15c>)
 8004ae2:	4293      	cmp	r3, r2
 8004ae4:	d11a      	bne.n	8004b1c <HAL_DMA_Init+0xf8>
    {
      /* Reset request selection for DMA1 Channelx */
      DMA1_CSELR->CSELR &= ~(DMA_CSELR_C1S << (hdma->ChannelIndex & 0x1cU));
 8004ae6:	4b29      	ldr	r3, [pc, #164]	; (8004b8c <HAL_DMA_Init+0x168>)
 8004ae8:	681a      	ldr	r2, [r3, #0]
 8004aea:	687b      	ldr	r3, [r7, #4]
 8004aec:	6c5b      	ldr	r3, [r3, #68]	; 0x44
 8004aee:	f003 031c 	and.w	r3, r3, #28
 8004af2:	210f      	movs	r1, #15
 8004af4:	fa01 f303 	lsl.w	r3, r1, r3
 8004af8:	43db      	mvns	r3, r3
 8004afa:	4924      	ldr	r1, [pc, #144]	; (8004b8c <HAL_DMA_Init+0x168>)
 8004afc:	4013      	ands	r3, r2
 8004afe:	600b      	str	r3, [r1, #0]

      /* Configure request selection for DMA1 Channelx */
      DMA1_CSELR->CSELR |= (uint32_t) (hdma->Init.Request << (hdma->ChannelIndex & 0x1cU));
 8004b00:	4b22      	ldr	r3, [pc, #136]	; (8004b8c <HAL_DMA_Init+0x168>)
 8004b02:	681a      	ldr	r2, [r3, #0]
 8004b04:	687b      	ldr	r3, [r7, #4]
 8004b06:	6859      	ldr	r1, [r3, #4]
 8004b08:	687b      	ldr	r3, [r7, #4]
 8004b0a:	6c5b      	ldr	r3, [r3, #68]	; 0x44
 8004b0c:	f003 031c 	and.w	r3, r3, #28
 8004b10:	fa01 f303 	lsl.w	r3, r1, r3
 8004b14:	491d      	ldr	r1, [pc, #116]	; (8004b8c <HAL_DMA_Init+0x168>)
 8004b16:	4313      	orrs	r3, r2
 8004b18:	600b      	str	r3, [r1, #0]
 8004b1a:	e019      	b.n	8004b50 <HAL_DMA_Init+0x12c>
    }
    else /* DMA2 */
    {
      /* Reset request selection for DMA2 Channelx */
      DMA2_CSELR->CSELR &= ~(DMA_CSELR_C1S << (hdma->ChannelIndex & 0x1cU));
 8004b1c:	4b1c      	ldr	r3, [pc, #112]	; (8004b90 <HAL_DMA_Init+0x16c>)
 8004b1e:	681a      	ldr	r2, [r3, #0]
 8004b20:	687b      	ldr	r3, [r7, #4]
 8004b22:	6c5b      	ldr	r3, [r3, #68]	; 0x44
 8004b24:	f003 031c 	and.w	r3, r3, #28
 8004b28:	210f      	movs	r1, #15
 8004b2a:	fa01 f303 	lsl.w	r3, r1, r3
 8004b2e:	43db      	mvns	r3, r3
 8004b30:	4917      	ldr	r1, [pc, #92]	; (8004b90 <HAL_DMA_Init+0x16c>)
 8004b32:	4013      	ands	r3, r2
 8004b34:	600b      	str	r3, [r1, #0]

      /* Configure request selection for DMA2 Channelx */
      DMA2_CSELR->CSELR |= (uint32_t) (hdma->Init.Request << (hdma->ChannelIndex & 0x1cU));
 8004b36:	4b16      	ldr	r3, [pc, #88]	; (8004b90 <HAL_DMA_Init+0x16c>)
 8004b38:	681a      	ldr	r2, [r3, #0]
 8004b3a:	687b      	ldr	r3, [r7, #4]
 8004b3c:	6859      	ldr	r1, [r3, #4]
 8004b3e:	687b      	ldr	r3, [r7, #4]
 8004b40:	6c5b      	ldr	r3, [r3, #68]	; 0x44
 8004b42:	f003 031c 	and.w	r3, r3, #28
 8004b46:	fa01 f303 	lsl.w	r3, r1, r3
 8004b4a:	4911      	ldr	r1, [pc, #68]	; (8004b90 <HAL_DMA_Init+0x16c>)
 8004b4c:	4313      	orrs	r3, r2
 8004b4e:	600b      	str	r3, [r1, #0]
#endif /* STM32L431xx || STM32L432xx || STM32L433xx || STM32L442xx || STM32L443xx */
       /* STM32L471xx || STM32L475xx || STM32L476xx || STM32L442xx || STM32L486xx */
       /* STM32L496xx || STM32L4A6xx                                              */

  /* Initialise the error code */
  hdma->ErrorCode = HAL_DMA_ERROR_NONE;
 8004b50:	687b      	ldr	r3, [r7, #4]
 8004b52:	2200      	movs	r2, #0
 8004b54:	63da      	str	r2, [r3, #60]	; 0x3c

  /* Initialize the DMA state*/
  hdma->State = HAL_DMA_STATE_READY;
 8004b56:	687b      	ldr	r3, [r7, #4]
 8004b58:	2201      	movs	r2, #1
 8004b5a:	f883 2025 	strb.w	r2, [r3, #37]	; 0x25

  /* Allocate lock resource and initialize it */
  hdma->Lock = HAL_UNLOCKED;
 8004b5e:	687b      	ldr	r3, [r7, #4]
 8004b60:	2200      	movs	r2, #0
 8004b62:	f883 2024 	strb.w	r2, [r3, #36]	; 0x24

  return HAL_OK;
 8004b66:	2300      	movs	r3, #0
}
 8004b68:	4618      	mov	r0, r3
 8004b6a:	3714      	adds	r7, #20
 8004b6c:	46bd      	mov	sp, r7
 8004b6e:	f85d 7b04 	ldr.w	r7, [sp], #4
 8004b72:	4770      	bx	lr
 8004b74:	40020407 	.word	0x40020407
 8004b78:	bffdfff8 	.word	0xbffdfff8
 8004b7c:	cccccccd 	.word	0xcccccccd
 8004b80:	40020000 	.word	0x40020000
 8004b84:	bffdfbf8 	.word	0xbffdfbf8
 8004b88:	40020400 	.word	0x40020400
 8004b8c:	400200a8 	.word	0x400200a8
 8004b90:	400204a8 	.word	0x400204a8

08004b94 <HAL_DMA_Start_IT>:
  * @param  DstAddress The destination memory Buffer address
  * @param  DataLength The length of data to be transferred from source to destination
  * @retval HAL status
  */
HAL_StatusTypeDef HAL_DMA_Start_IT(DMA_HandleTypeDef *hdma, uint32_t SrcAddress, uint32_t DstAddress, uint32_t DataLength)
{
 8004b94:	b580      	push	{r7, lr}
 8004b96:	b086      	sub	sp, #24
 8004b98:	af00      	add	r7, sp, #0
 8004b9a:	60f8      	str	r0, [r7, #12]
 8004b9c:	60b9      	str	r1, [r7, #8]
 8004b9e:	607a      	str	r2, [r7, #4]
 8004ba0:	603b      	str	r3, [r7, #0]
  HAL_StatusTypeDef status = HAL_OK;
 8004ba2:	2300      	movs	r3, #0
 8004ba4:	75fb      	strb	r3, [r7, #23]

  /* Check the parameters */
  assert_param(IS_DMA_BUFFER_SIZE(DataLength));

  /* Process locked */
  __HAL_LOCK(hdma);
 8004ba6:	68fb      	ldr	r3, [r7, #12]
 8004ba8:	f893 3024 	ldrb.w	r3, [r3, #36]	; 0x24
 8004bac:	2b01      	cmp	r3, #1
 8004bae:	d101      	bne.n	8004bb4 <HAL_DMA_Start_IT+0x20>
 8004bb0:	2302      	movs	r3, #2
 8004bb2:	e04b      	b.n	8004c4c <HAL_DMA_Start_IT+0xb8>
 8004bb4:	68fb      	ldr	r3, [r7, #12]
 8004bb6:	2201      	movs	r2, #1
 8004bb8:	f883 2024 	strb.w	r2, [r3, #36]	; 0x24

  if(HAL_DMA_STATE_READY == hdma->State)
 8004bbc:	68fb      	ldr	r3, [r7, #12]
 8004bbe:	f893 3025 	ldrb.w	r3, [r3, #37]	; 0x25
 8004bc2:	b2db      	uxtb	r3, r3
 8004bc4:	2b01      	cmp	r3, #1
 8004bc6:	d13a      	bne.n	8004c3e <HAL_DMA_Start_IT+0xaa>
  {
    /* Change DMA peripheral state */
    hdma->State = HAL_DMA_STATE_BUSY;
 8004bc8:	68fb      	ldr	r3, [r7, #12]
 8004bca:	2202      	movs	r2, #2
 8004bcc:	f883 2025 	strb.w	r2, [r3, #37]	; 0x25
    hdma->ErrorCode = HAL_DMA_ERROR_NONE;
 8004bd0:	68fb      	ldr	r3, [r7, #12]
 8004bd2:	2200      	movs	r2, #0
 8004bd4:	63da      	str	r2, [r3, #60]	; 0x3c

    /* Disable the peripheral */
    __HAL_DMA_DISABLE(hdma);
 8004bd6:	68fb      	ldr	r3, [r7, #12]
 8004bd8:	681b      	ldr	r3, [r3, #0]
 8004bda:	681a      	ldr	r2, [r3, #0]
 8004bdc:	68fb      	ldr	r3, [r7, #12]
 8004bde:	681b      	ldr	r3, [r3, #0]
 8004be0:	f022 0201 	bic.w	r2, r2, #1
 8004be4:	601a      	str	r2, [r3, #0]

    /* Configure the source, destination address and the data length & clear flags*/
    DMA_SetConfig(hdma, SrcAddress, DstAddress, DataLength);
 8004be6:	683b      	ldr	r3, [r7, #0]
 8004be8:	687a      	ldr	r2, [r7, #4]
 8004bea:	68b9      	ldr	r1, [r7, #8]
 8004bec:	68f8      	ldr	r0, [r7, #12]
 8004bee:	f000 f8e0 	bl	8004db2 <DMA_SetConfig>

    /* Enable the transfer complete interrupt */
    /* Enable the transfer Error interrupt */
    if(NULL != hdma->XferHalfCpltCallback )
 8004bf2:	68fb      	ldr	r3, [r7, #12]
 8004bf4:	6b1b      	ldr	r3, [r3, #48]	; 0x30
 8004bf6:	2b00      	cmp	r3, #0
 8004bf8:	d008      	beq.n	8004c0c <HAL_DMA_Start_IT+0x78>
    {
      /* Enable the Half transfer complete interrupt as well */
      __HAL_DMA_ENABLE_IT(hdma, (DMA_IT_TC | DMA_IT_HT | DMA_IT_TE));
 8004bfa:	68fb      	ldr	r3, [r7, #12]
 8004bfc:	681b      	ldr	r3, [r3, #0]
 8004bfe:	681a      	ldr	r2, [r3, #0]
 8004c00:	68fb      	ldr	r3, [r7, #12]
 8004c02:	681b      	ldr	r3, [r3, #0]
 8004c04:	f042 020e 	orr.w	r2, r2, #14
 8004c08:	601a      	str	r2, [r3, #0]
 8004c0a:	e00f      	b.n	8004c2c <HAL_DMA_Start_IT+0x98>
    }
    else
    {
      __HAL_DMA_DISABLE_IT(hdma, DMA_IT_HT);
 8004c0c:	68fb      	ldr	r3, [r7, #12]
 8004c0e:	681b      	ldr	r3, [r3, #0]
 8004c10:	681a      	ldr	r2, [r3, #0]
 8004c12:	68fb      	ldr	r3, [r7, #12]
 8004c14:	681b      	ldr	r3, [r3, #0]
 8004c16:	f022 0204 	bic.w	r2, r2, #4
 8004c1a:	601a      	str	r2, [r3, #0]
      __HAL_DMA_ENABLE_IT(hdma, (DMA_IT_TC | DMA_IT_TE));
 8004c1c:	68fb      	ldr	r3, [r7, #12]
 8004c1e:	681b      	ldr	r3, [r3, #0]
 8004c20:	681a      	ldr	r2, [r3, #0]
 8004c22:	68fb      	ldr	r3, [r7, #12]
 8004c24:	681b      	ldr	r3, [r3, #0]
 8004c26:	f042 020a 	orr.w	r2, r2, #10
 8004c2a:	601a      	str	r2, [r3, #0]
    }

#endif /* DMAMUX1 */

    /* Enable the Peripheral */
    __HAL_DMA_ENABLE(hdma);
 8004c2c:	68fb      	ldr	r3, [r7, #12]
 8004c2e:	681b      	ldr	r3, [r3, #0]
 8004c30:	681a      	ldr	r2, [r3, #0]
 8004c32:	68fb      	ldr	r3, [r7, #12]
 8004c34:	681b      	ldr	r3, [r3, #0]
 8004c36:	f042 0201 	orr.w	r2, r2, #1
 8004c3a:	601a      	str	r2, [r3, #0]
 8004c3c:	e005      	b.n	8004c4a <HAL_DMA_Start_IT+0xb6>
  }
  else
  {
    /* Process Unlocked */
    __HAL_UNLOCK(hdma);
 8004c3e:	68fb      	ldr	r3, [r7, #12]
 8004c40:	2200      	movs	r2, #0
 8004c42:	f883 2024 	strb.w	r2, [r3, #36]	; 0x24

    /* Remain BUSY */
    status = HAL_BUSY;
 8004c46:	2302      	movs	r3, #2
 8004c48:	75fb      	strb	r3, [r7, #23]
  }
  return status;
 8004c4a:	7dfb      	ldrb	r3, [r7, #23]
}
 8004c4c:	4618      	mov	r0, r3
 8004c4e:	3718      	adds	r7, #24
 8004c50:	46bd      	mov	sp, r7
 8004c52:	bd80      	pop	{r7, pc}

08004c54 <HAL_DMA_IRQHandler>:
  * @param  hdma pointer to a DMA_HandleTypeDef structure that contains
  *               the configuration information for the specified DMA Channel.
  * @retval None
  */
void HAL_DMA_IRQHandler(DMA_HandleTypeDef *hdma)
{
 8004c54:	b580      	push	{r7, lr}
 8004c56:	b084      	sub	sp, #16
 8004c58:	af00      	add	r7, sp, #0
 8004c5a:	6078      	str	r0, [r7, #4]
  uint32_t flag_it = hdma->DmaBaseAddress->ISR;
 8004c5c:	687b      	ldr	r3, [r7, #4]
 8004c5e:	6c1b      	ldr	r3, [r3, #64]	; 0x40
 8004c60:	681b      	ldr	r3, [r3, #0]
 8004c62:	60fb      	str	r3, [r7, #12]
  uint32_t source_it = hdma->Instance->CCR;
 8004c64:	687b      	ldr	r3, [r7, #4]
 8004c66:	681b      	ldr	r3, [r3, #0]
 8004c68:	681b      	ldr	r3, [r3, #0]
 8004c6a:	60bb      	str	r3, [r7, #8]

  /* Half Transfer Complete Interrupt management ******************************/
  if (((flag_it & (DMA_FLAG_HT1 << (hdma->ChannelIndex & 0x1CU))) != 0U) && ((source_it & DMA_IT_HT) != 0U))
 8004c6c:	687b      	ldr	r3, [r7, #4]
 8004c6e:	6c5b      	ldr	r3, [r3, #68]	; 0x44
 8004c70:	f003 031c 	and.w	r3, r3, #28
 8004c74:	2204      	movs	r2, #4
 8004c76:	409a      	lsls	r2, r3
 8004c78:	68fb      	ldr	r3, [r7, #12]
 8004c7a:	4013      	ands	r3, r2
 8004c7c:	2b00      	cmp	r3, #0
 8004c7e:	d026      	beq.n	8004cce <HAL_DMA_IRQHandler+0x7a>
 8004c80:	68bb      	ldr	r3, [r7, #8]
 8004c82:	f003 0304 	and.w	r3, r3, #4
 8004c86:	2b00      	cmp	r3, #0
 8004c88:	d021      	beq.n	8004cce <HAL_DMA_IRQHandler+0x7a>
  {
      /* Disable the half transfer interrupt if the DMA mode is not CIRCULAR */
      if((hdma->Instance->CCR & DMA_CCR_CIRC) == 0U)
 8004c8a:	687b      	ldr	r3, [r7, #4]
 8004c8c:	681b      	ldr	r3, [r3, #0]
 8004c8e:	681b      	ldr	r3, [r3, #0]
 8004c90:	f003 0320 	and.w	r3, r3, #32
 8004c94:	2b00      	cmp	r3, #0
 8004c96:	d107      	bne.n	8004ca8 <HAL_DMA_IRQHandler+0x54>
      {
        /* Disable the half transfer interrupt */
        __HAL_DMA_DISABLE_IT(hdma, DMA_IT_HT);
 8004c98:	687b      	ldr	r3, [r7, #4]
 8004c9a:	681b      	ldr	r3, [r3, #0]
 8004c9c:	681a      	ldr	r2, [r3, #0]
 8004c9e:	687b      	ldr	r3, [r7, #4]
 8004ca0:	681b      	ldr	r3, [r3, #0]
 8004ca2:	f022 0204 	bic.w	r2, r2, #4
 8004ca6:	601a      	str	r2, [r3, #0]
      }
      /* Clear the half transfer complete flag */
      hdma->DmaBaseAddress->IFCR = DMA_ISR_HTIF1 << (hdma->ChannelIndex & 0x1CU);
 8004ca8:	687b      	ldr	r3, [r7, #4]
 8004caa:	6c5b      	ldr	r3, [r3, #68]	; 0x44
 8004cac:	f003 021c 	and.w	r2, r3, #28
 8004cb0:	687b      	ldr	r3, [r7, #4]
 8004cb2:	6c1b      	ldr	r3, [r3, #64]	; 0x40
 8004cb4:	2104      	movs	r1, #4
 8004cb6:	fa01 f202 	lsl.w	r2, r1, r2
 8004cba:	605a      	str	r2, [r3, #4]

      /* DMA peripheral state is not updated in Half Transfer */
      /* but in Transfer Complete case */

      if(hdma->XferHalfCpltCallback != NULL)
 8004cbc:	687b      	ldr	r3, [r7, #4]
 8004cbe:	6b1b      	ldr	r3, [r3, #48]	; 0x30
 8004cc0:	2b00      	cmp	r3, #0
 8004cc2:	d071      	beq.n	8004da8 <HAL_DMA_IRQHandler+0x154>
      {
        /* Half transfer callback */
        hdma->XferHalfCpltCallback(hdma);
 8004cc4:	687b      	ldr	r3, [r7, #4]
 8004cc6:	6b1b      	ldr	r3, [r3, #48]	; 0x30
 8004cc8:	6878      	ldr	r0, [r7, #4]
 8004cca:	4798      	blx	r3
      if(hdma->XferHalfCpltCallback != NULL)
 8004ccc:	e06c      	b.n	8004da8 <HAL_DMA_IRQHandler+0x154>
      }
  }

  /* Transfer Complete Interrupt management ***********************************/
  else if (((flag_it & (DMA_FLAG_TC1 << (hdma->ChannelIndex & 0x1CU))) != 0U) && ((source_it & DMA_IT_TC) != 0U))
 8004cce:	687b      	ldr	r3, [r7, #4]
 8004cd0:	6c5b      	ldr	r3, [r3, #68]	; 0x44
 8004cd2:	f003 031c 	and.w	r3, r3, #28
 8004cd6:	2202      	movs	r2, #2
 8004cd8:	409a      	lsls	r2, r3
 8004cda:	68fb      	ldr	r3, [r7, #12]
 8004cdc:	4013      	ands	r3, r2
 8004cde:	2b00      	cmp	r3, #0
 8004ce0:	d02e      	beq.n	8004d40 <HAL_DMA_IRQHandler+0xec>
 8004ce2:	68bb      	ldr	r3, [r7, #8]
 8004ce4:	f003 0302 	and.w	r3, r3, #2
 8004ce8:	2b00      	cmp	r3, #0
 8004cea:	d029      	beq.n	8004d40 <HAL_DMA_IRQHandler+0xec>
  {
    if((hdma->Instance->CCR & DMA_CCR_CIRC) == 0U)
 8004cec:	687b      	ldr	r3, [r7, #4]
 8004cee:	681b      	ldr	r3, [r3, #0]
 8004cf0:	681b      	ldr	r3, [r3, #0]
 8004cf2:	f003 0320 	and.w	r3, r3, #32
 8004cf6:	2b00      	cmp	r3, #0
 8004cf8:	d10b      	bne.n	8004d12 <HAL_DMA_IRQHandler+0xbe>
    {
      /* Disable the transfer complete interrupt if the DMA mode is not CIRCULAR */
      /* Disable the transfer complete and error interrupt */
      /* if the DMA mode is not CIRCULAR  */
      __HAL_DMA_DISABLE_IT(hdma, DMA_IT_TE | DMA_IT_TC);
 8004cfa:	687b      	ldr	r3, [r7, #4]
 8004cfc:	681b      	ldr	r3, [r3, #0]
 8004cfe:	681a      	ldr	r2, [r3, #0]
 8004d00:	687b      	ldr	r3, [r7, #4]
 8004d02:	681b      	ldr	r3, [r3, #0]
 8004d04:	f022 020a 	bic.w	r2, r2, #10
 8004d08:	601a      	str	r2, [r3, #0]

      /* Change the DMA state */
      hdma->State = HAL_DMA_STATE_READY;
 8004d0a:	687b      	ldr	r3, [r7, #4]
 8004d0c:	2201      	movs	r2, #1
 8004d0e:	f883 2025 	strb.w	r2, [r3, #37]	; 0x25
    }
    /* Clear the transfer complete flag */
    hdma->DmaBaseAddress->IFCR = (DMA_ISR_TCIF1 << (hdma->ChannelIndex & 0x1CU));
 8004d12:	687b      	ldr	r3, [r7, #4]
 8004d14:	6c5b      	ldr	r3, [r3, #68]	; 0x44
 8004d16:	f003 021c 	and.w	r2, r3, #28
 8004d1a:	687b      	ldr	r3, [r7, #4]
 8004d1c:	6c1b      	ldr	r3, [r3, #64]	; 0x40
 8004d1e:	2102      	movs	r1, #2
 8004d20:	fa01 f202 	lsl.w	r2, r1, r2
 8004d24:	605a      	str	r2, [r3, #4]

    /* Process Unlocked */
    __HAL_UNLOCK(hdma);
 8004d26:	687b      	ldr	r3, [r7, #4]
 8004d28:	2200      	movs	r2, #0
 8004d2a:	f883 2024 	strb.w	r2, [r3, #36]	; 0x24

    if(hdma->XferCpltCallback != NULL)
 8004d2e:	687b      	ldr	r3, [r7, #4]
 8004d30:	6adb      	ldr	r3, [r3, #44]	; 0x2c
 8004d32:	2b00      	cmp	r3, #0
 8004d34:	d038      	beq.n	8004da8 <HAL_DMA_IRQHandler+0x154>
    {
      /* Transfer complete callback */
      hdma->XferCpltCallback(hdma);
 8004d36:	687b      	ldr	r3, [r7, #4]
 8004d38:	6adb      	ldr	r3, [r3, #44]	; 0x2c
 8004d3a:	6878      	ldr	r0, [r7, #4]
 8004d3c:	4798      	blx	r3
    if(hdma->XferCpltCallback != NULL)
 8004d3e:	e033      	b.n	8004da8 <HAL_DMA_IRQHandler+0x154>
    }
  }

  /* Transfer Error Interrupt management **************************************/
  else if (((flag_it & (DMA_FLAG_TE1 << (hdma->ChannelIndex & 0x1CU))) != 0U) && ((source_it & DMA_IT_TE) !=  0U))
 8004d40:	687b      	ldr	r3, [r7, #4]
 8004d42:	6c5b      	ldr	r3, [r3, #68]	; 0x44
 8004d44:	f003 031c 	and.w	r3, r3, #28
 8004d48:	2208      	movs	r2, #8
 8004d4a:	409a      	lsls	r2, r3
 8004d4c:	68fb      	ldr	r3, [r7, #12]
 8004d4e:	4013      	ands	r3, r2
 8004d50:	2b00      	cmp	r3, #0
 8004d52:	d02a      	beq.n	8004daa <HAL_DMA_IRQHandler+0x156>
 8004d54:	68bb      	ldr	r3, [r7, #8]
 8004d56:	f003 0308 	and.w	r3, r3, #8
 8004d5a:	2b00      	cmp	r3, #0
 8004d5c:	d025      	beq.n	8004daa <HAL_DMA_IRQHandler+0x156>
  {
    /* When a DMA transfer error occurs */
    /* A hardware clear of its EN bits is performed */
    /* Disable ALL DMA IT */
    __HAL_DMA_DISABLE_IT(hdma, (DMA_IT_TC | DMA_IT_HT | DMA_IT_TE));
 8004d5e:	687b      	ldr	r3, [r7, #4]
 8004d60:	681b      	ldr	r3, [r3, #0]
 8004d62:	681a      	ldr	r2, [r3, #0]
 8004d64:	687b      	ldr	r3, [r7, #4]
 8004d66:	681b      	ldr	r3, [r3, #0]
 8004d68:	f022 020e 	bic.w	r2, r2, #14
 8004d6c:	601a      	str	r2, [r3, #0]

    /* Clear all flags */
    hdma->DmaBaseAddress->IFCR = (DMA_ISR_GIF1 << (hdma->ChannelIndex & 0x1CU));
 8004d6e:	687b      	ldr	r3, [r7, #4]
 8004d70:	6c5b      	ldr	r3, [r3, #68]	; 0x44
 8004d72:	f003 021c 	and.w	r2, r3, #28
 8004d76:	687b      	ldr	r3, [r7, #4]
 8004d78:	6c1b      	ldr	r3, [r3, #64]	; 0x40
 8004d7a:	2101      	movs	r1, #1
 8004d7c:	fa01 f202 	lsl.w	r2, r1, r2
 8004d80:	605a      	str	r2, [r3, #4]

    /* Update error code */
    hdma->ErrorCode = HAL_DMA_ERROR_TE;
 8004d82:	687b      	ldr	r3, [r7, #4]
 8004d84:	2201      	movs	r2, #1
 8004d86:	63da      	str	r2, [r3, #60]	; 0x3c

    /* Change the DMA state */
    hdma->State = HAL_DMA_STATE_READY;
 8004d88:	687b      	ldr	r3, [r7, #4]
 8004d8a:	2201      	movs	r2, #1
 8004d8c:	f883 2025 	strb.w	r2, [r3, #37]	; 0x25

    /* Process Unlocked */
    __HAL_UNLOCK(hdma);
 8004d90:	687b      	ldr	r3, [r7, #4]
 8004d92:	2200      	movs	r2, #0
 8004d94:	f883 2024 	strb.w	r2, [r3, #36]	; 0x24

    if (hdma->XferErrorCallback != NULL)
 8004d98:	687b      	ldr	r3, [r7, #4]
 8004d9a:	6b5b      	ldr	r3, [r3, #52]	; 0x34
 8004d9c:	2b00      	cmp	r3, #0
 8004d9e:	d004      	beq.n	8004daa <HAL_DMA_IRQHandler+0x156>
    {
      /* Transfer error callback */
      hdma->XferErrorCallback(hdma);
 8004da0:	687b      	ldr	r3, [r7, #4]
 8004da2:	6b5b      	ldr	r3, [r3, #52]	; 0x34
 8004da4:	6878      	ldr	r0, [r7, #4]
 8004da6:	4798      	blx	r3
  }
  else
  {
    /* Nothing To Do */
  }
  return;
 8004da8:	bf00      	nop
 8004daa:	bf00      	nop
}
 8004dac:	3710      	adds	r7, #16
 8004dae:	46bd      	mov	sp, r7
 8004db0:	bd80      	pop	{r7, pc}

08004db2 <DMA_SetConfig>:
  * @param  DstAddress The destination memory Buffer address
  * @param  DataLength The length of data to be transferred from source to destination
  * @retval HAL status
  */
static void DMA_SetConfig(DMA_HandleTypeDef *hdma, uint32_t SrcAddress, uint32_t DstAddress, uint32_t DataLength)
{
 8004db2:	b480      	push	{r7}
 8004db4:	b085      	sub	sp, #20
 8004db6:	af00      	add	r7, sp, #0
 8004db8:	60f8      	str	r0, [r7, #12]
 8004dba:	60b9      	str	r1, [r7, #8]
 8004dbc:	607a      	str	r2, [r7, #4]
 8004dbe:	603b      	str	r3, [r7, #0]
    hdma->DMAmuxRequestGenStatus->RGCFR = hdma->DMAmuxRequestGenStatusMask;
  }
#endif

  /* Clear all flags */
  hdma->DmaBaseAddress->IFCR = (DMA_ISR_GIF1 << (hdma->ChannelIndex & 0x1CU));
 8004dc0:	68fb      	ldr	r3, [r7, #12]
 8004dc2:	6c5b      	ldr	r3, [r3, #68]	; 0x44
 8004dc4:	f003 021c 	and.w	r2, r3, #28
 8004dc8:	68fb      	ldr	r3, [r7, #12]
 8004dca:	6c1b      	ldr	r3, [r3, #64]	; 0x40
 8004dcc:	2101      	movs	r1, #1
 8004dce:	fa01 f202 	lsl.w	r2, r1, r2
 8004dd2:	605a      	str	r2, [r3, #4]

  /* Configure DMA Channel data length */
  hdma->Instance->CNDTR = DataLength;
 8004dd4:	68fb      	ldr	r3, [r7, #12]
 8004dd6:	681b      	ldr	r3, [r3, #0]
 8004dd8:	683a      	ldr	r2, [r7, #0]
 8004dda:	605a      	str	r2, [r3, #4]

  /* Memory to Peripheral */
  if((hdma->Init.Direction) == DMA_MEMORY_TO_PERIPH)
 8004ddc:	68fb      	ldr	r3, [r7, #12]
 8004dde:	689b      	ldr	r3, [r3, #8]
 8004de0:	2b10      	cmp	r3, #16
 8004de2:	d108      	bne.n	8004df6 <DMA_SetConfig+0x44>
  {
    /* Configure DMA Channel destination address */
    hdma->Instance->CPAR = DstAddress;
 8004de4:	68fb      	ldr	r3, [r7, #12]
 8004de6:	681b      	ldr	r3, [r3, #0]
 8004de8:	687a      	ldr	r2, [r7, #4]
 8004dea:	609a      	str	r2, [r3, #8]

    /* Configure DMA Channel source address */
    hdma->Instance->CMAR = SrcAddress;
 8004dec:	68fb      	ldr	r3, [r7, #12]
 8004dee:	681b      	ldr	r3, [r3, #0]
 8004df0:	68ba      	ldr	r2, [r7, #8]
 8004df2:	60da      	str	r2, [r3, #12]
    hdma->Instance->CPAR = SrcAddress;

    /* Configure DMA Channel destination address */
    hdma->Instance->CMAR = DstAddress;
  }
}
 8004df4:	e007      	b.n	8004e06 <DMA_SetConfig+0x54>
    hdma->Instance->CPAR = SrcAddress;
 8004df6:	68fb      	ldr	r3, [r7, #12]
 8004df8:	681b      	ldr	r3, [r3, #0]
 8004dfa:	68ba      	ldr	r2, [r7, #8]
 8004dfc:	609a      	str	r2, [r3, #8]
    hdma->Instance->CMAR = DstAddress;
 8004dfe:	68fb      	ldr	r3, [r7, #12]
 8004e00:	681b      	ldr	r3, [r3, #0]
 8004e02:	687a      	ldr	r2, [r7, #4]
 8004e04:	60da      	str	r2, [r3, #12]
}
 8004e06:	bf00      	nop
 8004e08:	3714      	adds	r7, #20
 8004e0a:	46bd      	mov	sp, r7
 8004e0c:	f85d 7b04 	ldr.w	r7, [sp], #4
 8004e10:	4770      	bx	lr
	...

08004e14 <HAL_GPIO_Init>:
  * @param  GPIO_Init pointer to a GPIO_InitTypeDef structure that contains
  *         the configuration information for the specified GPIO peripheral.
  * @retval None
  */
void HAL_GPIO_Init(GPIO_TypeDef  *GPIOx, GPIO_InitTypeDef *GPIO_Init)
{
 8004e14:	b480      	push	{r7}
 8004e16:	b087      	sub	sp, #28
 8004e18:	af00      	add	r7, sp, #0
 8004e1a:	6078      	str	r0, [r7, #4]
 8004e1c:	6039      	str	r1, [r7, #0]
  uint32_t position = 0x00u;
 8004e1e:	2300      	movs	r3, #0
 8004e20:	617b      	str	r3, [r7, #20]
  assert_param(IS_GPIO_PIN(GPIO_Init->Pin));
  assert_param(IS_GPIO_MODE(GPIO_Init->Mode));
  assert_param(IS_GPIO_PULL(GPIO_Init->Pull));

  /* Configure the port pins */
  while (((GPIO_Init->Pin) >> position) != 0x00u)
 8004e22:	e148      	b.n	80050b6 <HAL_GPIO_Init+0x2a2>
  {
    /* Get current io position */
    iocurrent = (GPIO_Init->Pin) & (1uL << position);
 8004e24:	683b      	ldr	r3, [r7, #0]
 8004e26:	681a      	ldr	r2, [r3, #0]
 8004e28:	2101      	movs	r1, #1
 8004e2a:	697b      	ldr	r3, [r7, #20]
 8004e2c:	fa01 f303 	lsl.w	r3, r1, r3
 8004e30:	4013      	ands	r3, r2
 8004e32:	60fb      	str	r3, [r7, #12]

    if (iocurrent != 0x00u)
 8004e34:	68fb      	ldr	r3, [r7, #12]
 8004e36:	2b00      	cmp	r3, #0
 8004e38:	f000 813a 	beq.w	80050b0 <HAL_GPIO_Init+0x29c>
    {
      /*--------------------- GPIO Mode Configuration ------------------------*/
      /* In case of Output or Alternate function mode selection */
      if((GPIO_Init->Mode == GPIO_MODE_OUTPUT_PP) || (GPIO_Init->Mode == GPIO_MODE_AF_PP) ||
 8004e3c:	683b      	ldr	r3, [r7, #0]
 8004e3e:	685b      	ldr	r3, [r3, #4]
 8004e40:	2b01      	cmp	r3, #1
 8004e42:	d00b      	beq.n	8004e5c <HAL_GPIO_Init+0x48>
 8004e44:	683b      	ldr	r3, [r7, #0]
 8004e46:	685b      	ldr	r3, [r3, #4]
 8004e48:	2b02      	cmp	r3, #2
 8004e4a:	d007      	beq.n	8004e5c <HAL_GPIO_Init+0x48>
         (GPIO_Init->Mode == GPIO_MODE_OUTPUT_OD) || (GPIO_Init->Mode == GPIO_MODE_AF_OD))
 8004e4c:	683b      	ldr	r3, [r7, #0]
 8004e4e:	685b      	ldr	r3, [r3, #4]
      if((GPIO_Init->Mode == GPIO_MODE_OUTPUT_PP) || (GPIO_Init->Mode == GPIO_MODE_AF_PP) ||
 8004e50:	2b11      	cmp	r3, #17
 8004e52:	d003      	beq.n	8004e5c <HAL_GPIO_Init+0x48>
         (GPIO_Init->Mode == GPIO_MODE_OUTPUT_OD) || (GPIO_Init->Mode == GPIO_MODE_AF_OD))
 8004e54:	683b      	ldr	r3, [r7, #0]
 8004e56:	685b      	ldr	r3, [r3, #4]
 8004e58:	2b12      	cmp	r3, #18
 8004e5a:	d130      	bne.n	8004ebe <HAL_GPIO_Init+0xaa>
      {
        /* Check the Speed parameter */
        assert_param(IS_GPIO_SPEED(GPIO_Init->Speed));
        /* Configure the IO Speed */
        temp = GPIOx->OSPEEDR;
 8004e5c:	687b      	ldr	r3, [r7, #4]
 8004e5e:	689b      	ldr	r3, [r3, #8]
 8004e60:	613b      	str	r3, [r7, #16]
        temp &= ~(GPIO_OSPEEDR_OSPEED0 << (position * 2u));
 8004e62:	697b      	ldr	r3, [r7, #20]
 8004e64:	005b      	lsls	r3, r3, #1
 8004e66:	2203      	movs	r2, #3
 8004e68:	fa02 f303 	lsl.w	r3, r2, r3
 8004e6c:	43db      	mvns	r3, r3
 8004e6e:	693a      	ldr	r2, [r7, #16]
 8004e70:	4013      	ands	r3, r2
 8004e72:	613b      	str	r3, [r7, #16]
        temp |= (GPIO_Init->Speed << (position * 2u));
 8004e74:	683b      	ldr	r3, [r7, #0]
 8004e76:	68da      	ldr	r2, [r3, #12]
 8004e78:	697b      	ldr	r3, [r7, #20]
 8004e7a:	005b      	lsls	r3, r3, #1
 8004e7c:	fa02 f303 	lsl.w	r3, r2, r3
 8004e80:	693a      	ldr	r2, [r7, #16]
 8004e82:	4313      	orrs	r3, r2
 8004e84:	613b      	str	r3, [r7, #16]
        GPIOx->OSPEEDR = temp;
 8004e86:	687b      	ldr	r3, [r7, #4]
 8004e88:	693a      	ldr	r2, [r7, #16]
 8004e8a:	609a      	str	r2, [r3, #8]

        /* Configure the IO Output Type */
        temp = GPIOx->OTYPER;
 8004e8c:	687b      	ldr	r3, [r7, #4]
 8004e8e:	685b      	ldr	r3, [r3, #4]
 8004e90:	613b      	str	r3, [r7, #16]
        temp &= ~(GPIO_OTYPER_OT0 << position) ;
 8004e92:	2201      	movs	r2, #1
 8004e94:	697b      	ldr	r3, [r7, #20]
 8004e96:	fa02 f303 	lsl.w	r3, r2, r3
 8004e9a:	43db      	mvns	r3, r3
 8004e9c:	693a      	ldr	r2, [r7, #16]
 8004e9e:	4013      	ands	r3, r2
 8004ea0:	613b      	str	r3, [r7, #16]
        temp |= (((GPIO_Init->Mode & GPIO_OUTPUT_TYPE) >> 4u) << position);
 8004ea2:	683b      	ldr	r3, [r7, #0]
 8004ea4:	685b      	ldr	r3, [r3, #4]
 8004ea6:	091b      	lsrs	r3, r3, #4
 8004ea8:	f003 0201 	and.w	r2, r3, #1
 8004eac:	697b      	ldr	r3, [r7, #20]
 8004eae:	fa02 f303 	lsl.w	r3, r2, r3
 8004eb2:	693a      	ldr	r2, [r7, #16]
 8004eb4:	4313      	orrs	r3, r2
 8004eb6:	613b      	str	r3, [r7, #16]
        GPIOx->OTYPER = temp;
 8004eb8:	687b      	ldr	r3, [r7, #4]
 8004eba:	693a      	ldr	r2, [r7, #16]
 8004ebc:	605a      	str	r2, [r3, #4]
      }

#endif /* STM32L471xx || STM32L475xx || STM32L476xx || STM32L485xx || STM32L486xx */

      /* Activate the Pull-up or Pull down resistor for the current IO */
      temp = GPIOx->PUPDR;
 8004ebe:	687b      	ldr	r3, [r7, #4]
 8004ec0:	68db      	ldr	r3, [r3, #12]
 8004ec2:	613b      	str	r3, [r7, #16]
      temp &= ~(GPIO_PUPDR_PUPD0 << (position * 2u));
 8004ec4:	697b      	ldr	r3, [r7, #20]
 8004ec6:	005b      	lsls	r3, r3, #1
 8004ec8:	2203      	movs	r2, #3
 8004eca:	fa02 f303 	lsl.w	r3, r2, r3
 8004ece:	43db      	mvns	r3, r3
 8004ed0:	693a      	ldr	r2, [r7, #16]
 8004ed2:	4013      	ands	r3, r2
 8004ed4:	613b      	str	r3, [r7, #16]
      temp |= ((GPIO_Init->Pull) << (position * 2u));
 8004ed6:	683b      	ldr	r3, [r7, #0]
 8004ed8:	689a      	ldr	r2, [r3, #8]
 8004eda:	697b      	ldr	r3, [r7, #20]
 8004edc:	005b      	lsls	r3, r3, #1
 8004ede:	fa02 f303 	lsl.w	r3, r2, r3
 8004ee2:	693a      	ldr	r2, [r7, #16]
 8004ee4:	4313      	orrs	r3, r2
 8004ee6:	613b      	str	r3, [r7, #16]
      GPIOx->PUPDR = temp;
 8004ee8:	687b      	ldr	r3, [r7, #4]
 8004eea:	693a      	ldr	r2, [r7, #16]
 8004eec:	60da      	str	r2, [r3, #12]

      /* In case of Alternate function mode selection */
      if((GPIO_Init->Mode == GPIO_MODE_AF_PP) || (GPIO_Init->Mode == GPIO_MODE_AF_OD))
 8004eee:	683b      	ldr	r3, [r7, #0]
 8004ef0:	685b      	ldr	r3, [r3, #4]
 8004ef2:	2b02      	cmp	r3, #2
 8004ef4:	d003      	beq.n	8004efe <HAL_GPIO_Init+0xea>
 8004ef6:	683b      	ldr	r3, [r7, #0]
 8004ef8:	685b      	ldr	r3, [r3, #4]
 8004efa:	2b12      	cmp	r3, #18
 8004efc:	d123      	bne.n	8004f46 <HAL_GPIO_Init+0x132>
        /* Check the Alternate function parameters */
        assert_param(IS_GPIO_AF_INSTANCE(GPIOx));
        assert_param(IS_GPIO_AF(GPIO_Init->Alternate));

        /* Configure Alternate function mapped with the current IO */
        temp = GPIOx->AFR[position >> 3u];
 8004efe:	697b      	ldr	r3, [r7, #20]
 8004f00:	08da      	lsrs	r2, r3, #3
 8004f02:	687b      	ldr	r3, [r7, #4]
 8004f04:	3208      	adds	r2, #8
 8004f06:	f853 3022 	ldr.w	r3, [r3, r2, lsl #2]
 8004f0a:	613b      	str	r3, [r7, #16]
        temp &= ~(0xFu << ((position & 0x07u) * 4u));
 8004f0c:	697b      	ldr	r3, [r7, #20]
 8004f0e:	f003 0307 	and.w	r3, r3, #7
 8004f12:	009b      	lsls	r3, r3, #2
 8004f14:	220f      	movs	r2, #15
 8004f16:	fa02 f303 	lsl.w	r3, r2, r3
 8004f1a:	43db      	mvns	r3, r3
 8004f1c:	693a      	ldr	r2, [r7, #16]
 8004f1e:	4013      	ands	r3, r2
 8004f20:	613b      	str	r3, [r7, #16]
        temp |= ((GPIO_Init->Alternate) << ((position & 0x07u) * 4u));
 8004f22:	683b      	ldr	r3, [r7, #0]
 8004f24:	691a      	ldr	r2, [r3, #16]
 8004f26:	697b      	ldr	r3, [r7, #20]
 8004f28:	f003 0307 	and.w	r3, r3, #7
 8004f2c:	009b      	lsls	r3, r3, #2
 8004f2e:	fa02 f303 	lsl.w	r3, r2, r3
 8004f32:	693a      	ldr	r2, [r7, #16]
 8004f34:	4313      	orrs	r3, r2
 8004f36:	613b      	str	r3, [r7, #16]
        GPIOx->AFR[position >> 3u] = temp;
 8004f38:	697b      	ldr	r3, [r7, #20]
 8004f3a:	08da      	lsrs	r2, r3, #3
 8004f3c:	687b      	ldr	r3, [r7, #4]
 8004f3e:	3208      	adds	r2, #8
 8004f40:	6939      	ldr	r1, [r7, #16]
 8004f42:	f843 1022 	str.w	r1, [r3, r2, lsl #2]
      }

      /* Configure IO Direction mode (Input, Output, Alternate or Analog) */
      temp = GPIOx->MODER;
 8004f46:	687b      	ldr	r3, [r7, #4]
 8004f48:	681b      	ldr	r3, [r3, #0]
 8004f4a:	613b      	str	r3, [r7, #16]
      temp &= ~(GPIO_MODER_MODE0 << (position * 2u));
 8004f4c:	697b      	ldr	r3, [r7, #20]
 8004f4e:	005b      	lsls	r3, r3, #1
 8004f50:	2203      	movs	r2, #3
 8004f52:	fa02 f303 	lsl.w	r3, r2, r3
 8004f56:	43db      	mvns	r3, r3
 8004f58:	693a      	ldr	r2, [r7, #16]
 8004f5a:	4013      	ands	r3, r2
 8004f5c:	613b      	str	r3, [r7, #16]
      temp |= ((GPIO_Init->Mode & GPIO_MODE) << (position * 2u));
 8004f5e:	683b      	ldr	r3, [r7, #0]
 8004f60:	685b      	ldr	r3, [r3, #4]
 8004f62:	f003 0203 	and.w	r2, r3, #3
 8004f66:	697b      	ldr	r3, [r7, #20]
 8004f68:	005b      	lsls	r3, r3, #1
 8004f6a:	fa02 f303 	lsl.w	r3, r2, r3
 8004f6e:	693a      	ldr	r2, [r7, #16]
 8004f70:	4313      	orrs	r3, r2
 8004f72:	613b      	str	r3, [r7, #16]
      GPIOx->MODER = temp;
 8004f74:	687b      	ldr	r3, [r7, #4]
 8004f76:	693a      	ldr	r2, [r7, #16]
 8004f78:	601a      	str	r2, [r3, #0]

      /*--------------------- EXTI Mode Configuration ------------------------*/
      /* Configure the External Interrupt or event for the current IO */
      if((GPIO_Init->Mode & EXTI_MODE) == EXTI_MODE)
 8004f7a:	683b      	ldr	r3, [r7, #0]
 8004f7c:	685b      	ldr	r3, [r3, #4]
 8004f7e:	f003 5380 	and.w	r3, r3, #268435456	; 0x10000000
 8004f82:	2b00      	cmp	r3, #0
 8004f84:	f000 8094 	beq.w	80050b0 <HAL_GPIO_Init+0x29c>
      {
        /* Enable SYSCFG Clock */
        __HAL_RCC_SYSCFG_CLK_ENABLE();
 8004f88:	4b52      	ldr	r3, [pc, #328]	; (80050d4 <HAL_GPIO_Init+0x2c0>)
 8004f8a:	6e1b      	ldr	r3, [r3, #96]	; 0x60
 8004f8c:	4a51      	ldr	r2, [pc, #324]	; (80050d4 <HAL_GPIO_Init+0x2c0>)
 8004f8e:	f043 0301 	orr.w	r3, r3, #1
 8004f92:	6613      	str	r3, [r2, #96]	; 0x60
 8004f94:	4b4f      	ldr	r3, [pc, #316]	; (80050d4 <HAL_GPIO_Init+0x2c0>)
 8004f96:	6e1b      	ldr	r3, [r3, #96]	; 0x60
 8004f98:	f003 0301 	and.w	r3, r3, #1
 8004f9c:	60bb      	str	r3, [r7, #8]
 8004f9e:	68bb      	ldr	r3, [r7, #8]

        temp = SYSCFG->EXTICR[position >> 2u];
 8004fa0:	4a4d      	ldr	r2, [pc, #308]	; (80050d8 <HAL_GPIO_Init+0x2c4>)
 8004fa2:	697b      	ldr	r3, [r7, #20]
 8004fa4:	089b      	lsrs	r3, r3, #2
 8004fa6:	3302      	adds	r3, #2
 8004fa8:	f852 3023 	ldr.w	r3, [r2, r3, lsl #2]
 8004fac:	613b      	str	r3, [r7, #16]
        temp &= ~(0x0FuL << (4u * (position & 0x03u)));
 8004fae:	697b      	ldr	r3, [r7, #20]
 8004fb0:	f003 0303 	and.w	r3, r3, #3
 8004fb4:	009b      	lsls	r3, r3, #2
 8004fb6:	220f      	movs	r2, #15
 8004fb8:	fa02 f303 	lsl.w	r3, r2, r3
 8004fbc:	43db      	mvns	r3, r3
 8004fbe:	693a      	ldr	r2, [r7, #16]
 8004fc0:	4013      	ands	r3, r2
 8004fc2:	613b      	str	r3, [r7, #16]
        temp |= (GPIO_GET_INDEX(GPIOx) << (4u * (position & 0x03u)));
 8004fc4:	687b      	ldr	r3, [r7, #4]
 8004fc6:	f1b3 4f90 	cmp.w	r3, #1207959552	; 0x48000000
 8004fca:	d00d      	beq.n	8004fe8 <HAL_GPIO_Init+0x1d4>
 8004fcc:	687b      	ldr	r3, [r7, #4]
 8004fce:	4a43      	ldr	r2, [pc, #268]	; (80050dc <HAL_GPIO_Init+0x2c8>)
 8004fd0:	4293      	cmp	r3, r2
 8004fd2:	d007      	beq.n	8004fe4 <HAL_GPIO_Init+0x1d0>
 8004fd4:	687b      	ldr	r3, [r7, #4]
 8004fd6:	4a42      	ldr	r2, [pc, #264]	; (80050e0 <HAL_GPIO_Init+0x2cc>)
 8004fd8:	4293      	cmp	r3, r2
 8004fda:	d101      	bne.n	8004fe0 <HAL_GPIO_Init+0x1cc>
 8004fdc:	2302      	movs	r3, #2
 8004fde:	e004      	b.n	8004fea <HAL_GPIO_Init+0x1d6>
 8004fe0:	2307      	movs	r3, #7
 8004fe2:	e002      	b.n	8004fea <HAL_GPIO_Init+0x1d6>
 8004fe4:	2301      	movs	r3, #1
 8004fe6:	e000      	b.n	8004fea <HAL_GPIO_Init+0x1d6>
 8004fe8:	2300      	movs	r3, #0
 8004fea:	697a      	ldr	r2, [r7, #20]
 8004fec:	f002 0203 	and.w	r2, r2, #3
 8004ff0:	0092      	lsls	r2, r2, #2
 8004ff2:	4093      	lsls	r3, r2
 8004ff4:	693a      	ldr	r2, [r7, #16]
 8004ff6:	4313      	orrs	r3, r2
 8004ff8:	613b      	str	r3, [r7, #16]
        SYSCFG->EXTICR[position >> 2u] = temp;
 8004ffa:	4937      	ldr	r1, [pc, #220]	; (80050d8 <HAL_GPIO_Init+0x2c4>)
 8004ffc:	697b      	ldr	r3, [r7, #20]
 8004ffe:	089b      	lsrs	r3, r3, #2
 8005000:	3302      	adds	r3, #2
 8005002:	693a      	ldr	r2, [r7, #16]
 8005004:	f841 2023 	str.w	r2, [r1, r3, lsl #2]

        /* Clear EXTI line configuration */
        temp = EXTI->IMR1;
 8005008:	4b36      	ldr	r3, [pc, #216]	; (80050e4 <HAL_GPIO_Init+0x2d0>)
 800500a:	681b      	ldr	r3, [r3, #0]
 800500c:	613b      	str	r3, [r7, #16]
        temp &= ~(iocurrent);
 800500e:	68fb      	ldr	r3, [r7, #12]
 8005010:	43db      	mvns	r3, r3
 8005012:	693a      	ldr	r2, [r7, #16]
 8005014:	4013      	ands	r3, r2
 8005016:	613b      	str	r3, [r7, #16]
        if((GPIO_Init->Mode & GPIO_MODE_IT) == GPIO_MODE_IT)
 8005018:	683b      	ldr	r3, [r7, #0]
 800501a:	685b      	ldr	r3, [r3, #4]
 800501c:	f403 3380 	and.w	r3, r3, #65536	; 0x10000
 8005020:	2b00      	cmp	r3, #0
 8005022:	d003      	beq.n	800502c <HAL_GPIO_Init+0x218>
        {
          temp |= iocurrent;
 8005024:	693a      	ldr	r2, [r7, #16]
 8005026:	68fb      	ldr	r3, [r7, #12]
 8005028:	4313      	orrs	r3, r2
 800502a:	613b      	str	r3, [r7, #16]
        }
        EXTI->IMR1 = temp;
 800502c:	4a2d      	ldr	r2, [pc, #180]	; (80050e4 <HAL_GPIO_Init+0x2d0>)
 800502e:	693b      	ldr	r3, [r7, #16]
 8005030:	6013      	str	r3, [r2, #0]

        temp = EXTI->EMR1;
 8005032:	4b2c      	ldr	r3, [pc, #176]	; (80050e4 <HAL_GPIO_Init+0x2d0>)
 8005034:	685b      	ldr	r3, [r3, #4]
 8005036:	613b      	str	r3, [r7, #16]
        temp &= ~(iocurrent);
 8005038:	68fb      	ldr	r3, [r7, #12]
 800503a:	43db      	mvns	r3, r3
 800503c:	693a      	ldr	r2, [r7, #16]
 800503e:	4013      	ands	r3, r2
 8005040:	613b      	str	r3, [r7, #16]
        if((GPIO_Init->Mode & GPIO_MODE_EVT) == GPIO_MODE_EVT)
 8005042:	683b      	ldr	r3, [r7, #0]
 8005044:	685b      	ldr	r3, [r3, #4]
 8005046:	f403 3300 	and.w	r3, r3, #131072	; 0x20000
 800504a:	2b00      	cmp	r3, #0
 800504c:	d003      	beq.n	8005056 <HAL_GPIO_Init+0x242>
        {
          temp |= iocurrent;
 800504e:	693a      	ldr	r2, [r7, #16]
 8005050:	68fb      	ldr	r3, [r7, #12]
 8005052:	4313      	orrs	r3, r2
 8005054:	613b      	str	r3, [r7, #16]
        }
        EXTI->EMR1 = temp;
 8005056:	4a23      	ldr	r2, [pc, #140]	; (80050e4 <HAL_GPIO_Init+0x2d0>)
 8005058:	693b      	ldr	r3, [r7, #16]
 800505a:	6053      	str	r3, [r2, #4]

        /* Clear Rising Falling edge configuration */
        temp = EXTI->RTSR1;
 800505c:	4b21      	ldr	r3, [pc, #132]	; (80050e4 <HAL_GPIO_Init+0x2d0>)
 800505e:	689b      	ldr	r3, [r3, #8]
 8005060:	613b      	str	r3, [r7, #16]
        temp &= ~(iocurrent);
 8005062:	68fb      	ldr	r3, [r7, #12]
 8005064:	43db      	mvns	r3, r3
 8005066:	693a      	ldr	r2, [r7, #16]
 8005068:	4013      	ands	r3, r2
 800506a:	613b      	str	r3, [r7, #16]
        if((GPIO_Init->Mode & RISING_EDGE) == RISING_EDGE)
 800506c:	683b      	ldr	r3, [r7, #0]
 800506e:	685b      	ldr	r3, [r3, #4]
 8005070:	f403 1380 	and.w	r3, r3, #1048576	; 0x100000
 8005074:	2b00      	cmp	r3, #0
 8005076:	d003      	beq.n	8005080 <HAL_GPIO_Init+0x26c>
        {
          temp |= iocurrent;
 8005078:	693a      	ldr	r2, [r7, #16]
 800507a:	68fb      	ldr	r3, [r7, #12]
 800507c:	4313      	orrs	r3, r2
 800507e:	613b      	str	r3, [r7, #16]
        }
        EXTI->RTSR1 = temp;
 8005080:	4a18      	ldr	r2, [pc, #96]	; (80050e4 <HAL_GPIO_Init+0x2d0>)
 8005082:	693b      	ldr	r3, [r7, #16]
 8005084:	6093      	str	r3, [r2, #8]

        temp = EXTI->FTSR1;
 8005086:	4b17      	ldr	r3, [pc, #92]	; (80050e4 <HAL_GPIO_Init+0x2d0>)
 8005088:	68db      	ldr	r3, [r3, #12]
 800508a:	613b      	str	r3, [r7, #16]
        temp &= ~(iocurrent);
 800508c:	68fb      	ldr	r3, [r7, #12]
 800508e:	43db      	mvns	r3, r3
 8005090:	693a      	ldr	r2, [r7, #16]
 8005092:	4013      	ands	r3, r2
 8005094:	613b      	str	r3, [r7, #16]
        if((GPIO_Init->Mode & FALLING_EDGE) == FALLING_EDGE)
 8005096:	683b      	ldr	r3, [r7, #0]
 8005098:	685b      	ldr	r3, [r3, #4]
 800509a:	f403 1300 	and.w	r3, r3, #2097152	; 0x200000
 800509e:	2b00      	cmp	r3, #0
 80050a0:	d003      	beq.n	80050aa <HAL_GPIO_Init+0x296>
        {
          temp |= iocurrent;
 80050a2:	693a      	ldr	r2, [r7, #16]
 80050a4:	68fb      	ldr	r3, [r7, #12]
 80050a6:	4313      	orrs	r3, r2
 80050a8:	613b      	str	r3, [r7, #16]
        }
        EXTI->FTSR1 = temp;
 80050aa:	4a0e      	ldr	r2, [pc, #56]	; (80050e4 <HAL_GPIO_Init+0x2d0>)
 80050ac:	693b      	ldr	r3, [r7, #16]
 80050ae:	60d3      	str	r3, [r2, #12]
      }
    }

    position++;
 80050b0:	697b      	ldr	r3, [r7, #20]
 80050b2:	3301      	adds	r3, #1
 80050b4:	617b      	str	r3, [r7, #20]
  while (((GPIO_Init->Pin) >> position) != 0x00u)
 80050b6:	683b      	ldr	r3, [r7, #0]
 80050b8:	681a      	ldr	r2, [r3, #0]
 80050ba:	697b      	ldr	r3, [r7, #20]
 80050bc:	fa22 f303 	lsr.w	r3, r2, r3
 80050c0:	2b00      	cmp	r3, #0
 80050c2:	f47f aeaf 	bne.w	8004e24 <HAL_GPIO_Init+0x10>
  }
}
 80050c6:	bf00      	nop
 80050c8:	371c      	adds	r7, #28
 80050ca:	46bd      	mov	sp, r7
 80050cc:	f85d 7b04 	ldr.w	r7, [sp], #4
 80050d0:	4770      	bx	lr
 80050d2:	bf00      	nop
 80050d4:	40021000 	.word	0x40021000
 80050d8:	40010000 	.word	0x40010000
 80050dc:	48000400 	.word	0x48000400
 80050e0:	48000800 	.word	0x48000800
 80050e4:	40010400 	.word	0x40010400

080050e8 <HAL_GPIO_ReadPin>:
  * @param  GPIO_Pin specifies the port bit to read.
  *         This parameter can be any combination of GPIO_Pin_x where x can be (0..15).
  * @retval The input port pin value.
  */
GPIO_PinState HAL_GPIO_ReadPin(GPIO_TypeDef* GPIOx, uint16_t GPIO_Pin)
{
 80050e8:	b480      	push	{r7}
 80050ea:	b085      	sub	sp, #20
 80050ec:	af00      	add	r7, sp, #0
 80050ee:	6078      	str	r0, [r7, #4]
 80050f0:	460b      	mov	r3, r1
 80050f2:	807b      	strh	r3, [r7, #2]
  GPIO_PinState bitstatus;

  /* Check the parameters */
  assert_param(IS_GPIO_PIN(GPIO_Pin));

  if ((GPIOx->IDR & GPIO_Pin) != 0x00u)
 80050f4:	687b      	ldr	r3, [r7, #4]
 80050f6:	691a      	ldr	r2, [r3, #16]
 80050f8:	887b      	ldrh	r3, [r7, #2]
 80050fa:	4013      	ands	r3, r2
 80050fc:	2b00      	cmp	r3, #0
 80050fe:	d002      	beq.n	8005106 <HAL_GPIO_ReadPin+0x1e>
  {
    bitstatus = GPIO_PIN_SET;
 8005100:	2301      	movs	r3, #1
 8005102:	73fb      	strb	r3, [r7, #15]
 8005104:	e001      	b.n	800510a <HAL_GPIO_ReadPin+0x22>
  }
  else
  {
    bitstatus = GPIO_PIN_RESET;
 8005106:	2300      	movs	r3, #0
 8005108:	73fb      	strb	r3, [r7, #15]
  }
  return bitstatus;
 800510a:	7bfb      	ldrb	r3, [r7, #15]
}
 800510c:	4618      	mov	r0, r3
 800510e:	3714      	adds	r7, #20
 8005110:	46bd      	mov	sp, r7
 8005112:	f85d 7b04 	ldr.w	r7, [sp], #4
 8005116:	4770      	bx	lr

08005118 <HAL_GPIO_WritePin>:
  *            @arg GPIO_PIN_RESET: to clear the port pin
  *            @arg GPIO_PIN_SET: to set the port pin
  * @retval None
  */
void HAL_GPIO_WritePin(GPIO_TypeDef* GPIOx, uint16_t GPIO_Pin, GPIO_PinState PinState)
{
 8005118:	b480      	push	{r7}
 800511a:	b083      	sub	sp, #12
 800511c:	af00      	add	r7, sp, #0
 800511e:	6078      	str	r0, [r7, #4]
 8005120:	460b      	mov	r3, r1
 8005122:	807b      	strh	r3, [r7, #2]
 8005124:	4613      	mov	r3, r2
 8005126:	707b      	strb	r3, [r7, #1]
  /* Check the parameters */
  assert_param(IS_GPIO_PIN(GPIO_Pin));
  assert_param(IS_GPIO_PIN_ACTION(PinState));

  if(PinState != GPIO_PIN_RESET)
 8005128:	787b      	ldrb	r3, [r7, #1]
 800512a:	2b00      	cmp	r3, #0
 800512c:	d003      	beq.n	8005136 <HAL_GPIO_WritePin+0x1e>
  {
    GPIOx->BSRR = (uint32_t)GPIO_Pin;
 800512e:	887a      	ldrh	r2, [r7, #2]
 8005130:	687b      	ldr	r3, [r7, #4]
 8005132:	619a      	str	r2, [r3, #24]
  }
  else
  {
    GPIOx->BRR = (uint32_t)GPIO_Pin;
  }
}
 8005134:	e002      	b.n	800513c <HAL_GPIO_WritePin+0x24>
    GPIOx->BRR = (uint32_t)GPIO_Pin;
 8005136:	887a      	ldrh	r2, [r7, #2]
 8005138:	687b      	ldr	r3, [r7, #4]
 800513a:	629a      	str	r2, [r3, #40]	; 0x28
}
 800513c:	bf00      	nop
 800513e:	370c      	adds	r7, #12
 8005140:	46bd      	mov	sp, r7
 8005142:	f85d 7b04 	ldr.w	r7, [sp], #4
 8005146:	4770      	bx	lr

08005148 <HAL_GPIO_EXTI_IRQHandler>:
  * @brief  Handle EXTI interrupt request.
  * @param  GPIO_Pin Specifies the port pin connected to corresponding EXTI line.
  * @retval None
  */
void HAL_GPIO_EXTI_IRQHandler(uint16_t GPIO_Pin)
{
 8005148:	b580      	push	{r7, lr}
 800514a:	b082      	sub	sp, #8
 800514c:	af00      	add	r7, sp, #0
 800514e:	4603      	mov	r3, r0
 8005150:	80fb      	strh	r3, [r7, #6]
  /* EXTI line interrupt detected */
  if(__HAL_GPIO_EXTI_GET_IT(GPIO_Pin) != 0x00u)
 8005152:	4b08      	ldr	r3, [pc, #32]	; (8005174 <HAL_GPIO_EXTI_IRQHandler+0x2c>)
 8005154:	695a      	ldr	r2, [r3, #20]
 8005156:	88fb      	ldrh	r3, [r7, #6]
 8005158:	4013      	ands	r3, r2
 800515a:	2b00      	cmp	r3, #0
 800515c:	d006      	beq.n	800516c <HAL_GPIO_EXTI_IRQHandler+0x24>
  {
    __HAL_GPIO_EXTI_CLEAR_IT(GPIO_Pin);
 800515e:	4a05      	ldr	r2, [pc, #20]	; (8005174 <HAL_GPIO_EXTI_IRQHandler+0x2c>)
 8005160:	88fb      	ldrh	r3, [r7, #6]
 8005162:	6153      	str	r3, [r2, #20]
    HAL_GPIO_EXTI_Callback(GPIO_Pin);
 8005164:	88fb      	ldrh	r3, [r7, #6]
 8005166:	4618      	mov	r0, r3
 8005168:	f7fc fd96 	bl	8001c98 <HAL_GPIO_EXTI_Callback>
  }
}
 800516c:	bf00      	nop
 800516e:	3708      	adds	r7, #8
 8005170:	46bd      	mov	sp, r7
 8005172:	bd80      	pop	{r7, pc}
 8005174:	40010400 	.word	0x40010400

08005178 <HAL_I2C_Init>:
  * @param  hi2c Pointer to a I2C_HandleTypeDef structure that contains
  *                the configuration information for the specified I2C.
  * @retval HAL status
  */
HAL_StatusTypeDef HAL_I2C_Init(I2C_HandleTypeDef *hi2c)
{
 8005178:	b580      	push	{r7, lr}
 800517a:	b082      	sub	sp, #8
 800517c:	af00      	add	r7, sp, #0
 800517e:	6078      	str	r0, [r7, #4]
  /* Check the I2C handle allocation */
  if (hi2c == NULL)
 8005180:	687b      	ldr	r3, [r7, #4]
 8005182:	2b00      	cmp	r3, #0
 8005184:	d101      	bne.n	800518a <HAL_I2C_Init+0x12>
  {
    return HAL_ERROR;
 8005186:	2301      	movs	r3, #1
 8005188:	e081      	b.n	800528e <HAL_I2C_Init+0x116>
  assert_param(IS_I2C_OWN_ADDRESS2(hi2c->Init.OwnAddress2));
  assert_param(IS_I2C_OWN_ADDRESS2_MASK(hi2c->Init.OwnAddress2Masks));
  assert_param(IS_I2C_GENERAL_CALL(hi2c->Init.GeneralCallMode));
  assert_param(IS_I2C_NO_STRETCH(hi2c->Init.NoStretchMode));

  if (hi2c->State == HAL_I2C_STATE_RESET)
 800518a:	687b      	ldr	r3, [r7, #4]
 800518c:	f893 3041 	ldrb.w	r3, [r3, #65]	; 0x41
 8005190:	b2db      	uxtb	r3, r3
 8005192:	2b00      	cmp	r3, #0
 8005194:	d106      	bne.n	80051a4 <HAL_I2C_Init+0x2c>
  {
    /* Allocate lock resource and initialize it */
    hi2c->Lock = HAL_UNLOCKED;
 8005196:	687b      	ldr	r3, [r7, #4]
 8005198:	2200      	movs	r2, #0
 800519a:	f883 2040 	strb.w	r2, [r3, #64]	; 0x40

    /* Init the low level hardware : GPIO, CLOCK, CORTEX...etc */
    hi2c->MspInitCallback(hi2c);
#else
    /* Init the low level hardware : GPIO, CLOCK, CORTEX...etc */
    HAL_I2C_MspInit(hi2c);
 800519e:	6878      	ldr	r0, [r7, #4]
 80051a0:	f7fc fc2e 	bl	8001a00 <HAL_I2C_MspInit>
#endif /* USE_HAL_I2C_REGISTER_CALLBACKS */
  }

  hi2c->State = HAL_I2C_STATE_BUSY;
 80051a4:	687b      	ldr	r3, [r7, #4]
 80051a6:	2224      	movs	r2, #36	; 0x24
 80051a8:	f883 2041 	strb.w	r2, [r3, #65]	; 0x41

  /* Disable the selected I2C peripheral */
  __HAL_I2C_DISABLE(hi2c);
 80051ac:	687b      	ldr	r3, [r7, #4]
 80051ae:	681b      	ldr	r3, [r3, #0]
 80051b0:	681a      	ldr	r2, [r3, #0]
 80051b2:	687b      	ldr	r3, [r7, #4]
 80051b4:	681b      	ldr	r3, [r3, #0]
 80051b6:	f022 0201 	bic.w	r2, r2, #1
 80051ba:	601a      	str	r2, [r3, #0]

  /*---------------------------- I2Cx TIMINGR Configuration ------------------*/
  /* Configure I2Cx: Frequency range */
  hi2c->Instance->TIMINGR = hi2c->Init.Timing & TIMING_CLEAR_MASK;
 80051bc:	687b      	ldr	r3, [r7, #4]
 80051be:	685a      	ldr	r2, [r3, #4]
 80051c0:	687b      	ldr	r3, [r7, #4]
 80051c2:	681b      	ldr	r3, [r3, #0]
 80051c4:	f022 6270 	bic.w	r2, r2, #251658240	; 0xf000000
 80051c8:	611a      	str	r2, [r3, #16]

  /*---------------------------- I2Cx OAR1 Configuration ---------------------*/
  /* Disable Own Address1 before set the Own Address1 configuration */
  hi2c->Instance->OAR1 &= ~I2C_OAR1_OA1EN;
 80051ca:	687b      	ldr	r3, [r7, #4]
 80051cc:	681b      	ldr	r3, [r3, #0]
 80051ce:	689a      	ldr	r2, [r3, #8]
 80051d0:	687b      	ldr	r3, [r7, #4]
 80051d2:	681b      	ldr	r3, [r3, #0]
 80051d4:	f422 4200 	bic.w	r2, r2, #32768	; 0x8000
 80051d8:	609a      	str	r2, [r3, #8]

  /* Configure I2Cx: Own Address1 and ack own address1 mode */
  if (hi2c->Init.AddressingMode == I2C_ADDRESSINGMODE_7BIT)
 80051da:	687b      	ldr	r3, [r7, #4]
 80051dc:	68db      	ldr	r3, [r3, #12]
 80051de:	2b01      	cmp	r3, #1
 80051e0:	d107      	bne.n	80051f2 <HAL_I2C_Init+0x7a>
  {
    hi2c->Instance->OAR1 = (I2C_OAR1_OA1EN | hi2c->Init.OwnAddress1);
 80051e2:	687b      	ldr	r3, [r7, #4]
 80051e4:	689a      	ldr	r2, [r3, #8]
 80051e6:	687b      	ldr	r3, [r7, #4]
 80051e8:	681b      	ldr	r3, [r3, #0]
 80051ea:	f442 4200 	orr.w	r2, r2, #32768	; 0x8000
 80051ee:	609a      	str	r2, [r3, #8]
 80051f0:	e006      	b.n	8005200 <HAL_I2C_Init+0x88>
  }
  else /* I2C_ADDRESSINGMODE_10BIT */
  {
    hi2c->Instance->OAR1 = (I2C_OAR1_OA1EN | I2C_OAR1_OA1MODE | hi2c->Init.OwnAddress1);
 80051f2:	687b      	ldr	r3, [r7, #4]
 80051f4:	689a      	ldr	r2, [r3, #8]
 80051f6:	687b      	ldr	r3, [r7, #4]
 80051f8:	681b      	ldr	r3, [r3, #0]
 80051fa:	f442 4204 	orr.w	r2, r2, #33792	; 0x8400
 80051fe:	609a      	str	r2, [r3, #8]
  }

  /*---------------------------- I2Cx CR2 Configuration ----------------------*/
  /* Configure I2Cx: Addressing Master mode */
  if (hi2c->Init.AddressingMode == I2C_ADDRESSINGMODE_10BIT)
 8005200:	687b      	ldr	r3, [r7, #4]
 8005202:	68db      	ldr	r3, [r3, #12]
 8005204:	2b02      	cmp	r3, #2
 8005206:	d104      	bne.n	8005212 <HAL_I2C_Init+0x9a>
  {
    hi2c->Instance->CR2 = (I2C_CR2_ADD10);
 8005208:	687b      	ldr	r3, [r7, #4]
 800520a:	681b      	ldr	r3, [r3, #0]
 800520c:	f44f 6200 	mov.w	r2, #2048	; 0x800
 8005210:	605a      	str	r2, [r3, #4]
  }
  /* Enable the AUTOEND by default, and enable NACK (should be disable only during Slave process */
  hi2c->Instance->CR2 |= (I2C_CR2_AUTOEND | I2C_CR2_NACK);
 8005212:	687b      	ldr	r3, [r7, #4]
 8005214:	681b      	ldr	r3, [r3, #0]
 8005216:	685b      	ldr	r3, [r3, #4]
 8005218:	687a      	ldr	r2, [r7, #4]
 800521a:	6812      	ldr	r2, [r2, #0]
 800521c:	f043 7300 	orr.w	r3, r3, #33554432	; 0x2000000
 8005220:	f443 4300 	orr.w	r3, r3, #32768	; 0x8000
 8005224:	6053      	str	r3, [r2, #4]

  /*---------------------------- I2Cx OAR2 Configuration ---------------------*/
  /* Disable Own Address2 before set the Own Address2 configuration */
  hi2c->Instance->OAR2 &= ~I2C_DUALADDRESS_ENABLE;
 8005226:	687b      	ldr	r3, [r7, #4]
 8005228:	681b      	ldr	r3, [r3, #0]
 800522a:	68da      	ldr	r2, [r3, #12]
 800522c:	687b      	ldr	r3, [r7, #4]
 800522e:	681b      	ldr	r3, [r3, #0]
 8005230:	f422 4200 	bic.w	r2, r2, #32768	; 0x8000
 8005234:	60da      	str	r2, [r3, #12]

  /* Configure I2Cx: Dual mode and Own Address2 */
  hi2c->Instance->OAR2 = (hi2c->Init.DualAddressMode | hi2c->Init.OwnAddress2 | (hi2c->Init.OwnAddress2Masks << 8));
 8005236:	687b      	ldr	r3, [r7, #4]
 8005238:	691a      	ldr	r2, [r3, #16]
 800523a:	687b      	ldr	r3, [r7, #4]
 800523c:	695b      	ldr	r3, [r3, #20]
 800523e:	ea42 0103 	orr.w	r1, r2, r3
 8005242:	687b      	ldr	r3, [r7, #4]
 8005244:	699b      	ldr	r3, [r3, #24]
 8005246:	021a      	lsls	r2, r3, #8
 8005248:	687b      	ldr	r3, [r7, #4]
 800524a:	681b      	ldr	r3, [r3, #0]
 800524c:	430a      	orrs	r2, r1
 800524e:	60da      	str	r2, [r3, #12]

  /*---------------------------- I2Cx CR1 Configuration ----------------------*/
  /* Configure I2Cx: Generalcall and NoStretch mode */
  hi2c->Instance->CR1 = (hi2c->Init.GeneralCallMode | hi2c->Init.NoStretchMode);
 8005250:	687b      	ldr	r3, [r7, #4]
 8005252:	69d9      	ldr	r1, [r3, #28]
 8005254:	687b      	ldr	r3, [r7, #4]
 8005256:	6a1a      	ldr	r2, [r3, #32]
 8005258:	687b      	ldr	r3, [r7, #4]
 800525a:	681b      	ldr	r3, [r3, #0]
 800525c:	430a      	orrs	r2, r1
 800525e:	601a      	str	r2, [r3, #0]

  /* Enable the selected I2C peripheral */
  __HAL_I2C_ENABLE(hi2c);
 8005260:	687b      	ldr	r3, [r7, #4]
 8005262:	681b      	ldr	r3, [r3, #0]
 8005264:	681a      	ldr	r2, [r3, #0]
 8005266:	687b      	ldr	r3, [r7, #4]
 8005268:	681b      	ldr	r3, [r3, #0]
 800526a:	f042 0201 	orr.w	r2, r2, #1
 800526e:	601a      	str	r2, [r3, #0]

  hi2c->ErrorCode = HAL_I2C_ERROR_NONE;
 8005270:	687b      	ldr	r3, [r7, #4]
 8005272:	2200      	movs	r2, #0
 8005274:	645a      	str	r2, [r3, #68]	; 0x44
  hi2c->State = HAL_I2C_STATE_READY;
 8005276:	687b      	ldr	r3, [r7, #4]
 8005278:	2220      	movs	r2, #32
 800527a:	f883 2041 	strb.w	r2, [r3, #65]	; 0x41
  hi2c->PreviousState = I2C_STATE_NONE;
 800527e:	687b      	ldr	r3, [r7, #4]
 8005280:	2200      	movs	r2, #0
 8005282:	631a      	str	r2, [r3, #48]	; 0x30
  hi2c->Mode = HAL_I2C_MODE_NONE;
 8005284:	687b      	ldr	r3, [r7, #4]
 8005286:	2200      	movs	r2, #0
 8005288:	f883 2042 	strb.w	r2, [r3, #66]	; 0x42

  return HAL_OK;
 800528c:	2300      	movs	r3, #0
}
 800528e:	4618      	mov	r0, r3
 8005290:	3708      	adds	r7, #8
 8005292:	46bd      	mov	sp, r7
 8005294:	bd80      	pop	{r7, pc}
	...

08005298 <HAL_I2C_Master_Transmit>:
  * @param  Timeout Timeout duration
  * @retval HAL status
  */
HAL_StatusTypeDef HAL_I2C_Master_Transmit(I2C_HandleTypeDef *hi2c, uint16_t DevAddress, uint8_t *pData, uint16_t Size,
                                          uint32_t Timeout)
{
 8005298:	b580      	push	{r7, lr}
 800529a:	b088      	sub	sp, #32
 800529c:	af02      	add	r7, sp, #8
 800529e:	60f8      	str	r0, [r7, #12]
 80052a0:	607a      	str	r2, [r7, #4]
 80052a2:	461a      	mov	r2, r3
 80052a4:	460b      	mov	r3, r1
 80052a6:	817b      	strh	r3, [r7, #10]
 80052a8:	4613      	mov	r3, r2
 80052aa:	813b      	strh	r3, [r7, #8]
  uint32_t tickstart;

  if (hi2c->State == HAL_I2C_STATE_READY)
 80052ac:	68fb      	ldr	r3, [r7, #12]
 80052ae:	f893 3041 	ldrb.w	r3, [r3, #65]	; 0x41
 80052b2:	b2db      	uxtb	r3, r3
 80052b4:	2b20      	cmp	r3, #32
 80052b6:	f040 80da 	bne.w	800546e <HAL_I2C_Master_Transmit+0x1d6>
  {
    /* Process Locked */
    __HAL_LOCK(hi2c);
 80052ba:	68fb      	ldr	r3, [r7, #12]
 80052bc:	f893 3040 	ldrb.w	r3, [r3, #64]	; 0x40
 80052c0:	2b01      	cmp	r3, #1
 80052c2:	d101      	bne.n	80052c8 <HAL_I2C_Master_Transmit+0x30>
 80052c4:	2302      	movs	r3, #2
 80052c6:	e0d3      	b.n	8005470 <HAL_I2C_Master_Transmit+0x1d8>
 80052c8:	68fb      	ldr	r3, [r7, #12]
 80052ca:	2201      	movs	r2, #1
 80052cc:	f883 2040 	strb.w	r2, [r3, #64]	; 0x40

    /* Init tickstart for timeout management*/
    tickstart = HAL_GetTick();
 80052d0:	f7fd ff5e 	bl	8003190 <HAL_GetTick>
 80052d4:	6178      	str	r0, [r7, #20]

    if (I2C_WaitOnFlagUntilTimeout(hi2c, I2C_FLAG_BUSY, SET, I2C_TIMEOUT_BUSY, tickstart) != HAL_OK)
 80052d6:	697b      	ldr	r3, [r7, #20]
 80052d8:	9300      	str	r3, [sp, #0]
 80052da:	2319      	movs	r3, #25
 80052dc:	2201      	movs	r2, #1
 80052de:	f44f 4100 	mov.w	r1, #32768	; 0x8000
 80052e2:	68f8      	ldr	r0, [r7, #12]
 80052e4:	f000 fa1f 	bl	8005726 <I2C_WaitOnFlagUntilTimeout>
 80052e8:	4603      	mov	r3, r0
 80052ea:	2b00      	cmp	r3, #0
 80052ec:	d001      	beq.n	80052f2 <HAL_I2C_Master_Transmit+0x5a>
    {
      return HAL_ERROR;
 80052ee:	2301      	movs	r3, #1
 80052f0:	e0be      	b.n	8005470 <HAL_I2C_Master_Transmit+0x1d8>
    }

    hi2c->State     = HAL_I2C_STATE_BUSY_TX;
 80052f2:	68fb      	ldr	r3, [r7, #12]
 80052f4:	2221      	movs	r2, #33	; 0x21
 80052f6:	f883 2041 	strb.w	r2, [r3, #65]	; 0x41
    hi2c->Mode      = HAL_I2C_MODE_MASTER;
 80052fa:	68fb      	ldr	r3, [r7, #12]
 80052fc:	2210      	movs	r2, #16
 80052fe:	f883 2042 	strb.w	r2, [r3, #66]	; 0x42
    hi2c->ErrorCode = HAL_I2C_ERROR_NONE;
 8005302:	68fb      	ldr	r3, [r7, #12]
 8005304:	2200      	movs	r2, #0
 8005306:	645a      	str	r2, [r3, #68]	; 0x44

    /* Prepare transfer parameters */
    hi2c->pBuffPtr  = pData;
 8005308:	68fb      	ldr	r3, [r7, #12]
 800530a:	687a      	ldr	r2, [r7, #4]
 800530c:	625a      	str	r2, [r3, #36]	; 0x24
    hi2c->XferCount = Size;
 800530e:	68fb      	ldr	r3, [r7, #12]
 8005310:	893a      	ldrh	r2, [r7, #8]
 8005312:	855a      	strh	r2, [r3, #42]	; 0x2a
    hi2c->XferISR   = NULL;
 8005314:	68fb      	ldr	r3, [r7, #12]
 8005316:	2200      	movs	r2, #0
 8005318:	635a      	str	r2, [r3, #52]	; 0x34

    /* Send Slave Address */
    /* Set NBYTES to write and reload if hi2c->XferCount > MAX_NBYTE_SIZE and generate RESTART */
    if (hi2c->XferCount > MAX_NBYTE_SIZE)
 800531a:	68fb      	ldr	r3, [r7, #12]
 800531c:	8d5b      	ldrh	r3, [r3, #42]	; 0x2a
 800531e:	b29b      	uxth	r3, r3
 8005320:	2bff      	cmp	r3, #255	; 0xff
 8005322:	d90e      	bls.n	8005342 <HAL_I2C_Master_Transmit+0xaa>
    {
      hi2c->XferSize = MAX_NBYTE_SIZE;
 8005324:	68fb      	ldr	r3, [r7, #12]
 8005326:	22ff      	movs	r2, #255	; 0xff
 8005328:	851a      	strh	r2, [r3, #40]	; 0x28
      I2C_TransferConfig(hi2c, DevAddress, (uint8_t)hi2c->XferSize, I2C_RELOAD_MODE, I2C_GENERATE_START_WRITE);
 800532a:	68fb      	ldr	r3, [r7, #12]
 800532c:	8d1b      	ldrh	r3, [r3, #40]	; 0x28
 800532e:	b2da      	uxtb	r2, r3
 8005330:	8979      	ldrh	r1, [r7, #10]
 8005332:	4b51      	ldr	r3, [pc, #324]	; (8005478 <HAL_I2C_Master_Transmit+0x1e0>)
 8005334:	9300      	str	r3, [sp, #0]
 8005336:	f04f 7380 	mov.w	r3, #16777216	; 0x1000000
 800533a:	68f8      	ldr	r0, [r7, #12]
 800533c:	f000 fb16 	bl	800596c <I2C_TransferConfig>
 8005340:	e06c      	b.n	800541c <HAL_I2C_Master_Transmit+0x184>
    }
    else
    {
      hi2c->XferSize = hi2c->XferCount;
 8005342:	68fb      	ldr	r3, [r7, #12]
 8005344:	8d5b      	ldrh	r3, [r3, #42]	; 0x2a
 8005346:	b29a      	uxth	r2, r3
 8005348:	68fb      	ldr	r3, [r7, #12]
 800534a:	851a      	strh	r2, [r3, #40]	; 0x28
      I2C_TransferConfig(hi2c, DevAddress, (uint8_t)hi2c->XferSize, I2C_AUTOEND_MODE, I2C_GENERATE_START_WRITE);
 800534c:	68fb      	ldr	r3, [r7, #12]
 800534e:	8d1b      	ldrh	r3, [r3, #40]	; 0x28
 8005350:	b2da      	uxtb	r2, r3
 8005352:	8979      	ldrh	r1, [r7, #10]
 8005354:	4b48      	ldr	r3, [pc, #288]	; (8005478 <HAL_I2C_Master_Transmit+0x1e0>)
 8005356:	9300      	str	r3, [sp, #0]
 8005358:	f04f 7300 	mov.w	r3, #33554432	; 0x2000000
 800535c:	68f8      	ldr	r0, [r7, #12]
 800535e:	f000 fb05 	bl	800596c <I2C_TransferConfig>
    }

    while (hi2c->XferCount > 0U)
 8005362:	e05b      	b.n	800541c <HAL_I2C_Master_Transmit+0x184>
    {
      /* Wait until TXIS flag is set */
      if (I2C_WaitOnTXISFlagUntilTimeout(hi2c, Timeout, tickstart) != HAL_OK)
 8005364:	697a      	ldr	r2, [r7, #20]
 8005366:	6a39      	ldr	r1, [r7, #32]
 8005368:	68f8      	ldr	r0, [r7, #12]
 800536a:	f000 fa1c 	bl	80057a6 <I2C_WaitOnTXISFlagUntilTimeout>
 800536e:	4603      	mov	r3, r0
 8005370:	2b00      	cmp	r3, #0
 8005372:	d001      	beq.n	8005378 <HAL_I2C_Master_Transmit+0xe0>
      {
        return HAL_ERROR;
 8005374:	2301      	movs	r3, #1
 8005376:	e07b      	b.n	8005470 <HAL_I2C_Master_Transmit+0x1d8>
      }
      /* Write data to TXDR */
      hi2c->Instance->TXDR = *hi2c->pBuffPtr;
 8005378:	68fb      	ldr	r3, [r7, #12]
 800537a:	6a5b      	ldr	r3, [r3, #36]	; 0x24
 800537c:	781a      	ldrb	r2, [r3, #0]
 800537e:	68fb      	ldr	r3, [r7, #12]
 8005380:	681b      	ldr	r3, [r3, #0]
 8005382:	629a      	str	r2, [r3, #40]	; 0x28

      /* Increment Buffer pointer */
      hi2c->pBuffPtr++;
 8005384:	68fb      	ldr	r3, [r7, #12]
 8005386:	6a5b      	ldr	r3, [r3, #36]	; 0x24
 8005388:	1c5a      	adds	r2, r3, #1
 800538a:	68fb      	ldr	r3, [r7, #12]
 800538c:	625a      	str	r2, [r3, #36]	; 0x24

      hi2c->XferCount--;
 800538e:	68fb      	ldr	r3, [r7, #12]
 8005390:	8d5b      	ldrh	r3, [r3, #42]	; 0x2a
 8005392:	b29b      	uxth	r3, r3
 8005394:	3b01      	subs	r3, #1
 8005396:	b29a      	uxth	r2, r3
 8005398:	68fb      	ldr	r3, [r7, #12]
 800539a:	855a      	strh	r2, [r3, #42]	; 0x2a
      hi2c->XferSize--;
 800539c:	68fb      	ldr	r3, [r7, #12]
 800539e:	8d1b      	ldrh	r3, [r3, #40]	; 0x28
 80053a0:	3b01      	subs	r3, #1
 80053a2:	b29a      	uxth	r2, r3
 80053a4:	68fb      	ldr	r3, [r7, #12]
 80053a6:	851a      	strh	r2, [r3, #40]	; 0x28

      if ((hi2c->XferCount != 0U) && (hi2c->XferSize == 0U))
 80053a8:	68fb      	ldr	r3, [r7, #12]
 80053aa:	8d5b      	ldrh	r3, [r3, #42]	; 0x2a
 80053ac:	b29b      	uxth	r3, r3
 80053ae:	2b00      	cmp	r3, #0
 80053b0:	d034      	beq.n	800541c <HAL_I2C_Master_Transmit+0x184>
 80053b2:	68fb      	ldr	r3, [r7, #12]
 80053b4:	8d1b      	ldrh	r3, [r3, #40]	; 0x28
 80053b6:	2b00      	cmp	r3, #0
 80053b8:	d130      	bne.n	800541c <HAL_I2C_Master_Transmit+0x184>
      {
        /* Wait until TCR flag is set */
        if (I2C_WaitOnFlagUntilTimeout(hi2c, I2C_FLAG_TCR, RESET, Timeout, tickstart) != HAL_OK)
 80053ba:	697b      	ldr	r3, [r7, #20]
 80053bc:	9300      	str	r3, [sp, #0]
 80053be:	6a3b      	ldr	r3, [r7, #32]
 80053c0:	2200      	movs	r2, #0
 80053c2:	2180      	movs	r1, #128	; 0x80
 80053c4:	68f8      	ldr	r0, [r7, #12]
 80053c6:	f000 f9ae 	bl	8005726 <I2C_WaitOnFlagUntilTimeout>
 80053ca:	4603      	mov	r3, r0
 80053cc:	2b00      	cmp	r3, #0
 80053ce:	d001      	beq.n	80053d4 <HAL_I2C_Master_Transmit+0x13c>
        {
          return HAL_ERROR;
 80053d0:	2301      	movs	r3, #1
 80053d2:	e04d      	b.n	8005470 <HAL_I2C_Master_Transmit+0x1d8>
        }

        if (hi2c->XferCount > MAX_NBYTE_SIZE)
 80053d4:	68fb      	ldr	r3, [r7, #12]
 80053d6:	8d5b      	ldrh	r3, [r3, #42]	; 0x2a
 80053d8:	b29b      	uxth	r3, r3
 80053da:	2bff      	cmp	r3, #255	; 0xff
 80053dc:	d90e      	bls.n	80053fc <HAL_I2C_Master_Transmit+0x164>
        {
          hi2c->XferSize = MAX_NBYTE_SIZE;
 80053de:	68fb      	ldr	r3, [r7, #12]
 80053e0:	22ff      	movs	r2, #255	; 0xff
 80053e2:	851a      	strh	r2, [r3, #40]	; 0x28
          I2C_TransferConfig(hi2c, DevAddress, (uint8_t)hi2c->XferSize, I2C_RELOAD_MODE, I2C_NO_STARTSTOP);
 80053e4:	68fb      	ldr	r3, [r7, #12]
 80053e6:	8d1b      	ldrh	r3, [r3, #40]	; 0x28
 80053e8:	b2da      	uxtb	r2, r3
 80053ea:	8979      	ldrh	r1, [r7, #10]
 80053ec:	2300      	movs	r3, #0
 80053ee:	9300      	str	r3, [sp, #0]
 80053f0:	f04f 7380 	mov.w	r3, #16777216	; 0x1000000
 80053f4:	68f8      	ldr	r0, [r7, #12]
 80053f6:	f000 fab9 	bl	800596c <I2C_TransferConfig>
 80053fa:	e00f      	b.n	800541c <HAL_I2C_Master_Transmit+0x184>
        }
        else
        {
          hi2c->XferSize = hi2c->XferCount;
 80053fc:	68fb      	ldr	r3, [r7, #12]
 80053fe:	8d5b      	ldrh	r3, [r3, #42]	; 0x2a
 8005400:	b29a      	uxth	r2, r3
 8005402:	68fb      	ldr	r3, [r7, #12]
 8005404:	851a      	strh	r2, [r3, #40]	; 0x28
          I2C_TransferConfig(hi2c, DevAddress, (uint8_t)hi2c->XferSize, I2C_AUTOEND_MODE, I2C_NO_STARTSTOP);
 8005406:	68fb      	ldr	r3, [r7, #12]
 8005408:	8d1b      	ldrh	r3, [r3, #40]	; 0x28
 800540a:	b2da      	uxtb	r2, r3
 800540c:	8979      	ldrh	r1, [r7, #10]
 800540e:	2300      	movs	r3, #0
 8005410:	9300      	str	r3, [sp, #0]
 8005412:	f04f 7300 	mov.w	r3, #33554432	; 0x2000000
 8005416:	68f8      	ldr	r0, [r7, #12]
 8005418:	f000 faa8 	bl	800596c <I2C_TransferConfig>
    while (hi2c->XferCount > 0U)
 800541c:	68fb      	ldr	r3, [r7, #12]
 800541e:	8d5b      	ldrh	r3, [r3, #42]	; 0x2a
 8005420:	b29b      	uxth	r3, r3
 8005422:	2b00      	cmp	r3, #0
 8005424:	d19e      	bne.n	8005364 <HAL_I2C_Master_Transmit+0xcc>
      }
    }

    /* No need to Check TC flag, with AUTOEND mode the stop is automatically generated */
    /* Wait until STOPF flag is set */
    if (I2C_WaitOnSTOPFlagUntilTimeout(hi2c, Timeout, tickstart) != HAL_OK)
 8005426:	697a      	ldr	r2, [r7, #20]
 8005428:	6a39      	ldr	r1, [r7, #32]
 800542a:	68f8      	ldr	r0, [r7, #12]
 800542c:	f000 f9fb 	bl	8005826 <I2C_WaitOnSTOPFlagUntilTimeout>
 8005430:	4603      	mov	r3, r0
 8005432:	2b00      	cmp	r3, #0
 8005434:	d001      	beq.n	800543a <HAL_I2C_Master_Transmit+0x1a2>
    {
      return HAL_ERROR;
 8005436:	2301      	movs	r3, #1
 8005438:	e01a      	b.n	8005470 <HAL_I2C_Master_Transmit+0x1d8>
    }

    /* Clear STOP Flag */
    __HAL_I2C_CLEAR_FLAG(hi2c, I2C_FLAG_STOPF);
 800543a:	68fb      	ldr	r3, [r7, #12]
 800543c:	681b      	ldr	r3, [r3, #0]
 800543e:	2220      	movs	r2, #32
 8005440:	61da      	str	r2, [r3, #28]

    /* Clear Configuration Register 2 */
    I2C_RESET_CR2(hi2c);
 8005442:	68fb      	ldr	r3, [r7, #12]
 8005444:	681b      	ldr	r3, [r3, #0]
 8005446:	6859      	ldr	r1, [r3, #4]
 8005448:	68fb      	ldr	r3, [r7, #12]
 800544a:	681a      	ldr	r2, [r3, #0]
 800544c:	4b0b      	ldr	r3, [pc, #44]	; (800547c <HAL_I2C_Master_Transmit+0x1e4>)
 800544e:	400b      	ands	r3, r1
 8005450:	6053      	str	r3, [r2, #4]

    hi2c->State = HAL_I2C_STATE_READY;
 8005452:	68fb      	ldr	r3, [r7, #12]
 8005454:	2220      	movs	r2, #32
 8005456:	f883 2041 	strb.w	r2, [r3, #65]	; 0x41
    hi2c->Mode  = HAL_I2C_MODE_NONE;
 800545a:	68fb      	ldr	r3, [r7, #12]
 800545c:	2200      	movs	r2, #0
 800545e:	f883 2042 	strb.w	r2, [r3, #66]	; 0x42

    /* Process Unlocked */
    __HAL_UNLOCK(hi2c);
 8005462:	68fb      	ldr	r3, [r7, #12]
 8005464:	2200      	movs	r2, #0
 8005466:	f883 2040 	strb.w	r2, [r3, #64]	; 0x40

    return HAL_OK;
 800546a:	2300      	movs	r3, #0
 800546c:	e000      	b.n	8005470 <HAL_I2C_Master_Transmit+0x1d8>
  }
  else
  {
    return HAL_BUSY;
 800546e:	2302      	movs	r3, #2
  }
}
 8005470:	4618      	mov	r0, r3
 8005472:	3718      	adds	r7, #24
 8005474:	46bd      	mov	sp, r7
 8005476:	bd80      	pop	{r7, pc}
 8005478:	80002000 	.word	0x80002000
 800547c:	fe00e800 	.word	0xfe00e800

08005480 <HAL_I2C_IsDeviceReady>:
  * @param  Trials Number of trials
  * @param  Timeout Timeout duration
  * @retval HAL status
  */
HAL_StatusTypeDef HAL_I2C_IsDeviceReady(I2C_HandleTypeDef *hi2c, uint16_t DevAddress, uint32_t Trials, uint32_t Timeout)
{
 8005480:	b580      	push	{r7, lr}
 8005482:	b08a      	sub	sp, #40	; 0x28
 8005484:	af02      	add	r7, sp, #8
 8005486:	60f8      	str	r0, [r7, #12]
 8005488:	607a      	str	r2, [r7, #4]
 800548a:	603b      	str	r3, [r7, #0]
 800548c:	460b      	mov	r3, r1
 800548e:	817b      	strh	r3, [r7, #10]
  uint32_t tickstart;

  __IO uint32_t I2C_Trials = 0UL;
 8005490:	2300      	movs	r3, #0
 8005492:	617b      	str	r3, [r7, #20]

  FlagStatus tmp1;
  FlagStatus tmp2;

  if (hi2c->State == HAL_I2C_STATE_READY)
 8005494:	68fb      	ldr	r3, [r7, #12]
 8005496:	f893 3041 	ldrb.w	r3, [r3, #65]	; 0x41
 800549a:	b2db      	uxtb	r3, r3
 800549c:	2b20      	cmp	r3, #32
 800549e:	f040 80f1 	bne.w	8005684 <HAL_I2C_IsDeviceReady+0x204>
  {
    if (__HAL_I2C_GET_FLAG(hi2c, I2C_FLAG_BUSY) == SET)
 80054a2:	68fb      	ldr	r3, [r7, #12]
 80054a4:	681b      	ldr	r3, [r3, #0]
 80054a6:	699b      	ldr	r3, [r3, #24]
 80054a8:	f403 4300 	and.w	r3, r3, #32768	; 0x8000
 80054ac:	f5b3 4f00 	cmp.w	r3, #32768	; 0x8000
 80054b0:	d101      	bne.n	80054b6 <HAL_I2C_IsDeviceReady+0x36>
    {
      return HAL_BUSY;
 80054b2:	2302      	movs	r3, #2
 80054b4:	e0e7      	b.n	8005686 <HAL_I2C_IsDeviceReady+0x206>
    }

    /* Process Locked */
    __HAL_LOCK(hi2c);
 80054b6:	68fb      	ldr	r3, [r7, #12]
 80054b8:	f893 3040 	ldrb.w	r3, [r3, #64]	; 0x40
 80054bc:	2b01      	cmp	r3, #1
 80054be:	d101      	bne.n	80054c4 <HAL_I2C_IsDeviceReady+0x44>
 80054c0:	2302      	movs	r3, #2
 80054c2:	e0e0      	b.n	8005686 <HAL_I2C_IsDeviceReady+0x206>
 80054c4:	68fb      	ldr	r3, [r7, #12]
 80054c6:	2201      	movs	r2, #1
 80054c8:	f883 2040 	strb.w	r2, [r3, #64]	; 0x40

    hi2c->State = HAL_I2C_STATE_BUSY;
 80054cc:	68fb      	ldr	r3, [r7, #12]
 80054ce:	2224      	movs	r2, #36	; 0x24
 80054d0:	f883 2041 	strb.w	r2, [r3, #65]	; 0x41
    hi2c->ErrorCode = HAL_I2C_ERROR_NONE;
 80054d4:	68fb      	ldr	r3, [r7, #12]
 80054d6:	2200      	movs	r2, #0
 80054d8:	645a      	str	r2, [r3, #68]	; 0x44

    do
    {
      /* Generate Start */
      hi2c->Instance->CR2 = I2C_GENERATE_START(hi2c->Init.AddressingMode, DevAddress);
 80054da:	68fb      	ldr	r3, [r7, #12]
 80054dc:	68db      	ldr	r3, [r3, #12]
 80054de:	2b01      	cmp	r3, #1
 80054e0:	d107      	bne.n	80054f2 <HAL_I2C_IsDeviceReady+0x72>
 80054e2:	897b      	ldrh	r3, [r7, #10]
 80054e4:	f3c3 0309 	ubfx	r3, r3, #0, #10
 80054e8:	f043 7300 	orr.w	r3, r3, #33554432	; 0x2000000
 80054ec:	f443 5300 	orr.w	r3, r3, #8192	; 0x2000
 80054f0:	e004      	b.n	80054fc <HAL_I2C_IsDeviceReady+0x7c>
 80054f2:	897b      	ldrh	r3, [r7, #10]
 80054f4:	f3c3 0309 	ubfx	r3, r3, #0, #10
 80054f8:	f443 5320 	orr.w	r3, r3, #10240	; 0x2800
 80054fc:	68fa      	ldr	r2, [r7, #12]
 80054fe:	6812      	ldr	r2, [r2, #0]
 8005500:	6053      	str	r3, [r2, #4]

      /* No need to Check TC flag, with AUTOEND mode the stop is automatically generated */
      /* Wait until STOPF flag is set or a NACK flag is set*/
      tickstart = HAL_GetTick();
 8005502:	f7fd fe45 	bl	8003190 <HAL_GetTick>
 8005506:	61b8      	str	r0, [r7, #24]

      tmp1 = __HAL_I2C_GET_FLAG(hi2c, I2C_FLAG_STOPF);
 8005508:	68fb      	ldr	r3, [r7, #12]
 800550a:	681b      	ldr	r3, [r3, #0]
 800550c:	699b      	ldr	r3, [r3, #24]
 800550e:	f003 0320 	and.w	r3, r3, #32
 8005512:	2b20      	cmp	r3, #32
 8005514:	bf0c      	ite	eq
 8005516:	2301      	moveq	r3, #1
 8005518:	2300      	movne	r3, #0
 800551a:	b2db      	uxtb	r3, r3
 800551c:	77fb      	strb	r3, [r7, #31]
      tmp2 = __HAL_I2C_GET_FLAG(hi2c, I2C_FLAG_AF);
 800551e:	68fb      	ldr	r3, [r7, #12]
 8005520:	681b      	ldr	r3, [r3, #0]
 8005522:	699b      	ldr	r3, [r3, #24]
 8005524:	f003 0310 	and.w	r3, r3, #16
 8005528:	2b10      	cmp	r3, #16
 800552a:	bf0c      	ite	eq
 800552c:	2301      	moveq	r3, #1
 800552e:	2300      	movne	r3, #0
 8005530:	b2db      	uxtb	r3, r3
 8005532:	77bb      	strb	r3, [r7, #30]

      while ((tmp1 == RESET) && (tmp2 == RESET))
 8005534:	e034      	b.n	80055a0 <HAL_I2C_IsDeviceReady+0x120>
      {
        if (Timeout != HAL_MAX_DELAY)
 8005536:	683b      	ldr	r3, [r7, #0]
 8005538:	f1b3 3fff 	cmp.w	r3, #4294967295	; 0xffffffff
 800553c:	d01a      	beq.n	8005574 <HAL_I2C_IsDeviceReady+0xf4>
        {
          if (((HAL_GetTick() - tickstart) > Timeout) || (Timeout == 0U))
 800553e:	f7fd fe27 	bl	8003190 <HAL_GetTick>
 8005542:	4602      	mov	r2, r0
 8005544:	69bb      	ldr	r3, [r7, #24]
 8005546:	1ad3      	subs	r3, r2, r3
 8005548:	683a      	ldr	r2, [r7, #0]
 800554a:	429a      	cmp	r2, r3
 800554c:	d302      	bcc.n	8005554 <HAL_I2C_IsDeviceReady+0xd4>
 800554e:	683b      	ldr	r3, [r7, #0]
 8005550:	2b00      	cmp	r3, #0
 8005552:	d10f      	bne.n	8005574 <HAL_I2C_IsDeviceReady+0xf4>
          {
            /* Update I2C state */
            hi2c->State = HAL_I2C_STATE_READY;
 8005554:	68fb      	ldr	r3, [r7, #12]
 8005556:	2220      	movs	r2, #32
 8005558:	f883 2041 	strb.w	r2, [r3, #65]	; 0x41

            /* Update I2C error code */
            hi2c->ErrorCode |= HAL_I2C_ERROR_TIMEOUT;
 800555c:	68fb      	ldr	r3, [r7, #12]
 800555e:	6c5b      	ldr	r3, [r3, #68]	; 0x44
 8005560:	f043 0220 	orr.w	r2, r3, #32
 8005564:	68fb      	ldr	r3, [r7, #12]
 8005566:	645a      	str	r2, [r3, #68]	; 0x44

            /* Process Unlocked */
            __HAL_UNLOCK(hi2c);
 8005568:	68fb      	ldr	r3, [r7, #12]
 800556a:	2200      	movs	r2, #0
 800556c:	f883 2040 	strb.w	r2, [r3, #64]	; 0x40

            return HAL_ERROR;
 8005570:	2301      	movs	r3, #1
 8005572:	e088      	b.n	8005686 <HAL_I2C_IsDeviceReady+0x206>
          }
        }

        tmp1 = __HAL_I2C_GET_FLAG(hi2c, I2C_FLAG_STOPF);
 8005574:	68fb      	ldr	r3, [r7, #12]
 8005576:	681b      	ldr	r3, [r3, #0]
 8005578:	699b      	ldr	r3, [r3, #24]
 800557a:	f003 0320 	and.w	r3, r3, #32
 800557e:	2b20      	cmp	r3, #32
 8005580:	bf0c      	ite	eq
 8005582:	2301      	moveq	r3, #1
 8005584:	2300      	movne	r3, #0
 8005586:	b2db      	uxtb	r3, r3
 8005588:	77fb      	strb	r3, [r7, #31]
        tmp2 = __HAL_I2C_GET_FLAG(hi2c, I2C_FLAG_AF);
 800558a:	68fb      	ldr	r3, [r7, #12]
 800558c:	681b      	ldr	r3, [r3, #0]
 800558e:	699b      	ldr	r3, [r3, #24]
 8005590:	f003 0310 	and.w	r3, r3, #16
 8005594:	2b10      	cmp	r3, #16
 8005596:	bf0c      	ite	eq
 8005598:	2301      	moveq	r3, #1
 800559a:	2300      	movne	r3, #0
 800559c:	b2db      	uxtb	r3, r3
 800559e:	77bb      	strb	r3, [r7, #30]
      while ((tmp1 == RESET) && (tmp2 == RESET))
 80055a0:	7ffb      	ldrb	r3, [r7, #31]
 80055a2:	2b00      	cmp	r3, #0
 80055a4:	d102      	bne.n	80055ac <HAL_I2C_IsDeviceReady+0x12c>
 80055a6:	7fbb      	ldrb	r3, [r7, #30]
 80055a8:	2b00      	cmp	r3, #0
 80055aa:	d0c4      	beq.n	8005536 <HAL_I2C_IsDeviceReady+0xb6>
      }

      /* Check if the NACKF flag has not been set */
      if (__HAL_I2C_GET_FLAG(hi2c, I2C_FLAG_AF) == RESET)
 80055ac:	68fb      	ldr	r3, [r7, #12]
 80055ae:	681b      	ldr	r3, [r3, #0]
 80055b0:	699b      	ldr	r3, [r3, #24]
 80055b2:	f003 0310 	and.w	r3, r3, #16
 80055b6:	2b10      	cmp	r3, #16
 80055b8:	d01a      	beq.n	80055f0 <HAL_I2C_IsDeviceReady+0x170>
      {
        /* Wait until STOPF flag is reset */
        if (I2C_WaitOnFlagUntilTimeout(hi2c, I2C_FLAG_STOPF, RESET, Timeout, tickstart) != HAL_OK)
 80055ba:	69bb      	ldr	r3, [r7, #24]
 80055bc:	9300      	str	r3, [sp, #0]
 80055be:	683b      	ldr	r3, [r7, #0]
 80055c0:	2200      	movs	r2, #0
 80055c2:	2120      	movs	r1, #32
 80055c4:	68f8      	ldr	r0, [r7, #12]
 80055c6:	f000 f8ae 	bl	8005726 <I2C_WaitOnFlagUntilTimeout>
 80055ca:	4603      	mov	r3, r0
 80055cc:	2b00      	cmp	r3, #0
 80055ce:	d001      	beq.n	80055d4 <HAL_I2C_IsDeviceReady+0x154>
        {
          return HAL_ERROR;
 80055d0:	2301      	movs	r3, #1
 80055d2:	e058      	b.n	8005686 <HAL_I2C_IsDeviceReady+0x206>
        }

        /* Clear STOP Flag */
        __HAL_I2C_CLEAR_FLAG(hi2c, I2C_FLAG_STOPF);
 80055d4:	68fb      	ldr	r3, [r7, #12]
 80055d6:	681b      	ldr	r3, [r3, #0]
 80055d8:	2220      	movs	r2, #32
 80055da:	61da      	str	r2, [r3, #28]

        /* Device is ready */
        hi2c->State = HAL_I2C_STATE_READY;
 80055dc:	68fb      	ldr	r3, [r7, #12]
 80055de:	2220      	movs	r2, #32
 80055e0:	f883 2041 	strb.w	r2, [r3, #65]	; 0x41

        /* Process Unlocked */
        __HAL_UNLOCK(hi2c);
 80055e4:	68fb      	ldr	r3, [r7, #12]
 80055e6:	2200      	movs	r2, #0
 80055e8:	f883 2040 	strb.w	r2, [r3, #64]	; 0x40

        return HAL_OK;
 80055ec:	2300      	movs	r3, #0
 80055ee:	e04a      	b.n	8005686 <HAL_I2C_IsDeviceReady+0x206>
      }
      else
      {
        /* Wait until STOPF flag is reset */
        if (I2C_WaitOnFlagUntilTimeout(hi2c, I2C_FLAG_STOPF, RESET, Timeout, tickstart) != HAL_OK)
 80055f0:	69bb      	ldr	r3, [r7, #24]
 80055f2:	9300      	str	r3, [sp, #0]
 80055f4:	683b      	ldr	r3, [r7, #0]
 80055f6:	2200      	movs	r2, #0
 80055f8:	2120      	movs	r1, #32
 80055fa:	68f8      	ldr	r0, [r7, #12]
 80055fc:	f000 f893 	bl	8005726 <I2C_WaitOnFlagUntilTimeout>
 8005600:	4603      	mov	r3, r0
 8005602:	2b00      	cmp	r3, #0
 8005604:	d001      	beq.n	800560a <HAL_I2C_IsDeviceReady+0x18a>
        {
          return HAL_ERROR;
 8005606:	2301      	movs	r3, #1
 8005608:	e03d      	b.n	8005686 <HAL_I2C_IsDeviceReady+0x206>
        }

        /* Clear NACK Flag */
        __HAL_I2C_CLEAR_FLAG(hi2c, I2C_FLAG_AF);
 800560a:	68fb      	ldr	r3, [r7, #12]
 800560c:	681b      	ldr	r3, [r3, #0]
 800560e:	2210      	movs	r2, #16
 8005610:	61da      	str	r2, [r3, #28]

        /* Clear STOP Flag, auto generated with autoend*/
        __HAL_I2C_CLEAR_FLAG(hi2c, I2C_FLAG_STOPF);
 8005612:	68fb      	ldr	r3, [r7, #12]
 8005614:	681b      	ldr	r3, [r3, #0]
 8005616:	2220      	movs	r2, #32
 8005618:	61da      	str	r2, [r3, #28]
      }

      /* Check if the maximum allowed number of trials has been reached */
      if (I2C_Trials == Trials)
 800561a:	697b      	ldr	r3, [r7, #20]
 800561c:	687a      	ldr	r2, [r7, #4]
 800561e:	429a      	cmp	r2, r3
 8005620:	d118      	bne.n	8005654 <HAL_I2C_IsDeviceReady+0x1d4>
      {
        /* Generate Stop */
        hi2c->Instance->CR2 |= I2C_CR2_STOP;
 8005622:	68fb      	ldr	r3, [r7, #12]
 8005624:	681b      	ldr	r3, [r3, #0]
 8005626:	685a      	ldr	r2, [r3, #4]
 8005628:	68fb      	ldr	r3, [r7, #12]
 800562a:	681b      	ldr	r3, [r3, #0]
 800562c:	f442 4280 	orr.w	r2, r2, #16384	; 0x4000
 8005630:	605a      	str	r2, [r3, #4]

        /* Wait until STOPF flag is reset */
        if (I2C_WaitOnFlagUntilTimeout(hi2c, I2C_FLAG_STOPF, RESET, Timeout, tickstart) != HAL_OK)
 8005632:	69bb      	ldr	r3, [r7, #24]
 8005634:	9300      	str	r3, [sp, #0]
 8005636:	683b      	ldr	r3, [r7, #0]
 8005638:	2200      	movs	r2, #0
 800563a:	2120      	movs	r1, #32
 800563c:	68f8      	ldr	r0, [r7, #12]
 800563e:	f000 f872 	bl	8005726 <I2C_WaitOnFlagUntilTimeout>
 8005642:	4603      	mov	r3, r0
 8005644:	2b00      	cmp	r3, #0
 8005646:	d001      	beq.n	800564c <HAL_I2C_IsDeviceReady+0x1cc>
        {
          return HAL_ERROR;
 8005648:	2301      	movs	r3, #1
 800564a:	e01c      	b.n	8005686 <HAL_I2C_IsDeviceReady+0x206>
        }

        /* Clear STOP Flag */
        __HAL_I2C_CLEAR_FLAG(hi2c, I2C_FLAG_STOPF);
 800564c:	68fb      	ldr	r3, [r7, #12]
 800564e:	681b      	ldr	r3, [r3, #0]
 8005650:	2220      	movs	r2, #32
 8005652:	61da      	str	r2, [r3, #28]
      }

      /* Increment Trials */
      I2C_Trials++;
 8005654:	697b      	ldr	r3, [r7, #20]
 8005656:	3301      	adds	r3, #1
 8005658:	617b      	str	r3, [r7, #20]
    } while (I2C_Trials < Trials);
 800565a:	697b      	ldr	r3, [r7, #20]
 800565c:	687a      	ldr	r2, [r7, #4]
 800565e:	429a      	cmp	r2, r3
 8005660:	f63f af3b 	bhi.w	80054da <HAL_I2C_IsDeviceReady+0x5a>

    /* Update I2C state */
    hi2c->State = HAL_I2C_STATE_READY;
 8005664:	68fb      	ldr	r3, [r7, #12]
 8005666:	2220      	movs	r2, #32
 8005668:	f883 2041 	strb.w	r2, [r3, #65]	; 0x41

    /* Update I2C error code */
    hi2c->ErrorCode |= HAL_I2C_ERROR_TIMEOUT;
 800566c:	68fb      	ldr	r3, [r7, #12]
 800566e:	6c5b      	ldr	r3, [r3, #68]	; 0x44
 8005670:	f043 0220 	orr.w	r2, r3, #32
 8005674:	68fb      	ldr	r3, [r7, #12]
 8005676:	645a      	str	r2, [r3, #68]	; 0x44

    /* Process Unlocked */
    __HAL_UNLOCK(hi2c);
 8005678:	68fb      	ldr	r3, [r7, #12]
 800567a:	2200      	movs	r2, #0
 800567c:	f883 2040 	strb.w	r2, [r3, #64]	; 0x40

    return HAL_ERROR;
 8005680:	2301      	movs	r3, #1
 8005682:	e000      	b.n	8005686 <HAL_I2C_IsDeviceReady+0x206>
  }
  else
  {
    return HAL_BUSY;
 8005684:	2302      	movs	r3, #2
  }
}
 8005686:	4618      	mov	r0, r3
 8005688:	3720      	adds	r7, #32
 800568a:	46bd      	mov	sp, r7
 800568c:	bd80      	pop	{r7, pc}

0800568e <HAL_I2C_EV_IRQHandler>:
  * @param  hi2c Pointer to a I2C_HandleTypeDef structure that contains
  *                the configuration information for the specified I2C.
  * @retval None
  */
void HAL_I2C_EV_IRQHandler(I2C_HandleTypeDef *hi2c)
{
 800568e:	b580      	push	{r7, lr}
 8005690:	b084      	sub	sp, #16
 8005692:	af00      	add	r7, sp, #0
 8005694:	6078      	str	r0, [r7, #4]
  /* Get current IT Flags and IT sources value */
  uint32_t itflags   = READ_REG(hi2c->Instance->ISR);
 8005696:	687b      	ldr	r3, [r7, #4]
 8005698:	681b      	ldr	r3, [r3, #0]
 800569a:	699b      	ldr	r3, [r3, #24]
 800569c:	60fb      	str	r3, [r7, #12]
  uint32_t itsources = READ_REG(hi2c->Instance->CR1);
 800569e:	687b      	ldr	r3, [r7, #4]
 80056a0:	681b      	ldr	r3, [r3, #0]
 80056a2:	681b      	ldr	r3, [r3, #0]
 80056a4:	60bb      	str	r3, [r7, #8]

  /* I2C events treatment -------------------------------------*/
  if (hi2c->XferISR != NULL)
 80056a6:	687b      	ldr	r3, [r7, #4]
 80056a8:	6b5b      	ldr	r3, [r3, #52]	; 0x34
 80056aa:	2b00      	cmp	r3, #0
 80056ac:	d005      	beq.n	80056ba <HAL_I2C_EV_IRQHandler+0x2c>
  {
    hi2c->XferISR(hi2c, itflags, itsources);
 80056ae:	687b      	ldr	r3, [r7, #4]
 80056b0:	6b5b      	ldr	r3, [r3, #52]	; 0x34
 80056b2:	68ba      	ldr	r2, [r7, #8]
 80056b4:	68f9      	ldr	r1, [r7, #12]
 80056b6:	6878      	ldr	r0, [r7, #4]
 80056b8:	4798      	blx	r3
  }
}
 80056ba:	bf00      	nop
 80056bc:	3710      	adds	r7, #16
 80056be:	46bd      	mov	sp, r7
 80056c0:	bd80      	pop	{r7, pc}

080056c2 <HAL_I2C_GetState>:
  * @param  hi2c Pointer to a I2C_HandleTypeDef structure that contains
  *                the configuration information for the specified I2C.
  * @retval HAL state
  */
HAL_I2C_StateTypeDef HAL_I2C_GetState(I2C_HandleTypeDef *hi2c)
{
 80056c2:	b480      	push	{r7}
 80056c4:	b083      	sub	sp, #12
 80056c6:	af00      	add	r7, sp, #0
 80056c8:	6078      	str	r0, [r7, #4]
  /* Return I2C handle state */
  return hi2c->State;
 80056ca:	687b      	ldr	r3, [r7, #4]
 80056cc:	f893 3041 	ldrb.w	r3, [r3, #65]	; 0x41
 80056d0:	b2db      	uxtb	r3, r3
}
 80056d2:	4618      	mov	r0, r3
 80056d4:	370c      	adds	r7, #12
 80056d6:	46bd      	mov	sp, r7
 80056d8:	f85d 7b04 	ldr.w	r7, [sp], #4
 80056dc:	4770      	bx	lr

080056de <I2C_Flush_TXDR>:
  * @brief  I2C Tx data register flush process.
  * @param  hi2c I2C handle.
  * @retval None
  */
static void I2C_Flush_TXDR(I2C_HandleTypeDef *hi2c)
{
 80056de:	b480      	push	{r7}
 80056e0:	b083      	sub	sp, #12
 80056e2:	af00      	add	r7, sp, #0
 80056e4:	6078      	str	r0, [r7, #4]
  /* If a pending TXIS flag is set */
  /* Write a dummy data in TXDR to clear it */
  if (__HAL_I2C_GET_FLAG(hi2c, I2C_FLAG_TXIS) != RESET)
 80056e6:	687b      	ldr	r3, [r7, #4]
 80056e8:	681b      	ldr	r3, [r3, #0]
 80056ea:	699b      	ldr	r3, [r3, #24]
 80056ec:	f003 0302 	and.w	r3, r3, #2
 80056f0:	2b02      	cmp	r3, #2
 80056f2:	d103      	bne.n	80056fc <I2C_Flush_TXDR+0x1e>
  {
    hi2c->Instance->TXDR = 0x00U;
 80056f4:	687b      	ldr	r3, [r7, #4]
 80056f6:	681b      	ldr	r3, [r3, #0]
 80056f8:	2200      	movs	r2, #0
 80056fa:	629a      	str	r2, [r3, #40]	; 0x28
  }

  /* Flush TX register if not empty */
  if (__HAL_I2C_GET_FLAG(hi2c, I2C_FLAG_TXE) == RESET)
 80056fc:	687b      	ldr	r3, [r7, #4]
 80056fe:	681b      	ldr	r3, [r3, #0]
 8005700:	699b      	ldr	r3, [r3, #24]
 8005702:	f003 0301 	and.w	r3, r3, #1
 8005706:	2b01      	cmp	r3, #1
 8005708:	d007      	beq.n	800571a <I2C_Flush_TXDR+0x3c>
  {
    __HAL_I2C_CLEAR_FLAG(hi2c, I2C_FLAG_TXE);
 800570a:	687b      	ldr	r3, [r7, #4]
 800570c:	681b      	ldr	r3, [r3, #0]
 800570e:	699a      	ldr	r2, [r3, #24]
 8005710:	687b      	ldr	r3, [r7, #4]
 8005712:	681b      	ldr	r3, [r3, #0]
 8005714:	f042 0201 	orr.w	r2, r2, #1
 8005718:	619a      	str	r2, [r3, #24]
  }
}
 800571a:	bf00      	nop
 800571c:	370c      	adds	r7, #12
 800571e:	46bd      	mov	sp, r7
 8005720:	f85d 7b04 	ldr.w	r7, [sp], #4
 8005724:	4770      	bx	lr

08005726 <I2C_WaitOnFlagUntilTimeout>:
  * @param  Tickstart Tick start value
  * @retval HAL status
  */
static HAL_StatusTypeDef I2C_WaitOnFlagUntilTimeout(I2C_HandleTypeDef *hi2c, uint32_t Flag, FlagStatus Status,
                                                    uint32_t Timeout, uint32_t Tickstart)
{
 8005726:	b580      	push	{r7, lr}
 8005728:	b084      	sub	sp, #16
 800572a:	af00      	add	r7, sp, #0
 800572c:	60f8      	str	r0, [r7, #12]
 800572e:	60b9      	str	r1, [r7, #8]
 8005730:	603b      	str	r3, [r7, #0]
 8005732:	4613      	mov	r3, r2
 8005734:	71fb      	strb	r3, [r7, #7]
  while (__HAL_I2C_GET_FLAG(hi2c, Flag) == Status)
 8005736:	e022      	b.n	800577e <I2C_WaitOnFlagUntilTimeout+0x58>
  {
    /* Check for the Timeout */
    if (Timeout != HAL_MAX_DELAY)
 8005738:	683b      	ldr	r3, [r7, #0]
 800573a:	f1b3 3fff 	cmp.w	r3, #4294967295	; 0xffffffff
 800573e:	d01e      	beq.n	800577e <I2C_WaitOnFlagUntilTimeout+0x58>
    {
      if (((HAL_GetTick() - Tickstart) > Timeout) || (Timeout == 0U))
 8005740:	f7fd fd26 	bl	8003190 <HAL_GetTick>
 8005744:	4602      	mov	r2, r0
 8005746:	69bb      	ldr	r3, [r7, #24]
 8005748:	1ad3      	subs	r3, r2, r3
 800574a:	683a      	ldr	r2, [r7, #0]
 800574c:	429a      	cmp	r2, r3
 800574e:	d302      	bcc.n	8005756 <I2C_WaitOnFlagUntilTimeout+0x30>
 8005750:	683b      	ldr	r3, [r7, #0]
 8005752:	2b00      	cmp	r3, #0
 8005754:	d113      	bne.n	800577e <I2C_WaitOnFlagUntilTimeout+0x58>
      {
        hi2c->ErrorCode |= HAL_I2C_ERROR_TIMEOUT;
 8005756:	68fb      	ldr	r3, [r7, #12]
 8005758:	6c5b      	ldr	r3, [r3, #68]	; 0x44
 800575a:	f043 0220 	orr.w	r2, r3, #32
 800575e:	68fb      	ldr	r3, [r7, #12]
 8005760:	645a      	str	r2, [r3, #68]	; 0x44
        hi2c->State = HAL_I2C_STATE_READY;
 8005762:	68fb      	ldr	r3, [r7, #12]
 8005764:	2220      	movs	r2, #32
 8005766:	f883 2041 	strb.w	r2, [r3, #65]	; 0x41
        hi2c->Mode = HAL_I2C_MODE_NONE;
 800576a:	68fb      	ldr	r3, [r7, #12]
 800576c:	2200      	movs	r2, #0
 800576e:	f883 2042 	strb.w	r2, [r3, #66]	; 0x42

        /* Process Unlocked */
        __HAL_UNLOCK(hi2c);
 8005772:	68fb      	ldr	r3, [r7, #12]
 8005774:	2200      	movs	r2, #0
 8005776:	f883 2040 	strb.w	r2, [r3, #64]	; 0x40
        return HAL_ERROR;
 800577a:	2301      	movs	r3, #1
 800577c:	e00f      	b.n	800579e <I2C_WaitOnFlagUntilTimeout+0x78>
  while (__HAL_I2C_GET_FLAG(hi2c, Flag) == Status)
 800577e:	68fb      	ldr	r3, [r7, #12]
 8005780:	681b      	ldr	r3, [r3, #0]
 8005782:	699a      	ldr	r2, [r3, #24]
 8005784:	68bb      	ldr	r3, [r7, #8]
 8005786:	4013      	ands	r3, r2
 8005788:	68ba      	ldr	r2, [r7, #8]
 800578a:	429a      	cmp	r2, r3
 800578c:	bf0c      	ite	eq
 800578e:	2301      	moveq	r3, #1
 8005790:	2300      	movne	r3, #0
 8005792:	b2db      	uxtb	r3, r3
 8005794:	461a      	mov	r2, r3
 8005796:	79fb      	ldrb	r3, [r7, #7]
 8005798:	429a      	cmp	r2, r3
 800579a:	d0cd      	beq.n	8005738 <I2C_WaitOnFlagUntilTimeout+0x12>
      }
    }
  }
  return HAL_OK;
 800579c:	2300      	movs	r3, #0
}
 800579e:	4618      	mov	r0, r3
 80057a0:	3710      	adds	r7, #16
 80057a2:	46bd      	mov	sp, r7
 80057a4:	bd80      	pop	{r7, pc}

080057a6 <I2C_WaitOnTXISFlagUntilTimeout>:
  * @param  Timeout Timeout duration
  * @param  Tickstart Tick start value
  * @retval HAL status
  */
static HAL_StatusTypeDef I2C_WaitOnTXISFlagUntilTimeout(I2C_HandleTypeDef *hi2c, uint32_t Timeout, uint32_t Tickstart)
{
 80057a6:	b580      	push	{r7, lr}
 80057a8:	b084      	sub	sp, #16
 80057aa:	af00      	add	r7, sp, #0
 80057ac:	60f8      	str	r0, [r7, #12]
 80057ae:	60b9      	str	r1, [r7, #8]
 80057b0:	607a      	str	r2, [r7, #4]
  while (__HAL_I2C_GET_FLAG(hi2c, I2C_FLAG_TXIS) == RESET)
 80057b2:	e02c      	b.n	800580e <I2C_WaitOnTXISFlagUntilTimeout+0x68>
  {
    /* Check if a NACK is detected */
    if (I2C_IsAcknowledgeFailed(hi2c, Timeout, Tickstart) != HAL_OK)
 80057b4:	687a      	ldr	r2, [r7, #4]
 80057b6:	68b9      	ldr	r1, [r7, #8]
 80057b8:	68f8      	ldr	r0, [r7, #12]
 80057ba:	f000 f871 	bl	80058a0 <I2C_IsAcknowledgeFailed>
 80057be:	4603      	mov	r3, r0
 80057c0:	2b00      	cmp	r3, #0
 80057c2:	d001      	beq.n	80057c8 <I2C_WaitOnTXISFlagUntilTimeout+0x22>
    {
      return HAL_ERROR;
 80057c4:	2301      	movs	r3, #1
 80057c6:	e02a      	b.n	800581e <I2C_WaitOnTXISFlagUntilTimeout+0x78>
    }

    /* Check for the Timeout */
    if (Timeout != HAL_MAX_DELAY)
 80057c8:	68bb      	ldr	r3, [r7, #8]
 80057ca:	f1b3 3fff 	cmp.w	r3, #4294967295	; 0xffffffff
 80057ce:	d01e      	beq.n	800580e <I2C_WaitOnTXISFlagUntilTimeout+0x68>
    {
      if (((HAL_GetTick() - Tickstart) > Timeout) || (Timeout == 0U))
 80057d0:	f7fd fcde 	bl	8003190 <HAL_GetTick>
 80057d4:	4602      	mov	r2, r0
 80057d6:	687b      	ldr	r3, [r7, #4]
 80057d8:	1ad3      	subs	r3, r2, r3
 80057da:	68ba      	ldr	r2, [r7, #8]
 80057dc:	429a      	cmp	r2, r3
 80057de:	d302      	bcc.n	80057e6 <I2C_WaitOnTXISFlagUntilTimeout+0x40>
 80057e0:	68bb      	ldr	r3, [r7, #8]
 80057e2:	2b00      	cmp	r3, #0
 80057e4:	d113      	bne.n	800580e <I2C_WaitOnTXISFlagUntilTimeout+0x68>
      {
        hi2c->ErrorCode |= HAL_I2C_ERROR_TIMEOUT;
 80057e6:	68fb      	ldr	r3, [r7, #12]
 80057e8:	6c5b      	ldr	r3, [r3, #68]	; 0x44
 80057ea:	f043 0220 	orr.w	r2, r3, #32
 80057ee:	68fb      	ldr	r3, [r7, #12]
 80057f0:	645a      	str	r2, [r3, #68]	; 0x44
        hi2c->State = HAL_I2C_STATE_READY;
 80057f2:	68fb      	ldr	r3, [r7, #12]
 80057f4:	2220      	movs	r2, #32
 80057f6:	f883 2041 	strb.w	r2, [r3, #65]	; 0x41
        hi2c->Mode = HAL_I2C_MODE_NONE;
 80057fa:	68fb      	ldr	r3, [r7, #12]
 80057fc:	2200      	movs	r2, #0
 80057fe:	f883 2042 	strb.w	r2, [r3, #66]	; 0x42

        /* Process Unlocked */
        __HAL_UNLOCK(hi2c);
 8005802:	68fb      	ldr	r3, [r7, #12]
 8005804:	2200      	movs	r2, #0
 8005806:	f883 2040 	strb.w	r2, [r3, #64]	; 0x40

        return HAL_ERROR;
 800580a:	2301      	movs	r3, #1
 800580c:	e007      	b.n	800581e <I2C_WaitOnTXISFlagUntilTimeout+0x78>
  while (__HAL_I2C_GET_FLAG(hi2c, I2C_FLAG_TXIS) == RESET)
 800580e:	68fb      	ldr	r3, [r7, #12]
 8005810:	681b      	ldr	r3, [r3, #0]
 8005812:	699b      	ldr	r3, [r3, #24]
 8005814:	f003 0302 	and.w	r3, r3, #2
 8005818:	2b02      	cmp	r3, #2
 800581a:	d1cb      	bne.n	80057b4 <I2C_WaitOnTXISFlagUntilTimeout+0xe>
      }
    }
  }
  return HAL_OK;
 800581c:	2300      	movs	r3, #0
}
 800581e:	4618      	mov	r0, r3
 8005820:	3710      	adds	r7, #16
 8005822:	46bd      	mov	sp, r7
 8005824:	bd80      	pop	{r7, pc}

08005826 <I2C_WaitOnSTOPFlagUntilTimeout>:
  * @param  Timeout Timeout duration
  * @param  Tickstart Tick start value
  * @retval HAL status
  */
static HAL_StatusTypeDef I2C_WaitOnSTOPFlagUntilTimeout(I2C_HandleTypeDef *hi2c, uint32_t Timeout, uint32_t Tickstart)
{
 8005826:	b580      	push	{r7, lr}
 8005828:	b084      	sub	sp, #16
 800582a:	af00      	add	r7, sp, #0
 800582c:	60f8      	str	r0, [r7, #12]
 800582e:	60b9      	str	r1, [r7, #8]
 8005830:	607a      	str	r2, [r7, #4]
  while (__HAL_I2C_GET_FLAG(hi2c, I2C_FLAG_STOPF) == RESET)
 8005832:	e028      	b.n	8005886 <I2C_WaitOnSTOPFlagUntilTimeout+0x60>
  {
    /* Check if a NACK is detected */
    if (I2C_IsAcknowledgeFailed(hi2c, Timeout, Tickstart) != HAL_OK)
 8005834:	687a      	ldr	r2, [r7, #4]
 8005836:	68b9      	ldr	r1, [r7, #8]
 8005838:	68f8      	ldr	r0, [r7, #12]
 800583a:	f000 f831 	bl	80058a0 <I2C_IsAcknowledgeFailed>
 800583e:	4603      	mov	r3, r0
 8005840:	2b00      	cmp	r3, #0
 8005842:	d001      	beq.n	8005848 <I2C_WaitOnSTOPFlagUntilTimeout+0x22>
    {
      return HAL_ERROR;
 8005844:	2301      	movs	r3, #1
 8005846:	e026      	b.n	8005896 <I2C_WaitOnSTOPFlagUntilTimeout+0x70>
    }

    /* Check for the Timeout */
    if (((HAL_GetTick() - Tickstart) > Timeout) || (Timeout == 0U))
 8005848:	f7fd fca2 	bl	8003190 <HAL_GetTick>
 800584c:	4602      	mov	r2, r0
 800584e:	687b      	ldr	r3, [r7, #4]
 8005850:	1ad3      	subs	r3, r2, r3
 8005852:	68ba      	ldr	r2, [r7, #8]
 8005854:	429a      	cmp	r2, r3
 8005856:	d302      	bcc.n	800585e <I2C_WaitOnSTOPFlagUntilTimeout+0x38>
 8005858:	68bb      	ldr	r3, [r7, #8]
 800585a:	2b00      	cmp	r3, #0
 800585c:	d113      	bne.n	8005886 <I2C_WaitOnSTOPFlagUntilTimeout+0x60>
    {
      hi2c->ErrorCode |= HAL_I2C_ERROR_TIMEOUT;
 800585e:	68fb      	ldr	r3, [r7, #12]
 8005860:	6c5b      	ldr	r3, [r3, #68]	; 0x44
 8005862:	f043 0220 	orr.w	r2, r3, #32
 8005866:	68fb      	ldr	r3, [r7, #12]
 8005868:	645a      	str	r2, [r3, #68]	; 0x44
      hi2c->State = HAL_I2C_STATE_READY;
 800586a:	68fb      	ldr	r3, [r7, #12]
 800586c:	2220      	movs	r2, #32
 800586e:	f883 2041 	strb.w	r2, [r3, #65]	; 0x41
      hi2c->Mode = HAL_I2C_MODE_NONE;
 8005872:	68fb      	ldr	r3, [r7, #12]
 8005874:	2200      	movs	r2, #0
 8005876:	f883 2042 	strb.w	r2, [r3, #66]	; 0x42

      /* Process Unlocked */
      __HAL_UNLOCK(hi2c);
 800587a:	68fb      	ldr	r3, [r7, #12]
 800587c:	2200      	movs	r2, #0
 800587e:	f883 2040 	strb.w	r2, [r3, #64]	; 0x40

      return HAL_ERROR;
 8005882:	2301      	movs	r3, #1
 8005884:	e007      	b.n	8005896 <I2C_WaitOnSTOPFlagUntilTimeout+0x70>
  while (__HAL_I2C_GET_FLAG(hi2c, I2C_FLAG_STOPF) == RESET)
 8005886:	68fb      	ldr	r3, [r7, #12]
 8005888:	681b      	ldr	r3, [r3, #0]
 800588a:	699b      	ldr	r3, [r3, #24]
 800588c:	f003 0320 	and.w	r3, r3, #32
 8005890:	2b20      	cmp	r3, #32
 8005892:	d1cf      	bne.n	8005834 <I2C_WaitOnSTOPFlagUntilTimeout+0xe>
    }
  }
  return HAL_OK;
 8005894:	2300      	movs	r3, #0
}
 8005896:	4618      	mov	r0, r3
 8005898:	3710      	adds	r7, #16
 800589a:	46bd      	mov	sp, r7
 800589c:	bd80      	pop	{r7, pc}
	...

080058a0 <I2C_IsAcknowledgeFailed>:
  * @param  Timeout Timeout duration
  * @param  Tickstart Tick start value
  * @retval HAL status
  */
static HAL_StatusTypeDef I2C_IsAcknowledgeFailed(I2C_HandleTypeDef *hi2c, uint32_t Timeout, uint32_t Tickstart)
{
 80058a0:	b580      	push	{r7, lr}
 80058a2:	b084      	sub	sp, #16
 80058a4:	af00      	add	r7, sp, #0
 80058a6:	60f8      	str	r0, [r7, #12]
 80058a8:	60b9      	str	r1, [r7, #8]
 80058aa:	607a      	str	r2, [r7, #4]
  if (__HAL_I2C_GET_FLAG(hi2c, I2C_FLAG_AF) == SET)
 80058ac:	68fb      	ldr	r3, [r7, #12]
 80058ae:	681b      	ldr	r3, [r3, #0]
 80058b0:	699b      	ldr	r3, [r3, #24]
 80058b2:	f003 0310 	and.w	r3, r3, #16
 80058b6:	2b10      	cmp	r3, #16
 80058b8:	d151      	bne.n	800595e <I2C_IsAcknowledgeFailed+0xbe>
  {
    /* Wait until STOP Flag is reset */
    /* AutoEnd should be initiate after AF */
    while (__HAL_I2C_GET_FLAG(hi2c, I2C_FLAG_STOPF) == RESET)
 80058ba:	e022      	b.n	8005902 <I2C_IsAcknowledgeFailed+0x62>
    {
      /* Check for the Timeout */
      if (Timeout != HAL_MAX_DELAY)
 80058bc:	68bb      	ldr	r3, [r7, #8]
 80058be:	f1b3 3fff 	cmp.w	r3, #4294967295	; 0xffffffff
 80058c2:	d01e      	beq.n	8005902 <I2C_IsAcknowledgeFailed+0x62>
      {
        if (((HAL_GetTick() - Tickstart) > Timeout) || (Timeout == 0U))
 80058c4:	f7fd fc64 	bl	8003190 <HAL_GetTick>
 80058c8:	4602      	mov	r2, r0
 80058ca:	687b      	ldr	r3, [r7, #4]
 80058cc:	1ad3      	subs	r3, r2, r3
 80058ce:	68ba      	ldr	r2, [r7, #8]
 80058d0:	429a      	cmp	r2, r3
 80058d2:	d302      	bcc.n	80058da <I2C_IsAcknowledgeFailed+0x3a>
 80058d4:	68bb      	ldr	r3, [r7, #8]
 80058d6:	2b00      	cmp	r3, #0
 80058d8:	d113      	bne.n	8005902 <I2C_IsAcknowledgeFailed+0x62>
        {
          hi2c->ErrorCode |= HAL_I2C_ERROR_TIMEOUT;
 80058da:	68fb      	ldr	r3, [r7, #12]
 80058dc:	6c5b      	ldr	r3, [r3, #68]	; 0x44
 80058de:	f043 0220 	orr.w	r2, r3, #32
 80058e2:	68fb      	ldr	r3, [r7, #12]
 80058e4:	645a      	str	r2, [r3, #68]	; 0x44
          hi2c->State = HAL_I2C_STATE_READY;
 80058e6:	68fb      	ldr	r3, [r7, #12]
 80058e8:	2220      	movs	r2, #32
 80058ea:	f883 2041 	strb.w	r2, [r3, #65]	; 0x41
          hi2c->Mode = HAL_I2C_MODE_NONE;
 80058ee:	68fb      	ldr	r3, [r7, #12]
 80058f0:	2200      	movs	r2, #0
 80058f2:	f883 2042 	strb.w	r2, [r3, #66]	; 0x42

          /* Process Unlocked */
          __HAL_UNLOCK(hi2c);
 80058f6:	68fb      	ldr	r3, [r7, #12]
 80058f8:	2200      	movs	r2, #0
 80058fa:	f883 2040 	strb.w	r2, [r3, #64]	; 0x40

          return HAL_ERROR;
 80058fe:	2301      	movs	r3, #1
 8005900:	e02e      	b.n	8005960 <I2C_IsAcknowledgeFailed+0xc0>
    while (__HAL_I2C_GET_FLAG(hi2c, I2C_FLAG_STOPF) == RESET)
 8005902:	68fb      	ldr	r3, [r7, #12]
 8005904:	681b      	ldr	r3, [r3, #0]
 8005906:	699b      	ldr	r3, [r3, #24]
 8005908:	f003 0320 	and.w	r3, r3, #32
 800590c:	2b20      	cmp	r3, #32
 800590e:	d1d5      	bne.n	80058bc <I2C_IsAcknowledgeFailed+0x1c>
        }
      }
    }

    /* Clear NACKF Flag */
    __HAL_I2C_CLEAR_FLAG(hi2c, I2C_FLAG_AF);
 8005910:	68fb      	ldr	r3, [r7, #12]
 8005912:	681b      	ldr	r3, [r3, #0]
 8005914:	2210      	movs	r2, #16
 8005916:	61da      	str	r2, [r3, #28]

    /* Clear STOP Flag */
    __HAL_I2C_CLEAR_FLAG(hi2c, I2C_FLAG_STOPF);
 8005918:	68fb      	ldr	r3, [r7, #12]
 800591a:	681b      	ldr	r3, [r3, #0]
 800591c:	2220      	movs	r2, #32
 800591e:	61da      	str	r2, [r3, #28]

    /* Flush TX register */
    I2C_Flush_TXDR(hi2c);
 8005920:	68f8      	ldr	r0, [r7, #12]
 8005922:	f7ff fedc 	bl	80056de <I2C_Flush_TXDR>

    /* Clear Configuration Register 2 */
    I2C_RESET_CR2(hi2c);
 8005926:	68fb      	ldr	r3, [r7, #12]
 8005928:	681b      	ldr	r3, [r3, #0]
 800592a:	6859      	ldr	r1, [r3, #4]
 800592c:	68fb      	ldr	r3, [r7, #12]
 800592e:	681a      	ldr	r2, [r3, #0]
 8005930:	4b0d      	ldr	r3, [pc, #52]	; (8005968 <I2C_IsAcknowledgeFailed+0xc8>)
 8005932:	400b      	ands	r3, r1
 8005934:	6053      	str	r3, [r2, #4]

    hi2c->ErrorCode |= HAL_I2C_ERROR_AF;
 8005936:	68fb      	ldr	r3, [r7, #12]
 8005938:	6c5b      	ldr	r3, [r3, #68]	; 0x44
 800593a:	f043 0204 	orr.w	r2, r3, #4
 800593e:	68fb      	ldr	r3, [r7, #12]
 8005940:	645a      	str	r2, [r3, #68]	; 0x44
    hi2c->State = HAL_I2C_STATE_READY;
 8005942:	68fb      	ldr	r3, [r7, #12]
 8005944:	2220      	movs	r2, #32
 8005946:	f883 2041 	strb.w	r2, [r3, #65]	; 0x41
    hi2c->Mode = HAL_I2C_MODE_NONE;
 800594a:	68fb      	ldr	r3, [r7, #12]
 800594c:	2200      	movs	r2, #0
 800594e:	f883 2042 	strb.w	r2, [r3, #66]	; 0x42

    /* Process Unlocked */
    __HAL_UNLOCK(hi2c);
 8005952:	68fb      	ldr	r3, [r7, #12]
 8005954:	2200      	movs	r2, #0
 8005956:	f883 2040 	strb.w	r2, [r3, #64]	; 0x40

    return HAL_ERROR;
 800595a:	2301      	movs	r3, #1
 800595c:	e000      	b.n	8005960 <I2C_IsAcknowledgeFailed+0xc0>
  }
  return HAL_OK;
 800595e:	2300      	movs	r3, #0
}
 8005960:	4618      	mov	r0, r3
 8005962:	3710      	adds	r7, #16
 8005964:	46bd      	mov	sp, r7
 8005966:	bd80      	pop	{r7, pc}
 8005968:	fe00e800 	.word	0xfe00e800

0800596c <I2C_TransferConfig>:
  *     @arg @ref I2C_GENERATE_START_WRITE Generate Restart for write request.
  * @retval None
  */
static void I2C_TransferConfig(I2C_HandleTypeDef *hi2c, uint16_t DevAddress, uint8_t Size, uint32_t Mode,
                               uint32_t Request)
{
 800596c:	b480      	push	{r7}
 800596e:	b085      	sub	sp, #20
 8005970:	af00      	add	r7, sp, #0
 8005972:	60f8      	str	r0, [r7, #12]
 8005974:	607b      	str	r3, [r7, #4]
 8005976:	460b      	mov	r3, r1
 8005978:	817b      	strh	r3, [r7, #10]
 800597a:	4613      	mov	r3, r2
 800597c:	727b      	strb	r3, [r7, #9]
  assert_param(IS_I2C_ALL_INSTANCE(hi2c->Instance));
  assert_param(IS_TRANSFER_MODE(Mode));
  assert_param(IS_TRANSFER_REQUEST(Request));

  /* update CR2 register */
  MODIFY_REG(hi2c->Instance->CR2,
 800597e:	68fb      	ldr	r3, [r7, #12]
 8005980:	681b      	ldr	r3, [r3, #0]
 8005982:	685a      	ldr	r2, [r3, #4]
 8005984:	69bb      	ldr	r3, [r7, #24]
 8005986:	0d5b      	lsrs	r3, r3, #21
 8005988:	f403 6180 	and.w	r1, r3, #1024	; 0x400
 800598c:	4b0d      	ldr	r3, [pc, #52]	; (80059c4 <I2C_TransferConfig+0x58>)
 800598e:	430b      	orrs	r3, r1
 8005990:	43db      	mvns	r3, r3
 8005992:	ea02 0103 	and.w	r1, r2, r3
 8005996:	897b      	ldrh	r3, [r7, #10]
 8005998:	f3c3 0209 	ubfx	r2, r3, #0, #10
 800599c:	7a7b      	ldrb	r3, [r7, #9]
 800599e:	041b      	lsls	r3, r3, #16
 80059a0:	f403 037f 	and.w	r3, r3, #16711680	; 0xff0000
 80059a4:	431a      	orrs	r2, r3
 80059a6:	687b      	ldr	r3, [r7, #4]
 80059a8:	431a      	orrs	r2, r3
 80059aa:	69bb      	ldr	r3, [r7, #24]
 80059ac:	431a      	orrs	r2, r3
 80059ae:	68fb      	ldr	r3, [r7, #12]
 80059b0:	681b      	ldr	r3, [r3, #0]
 80059b2:	430a      	orrs	r2, r1
 80059b4:	605a      	str	r2, [r3, #4]
             ((I2C_CR2_SADD | I2C_CR2_NBYTES | I2C_CR2_RELOAD | I2C_CR2_AUTOEND | \
               (I2C_CR2_RD_WRN & (uint32_t)(Request >> (31U - I2C_CR2_RD_WRN_Pos))) | I2C_CR2_START | I2C_CR2_STOP)), \
             (uint32_t)(((uint32_t)DevAddress & I2C_CR2_SADD) |
                        (((uint32_t)Size << I2C_CR2_NBYTES_Pos) & I2C_CR2_NBYTES) | (uint32_t)Mode | (uint32_t)Request));
}
 80059b6:	bf00      	nop
 80059b8:	3714      	adds	r7, #20
 80059ba:	46bd      	mov	sp, r7
 80059bc:	f85d 7b04 	ldr.w	r7, [sp], #4
 80059c0:	4770      	bx	lr
 80059c2:	bf00      	nop
 80059c4:	03ff63ff 	.word	0x03ff63ff

080059c8 <HAL_I2CEx_ConfigAnalogFilter>:
  *                the configuration information for the specified I2Cx peripheral.
  * @param  AnalogFilter New state of the Analog filter.
  * @retval HAL status
  */
HAL_StatusTypeDef HAL_I2CEx_ConfigAnalogFilter(I2C_HandleTypeDef *hi2c, uint32_t AnalogFilter)
{
 80059c8:	b480      	push	{r7}
 80059ca:	b083      	sub	sp, #12
 80059cc:	af00      	add	r7, sp, #0
 80059ce:	6078      	str	r0, [r7, #4]
 80059d0:	6039      	str	r1, [r7, #0]
  /* Check the parameters */
  assert_param(IS_I2C_ALL_INSTANCE(hi2c->Instance));
  assert_param(IS_I2C_ANALOG_FILTER(AnalogFilter));

  if (hi2c->State == HAL_I2C_STATE_READY)
 80059d2:	687b      	ldr	r3, [r7, #4]
 80059d4:	f893 3041 	ldrb.w	r3, [r3, #65]	; 0x41
 80059d8:	b2db      	uxtb	r3, r3
 80059da:	2b20      	cmp	r3, #32
 80059dc:	d138      	bne.n	8005a50 <HAL_I2CEx_ConfigAnalogFilter+0x88>
  {
    /* Process Locked */
    __HAL_LOCK(hi2c);
 80059de:	687b      	ldr	r3, [r7, #4]
 80059e0:	f893 3040 	ldrb.w	r3, [r3, #64]	; 0x40
 80059e4:	2b01      	cmp	r3, #1
 80059e6:	d101      	bne.n	80059ec <HAL_I2CEx_ConfigAnalogFilter+0x24>
 80059e8:	2302      	movs	r3, #2
 80059ea:	e032      	b.n	8005a52 <HAL_I2CEx_ConfigAnalogFilter+0x8a>
 80059ec:	687b      	ldr	r3, [r7, #4]
 80059ee:	2201      	movs	r2, #1
 80059f0:	f883 2040 	strb.w	r2, [r3, #64]	; 0x40

    hi2c->State = HAL_I2C_STATE_BUSY;
 80059f4:	687b      	ldr	r3, [r7, #4]
 80059f6:	2224      	movs	r2, #36	; 0x24
 80059f8:	f883 2041 	strb.w	r2, [r3, #65]	; 0x41

    /* Disable the selected I2C peripheral */
    __HAL_I2C_DISABLE(hi2c);
 80059fc:	687b      	ldr	r3, [r7, #4]
 80059fe:	681b      	ldr	r3, [r3, #0]
 8005a00:	681a      	ldr	r2, [r3, #0]
 8005a02:	687b      	ldr	r3, [r7, #4]
 8005a04:	681b      	ldr	r3, [r3, #0]
 8005a06:	f022 0201 	bic.w	r2, r2, #1
 8005a0a:	601a      	str	r2, [r3, #0]

    /* Reset I2Cx ANOFF bit */
    hi2c->Instance->CR1 &= ~(I2C_CR1_ANFOFF);
 8005a0c:	687b      	ldr	r3, [r7, #4]
 8005a0e:	681b      	ldr	r3, [r3, #0]
 8005a10:	681a      	ldr	r2, [r3, #0]
 8005a12:	687b      	ldr	r3, [r7, #4]
 8005a14:	681b      	ldr	r3, [r3, #0]
 8005a16:	f422 5280 	bic.w	r2, r2, #4096	; 0x1000
 8005a1a:	601a      	str	r2, [r3, #0]

    /* Set analog filter bit*/
    hi2c->Instance->CR1 |= AnalogFilter;
 8005a1c:	687b      	ldr	r3, [r7, #4]
 8005a1e:	681b      	ldr	r3, [r3, #0]
 8005a20:	6819      	ldr	r1, [r3, #0]
 8005a22:	687b      	ldr	r3, [r7, #4]
 8005a24:	681b      	ldr	r3, [r3, #0]
 8005a26:	683a      	ldr	r2, [r7, #0]
 8005a28:	430a      	orrs	r2, r1
 8005a2a:	601a      	str	r2, [r3, #0]

    __HAL_I2C_ENABLE(hi2c);
 8005a2c:	687b      	ldr	r3, [r7, #4]
 8005a2e:	681b      	ldr	r3, [r3, #0]
 8005a30:	681a      	ldr	r2, [r3, #0]
 8005a32:	687b      	ldr	r3, [r7, #4]
 8005a34:	681b      	ldr	r3, [r3, #0]
 8005a36:	f042 0201 	orr.w	r2, r2, #1
 8005a3a:	601a      	str	r2, [r3, #0]

    hi2c->State = HAL_I2C_STATE_READY;
 8005a3c:	687b      	ldr	r3, [r7, #4]
 8005a3e:	2220      	movs	r2, #32
 8005a40:	f883 2041 	strb.w	r2, [r3, #65]	; 0x41

    /* Process Unlocked */
    __HAL_UNLOCK(hi2c);
 8005a44:	687b      	ldr	r3, [r7, #4]
 8005a46:	2200      	movs	r2, #0
 8005a48:	f883 2040 	strb.w	r2, [r3, #64]	; 0x40

    return HAL_OK;
 8005a4c:	2300      	movs	r3, #0
 8005a4e:	e000      	b.n	8005a52 <HAL_I2CEx_ConfigAnalogFilter+0x8a>
  }
  else
  {
    return HAL_BUSY;
 8005a50:	2302      	movs	r3, #2
  }
}
 8005a52:	4618      	mov	r0, r3
 8005a54:	370c      	adds	r7, #12
 8005a56:	46bd      	mov	sp, r7
 8005a58:	f85d 7b04 	ldr.w	r7, [sp], #4
 8005a5c:	4770      	bx	lr

08005a5e <HAL_I2CEx_ConfigDigitalFilter>:
  *                the configuration information for the specified I2Cx peripheral.
  * @param  DigitalFilter Coefficient of digital noise filter between Min_Data=0x00 and Max_Data=0x0F.
  * @retval HAL status
  */
HAL_StatusTypeDef HAL_I2CEx_ConfigDigitalFilter(I2C_HandleTypeDef *hi2c, uint32_t DigitalFilter)
{
 8005a5e:	b480      	push	{r7}
 8005a60:	b085      	sub	sp, #20
 8005a62:	af00      	add	r7, sp, #0
 8005a64:	6078      	str	r0, [r7, #4]
 8005a66:	6039      	str	r1, [r7, #0]

  /* Check the parameters */
  assert_param(IS_I2C_ALL_INSTANCE(hi2c->Instance));
  assert_param(IS_I2C_DIGITAL_FILTER(DigitalFilter));

  if (hi2c->State == HAL_I2C_STATE_READY)
 8005a68:	687b      	ldr	r3, [r7, #4]
 8005a6a:	f893 3041 	ldrb.w	r3, [r3, #65]	; 0x41
 8005a6e:	b2db      	uxtb	r3, r3
 8005a70:	2b20      	cmp	r3, #32
 8005a72:	d139      	bne.n	8005ae8 <HAL_I2CEx_ConfigDigitalFilter+0x8a>
  {
    /* Process Locked */
    __HAL_LOCK(hi2c);
 8005a74:	687b      	ldr	r3, [r7, #4]
 8005a76:	f893 3040 	ldrb.w	r3, [r3, #64]	; 0x40
 8005a7a:	2b01      	cmp	r3, #1
 8005a7c:	d101      	bne.n	8005a82 <HAL_I2CEx_ConfigDigitalFilter+0x24>
 8005a7e:	2302      	movs	r3, #2
 8005a80:	e033      	b.n	8005aea <HAL_I2CEx_ConfigDigitalFilter+0x8c>
 8005a82:	687b      	ldr	r3, [r7, #4]
 8005a84:	2201      	movs	r2, #1
 8005a86:	f883 2040 	strb.w	r2, [r3, #64]	; 0x40

    hi2c->State = HAL_I2C_STATE_BUSY;
 8005a8a:	687b      	ldr	r3, [r7, #4]
 8005a8c:	2224      	movs	r2, #36	; 0x24
 8005a8e:	f883 2041 	strb.w	r2, [r3, #65]	; 0x41

    /* Disable the selected I2C peripheral */
    __HAL_I2C_DISABLE(hi2c);
 8005a92:	687b      	ldr	r3, [r7, #4]
 8005a94:	681b      	ldr	r3, [r3, #0]
 8005a96:	681a      	ldr	r2, [r3, #0]
 8005a98:	687b      	ldr	r3, [r7, #4]
 8005a9a:	681b      	ldr	r3, [r3, #0]
 8005a9c:	f022 0201 	bic.w	r2, r2, #1
 8005aa0:	601a      	str	r2, [r3, #0]

    /* Get the old register value */
    tmpreg = hi2c->Instance->CR1;
 8005aa2:	687b      	ldr	r3, [r7, #4]
 8005aa4:	681b      	ldr	r3, [r3, #0]
 8005aa6:	681b      	ldr	r3, [r3, #0]
 8005aa8:	60fb      	str	r3, [r7, #12]

    /* Reset I2Cx DNF bits [11:8] */
    tmpreg &= ~(I2C_CR1_DNF);
 8005aaa:	68fb      	ldr	r3, [r7, #12]
 8005aac:	f423 6370 	bic.w	r3, r3, #3840	; 0xf00
 8005ab0:	60fb      	str	r3, [r7, #12]

    /* Set I2Cx DNF coefficient */
    tmpreg |= DigitalFilter << 8U;
 8005ab2:	683b      	ldr	r3, [r7, #0]
 8005ab4:	021b      	lsls	r3, r3, #8
 8005ab6:	68fa      	ldr	r2, [r7, #12]
 8005ab8:	4313      	orrs	r3, r2
 8005aba:	60fb      	str	r3, [r7, #12]

    /* Store the new register value */
    hi2c->Instance->CR1 = tmpreg;
 8005abc:	687b      	ldr	r3, [r7, #4]
 8005abe:	681b      	ldr	r3, [r3, #0]
 8005ac0:	68fa      	ldr	r2, [r7, #12]
 8005ac2:	601a      	str	r2, [r3, #0]

    __HAL_I2C_ENABLE(hi2c);
 8005ac4:	687b      	ldr	r3, [r7, #4]
 8005ac6:	681b      	ldr	r3, [r3, #0]
 8005ac8:	681a      	ldr	r2, [r3, #0]
 8005aca:	687b      	ldr	r3, [r7, #4]
 8005acc:	681b      	ldr	r3, [r3, #0]
 8005ace:	f042 0201 	orr.w	r2, r2, #1
 8005ad2:	601a      	str	r2, [r3, #0]

    hi2c->State = HAL_I2C_STATE_READY;
 8005ad4:	687b      	ldr	r3, [r7, #4]
 8005ad6:	2220      	movs	r2, #32
 8005ad8:	f883 2041 	strb.w	r2, [r3, #65]	; 0x41

    /* Process Unlocked */
    __HAL_UNLOCK(hi2c);
 8005adc:	687b      	ldr	r3, [r7, #4]
 8005ade:	2200      	movs	r2, #0
 8005ae0:	f883 2040 	strb.w	r2, [r3, #64]	; 0x40

    return HAL_OK;
 8005ae4:	2300      	movs	r3, #0
 8005ae6:	e000      	b.n	8005aea <HAL_I2CEx_ConfigDigitalFilter+0x8c>
  }
  else
  {
    return HAL_BUSY;
 8005ae8:	2302      	movs	r3, #2
  }
}
 8005aea:	4618      	mov	r0, r3
 8005aec:	3714      	adds	r7, #20
 8005aee:	46bd      	mov	sp, r7
 8005af0:	f85d 7b04 	ldr.w	r7, [sp], #4
 8005af4:	4770      	bx	lr
	...

08005af8 <HAL_I2CEx_EnableFastModePlus>:
  * @note  For all I2C4 pins fast mode plus driving capability can be enabled
  *        only by using I2C_FASTMODEPLUS_I2C4 parameter.
  * @retval None
  */
void HAL_I2CEx_EnableFastModePlus(uint32_t ConfigFastModePlus)
{
 8005af8:	b480      	push	{r7}
 8005afa:	b085      	sub	sp, #20
 8005afc:	af00      	add	r7, sp, #0
 8005afe:	6078      	str	r0, [r7, #4]
  /* Check the parameter */
  assert_param(IS_I2C_FASTMODEPLUS(ConfigFastModePlus));

  /* Enable SYSCFG clock */
  __HAL_RCC_SYSCFG_CLK_ENABLE();
 8005b00:	4b0b      	ldr	r3, [pc, #44]	; (8005b30 <HAL_I2CEx_EnableFastModePlus+0x38>)
 8005b02:	6e1b      	ldr	r3, [r3, #96]	; 0x60
 8005b04:	4a0a      	ldr	r2, [pc, #40]	; (8005b30 <HAL_I2CEx_EnableFastModePlus+0x38>)
 8005b06:	f043 0301 	orr.w	r3, r3, #1
 8005b0a:	6613      	str	r3, [r2, #96]	; 0x60
 8005b0c:	4b08      	ldr	r3, [pc, #32]	; (8005b30 <HAL_I2CEx_EnableFastModePlus+0x38>)
 8005b0e:	6e1b      	ldr	r3, [r3, #96]	; 0x60
 8005b10:	f003 0301 	and.w	r3, r3, #1
 8005b14:	60fb      	str	r3, [r7, #12]
 8005b16:	68fb      	ldr	r3, [r7, #12]

  /* Enable fast mode plus driving capability for selected pin */
  SET_BIT(SYSCFG->CFGR1, (uint32_t)ConfigFastModePlus);
 8005b18:	4b06      	ldr	r3, [pc, #24]	; (8005b34 <HAL_I2CEx_EnableFastModePlus+0x3c>)
 8005b1a:	685a      	ldr	r2, [r3, #4]
 8005b1c:	4905      	ldr	r1, [pc, #20]	; (8005b34 <HAL_I2CEx_EnableFastModePlus+0x3c>)
 8005b1e:	687b      	ldr	r3, [r7, #4]
 8005b20:	4313      	orrs	r3, r2
 8005b22:	604b      	str	r3, [r1, #4]
}
 8005b24:	bf00      	nop
 8005b26:	3714      	adds	r7, #20
 8005b28:	46bd      	mov	sp, r7
 8005b2a:	f85d 7b04 	ldr.w	r7, [sp], #4
 8005b2e:	4770      	bx	lr
 8005b30:	40021000 	.word	0x40021000
 8005b34:	40010000 	.word	0x40010000

08005b38 <HAL_PWR_EnableBkUpAccess>:
  * @note  LSEON bit that switches on and off the LSE crystal belongs as well to the
  *        back-up domain.
  * @retval None
  */
void HAL_PWR_EnableBkUpAccess(void)
{
 8005b38:	b480      	push	{r7}
 8005b3a:	af00      	add	r7, sp, #0
  SET_BIT(PWR->CR1, PWR_CR1_DBP);
 8005b3c:	4b05      	ldr	r3, [pc, #20]	; (8005b54 <HAL_PWR_EnableBkUpAccess+0x1c>)
 8005b3e:	681b      	ldr	r3, [r3, #0]
 8005b40:	4a04      	ldr	r2, [pc, #16]	; (8005b54 <HAL_PWR_EnableBkUpAccess+0x1c>)
 8005b42:	f443 7380 	orr.w	r3, r3, #256	; 0x100
 8005b46:	6013      	str	r3, [r2, #0]
}
 8005b48:	bf00      	nop
 8005b4a:	46bd      	mov	sp, r7
 8005b4c:	f85d 7b04 	ldr.w	r7, [sp], #4
 8005b50:	4770      	bx	lr
 8005b52:	bf00      	nop
 8005b54:	40007000 	.word	0x40007000

08005b58 <HAL_PWREx_GetVoltageRange>:
  * @brief Return Voltage Scaling Range.
  * @retval VOS bit field (PWR_REGULATOR_VOLTAGE_SCALE1 or PWR_REGULATOR_VOLTAGE_SCALE2
  *         or PWR_REGULATOR_VOLTAGE_SCALE1_BOOST when applicable)
  */
uint32_t HAL_PWREx_GetVoltageRange(void)
{
 8005b58:	b480      	push	{r7}
 8005b5a:	af00      	add	r7, sp, #0
    else
    {
      return PWR_REGULATOR_VOLTAGE_SCALE1_BOOST;
    }
#else
  return  (PWR->CR1 & PWR_CR1_VOS);
 8005b5c:	4b04      	ldr	r3, [pc, #16]	; (8005b70 <HAL_PWREx_GetVoltageRange+0x18>)
 8005b5e:	681b      	ldr	r3, [r3, #0]
 8005b60:	f403 63c0 	and.w	r3, r3, #1536	; 0x600
#endif
}
 8005b64:	4618      	mov	r0, r3
 8005b66:	46bd      	mov	sp, r7
 8005b68:	f85d 7b04 	ldr.w	r7, [sp], #4
 8005b6c:	4770      	bx	lr
 8005b6e:	bf00      	nop
 8005b70:	40007000 	.word	0x40007000

08005b74 <HAL_PWREx_ControlVoltageScaling>:
  *        cleared before returning the status. If the flag is not cleared within
  *        50 microseconds, HAL_TIMEOUT status is reported.
  * @retval HAL Status
  */
HAL_StatusTypeDef HAL_PWREx_ControlVoltageScaling(uint32_t VoltageScaling)
{
 8005b74:	b480      	push	{r7}
 8005b76:	b085      	sub	sp, #20
 8005b78:	af00      	add	r7, sp, #0
 8005b7a:	6078      	str	r0, [r7, #4]
  }

#else

  /* If Set Range 1 */
  if (VoltageScaling == PWR_REGULATOR_VOLTAGE_SCALE1)
 8005b7c:	687b      	ldr	r3, [r7, #4]
 8005b7e:	f5b3 7f00 	cmp.w	r3, #512	; 0x200
 8005b82:	d130      	bne.n	8005be6 <HAL_PWREx_ControlVoltageScaling+0x72>
  {
    if (READ_BIT(PWR->CR1, PWR_CR1_VOS) != PWR_REGULATOR_VOLTAGE_SCALE1)
 8005b84:	4b23      	ldr	r3, [pc, #140]	; (8005c14 <HAL_PWREx_ControlVoltageScaling+0xa0>)
 8005b86:	681b      	ldr	r3, [r3, #0]
 8005b88:	f403 63c0 	and.w	r3, r3, #1536	; 0x600
 8005b8c:	f5b3 7f00 	cmp.w	r3, #512	; 0x200
 8005b90:	d038      	beq.n	8005c04 <HAL_PWREx_ControlVoltageScaling+0x90>
    {
      /* Set Range 1 */
      MODIFY_REG(PWR->CR1, PWR_CR1_VOS, PWR_REGULATOR_VOLTAGE_SCALE1);
 8005b92:	4b20      	ldr	r3, [pc, #128]	; (8005c14 <HAL_PWREx_ControlVoltageScaling+0xa0>)
 8005b94:	681b      	ldr	r3, [r3, #0]
 8005b96:	f423 63c0 	bic.w	r3, r3, #1536	; 0x600
 8005b9a:	4a1e      	ldr	r2, [pc, #120]	; (8005c14 <HAL_PWREx_ControlVoltageScaling+0xa0>)
 8005b9c:	f443 7300 	orr.w	r3, r3, #512	; 0x200
 8005ba0:	6013      	str	r3, [r2, #0]

      /* Wait until VOSF is cleared */
      wait_loop_index = ((PWR_FLAG_SETTING_DELAY_US * SystemCoreClock) / 1000000U) + 1U;
 8005ba2:	4b1d      	ldr	r3, [pc, #116]	; (8005c18 <HAL_PWREx_ControlVoltageScaling+0xa4>)
 8005ba4:	681b      	ldr	r3, [r3, #0]
 8005ba6:	2232      	movs	r2, #50	; 0x32
 8005ba8:	fb02 f303 	mul.w	r3, r2, r3
 8005bac:	4a1b      	ldr	r2, [pc, #108]	; (8005c1c <HAL_PWREx_ControlVoltageScaling+0xa8>)
 8005bae:	fba2 2303 	umull	r2, r3, r2, r3
 8005bb2:	0c9b      	lsrs	r3, r3, #18
 8005bb4:	3301      	adds	r3, #1
 8005bb6:	60fb      	str	r3, [r7, #12]
      while ((HAL_IS_BIT_SET(PWR->SR2, PWR_SR2_VOSF)) && (wait_loop_index != 0U))
 8005bb8:	e002      	b.n	8005bc0 <HAL_PWREx_ControlVoltageScaling+0x4c>
      {
        wait_loop_index--;
 8005bba:	68fb      	ldr	r3, [r7, #12]
 8005bbc:	3b01      	subs	r3, #1
 8005bbe:	60fb      	str	r3, [r7, #12]
      while ((HAL_IS_BIT_SET(PWR->SR2, PWR_SR2_VOSF)) && (wait_loop_index != 0U))
 8005bc0:	4b14      	ldr	r3, [pc, #80]	; (8005c14 <HAL_PWREx_ControlVoltageScaling+0xa0>)
 8005bc2:	695b      	ldr	r3, [r3, #20]
 8005bc4:	f403 6380 	and.w	r3, r3, #1024	; 0x400
 8005bc8:	f5b3 6f80 	cmp.w	r3, #1024	; 0x400
 8005bcc:	d102      	bne.n	8005bd4 <HAL_PWREx_ControlVoltageScaling+0x60>
 8005bce:	68fb      	ldr	r3, [r7, #12]
 8005bd0:	2b00      	cmp	r3, #0
 8005bd2:	d1f2      	bne.n	8005bba <HAL_PWREx_ControlVoltageScaling+0x46>
      }
      if (HAL_IS_BIT_SET(PWR->SR2, PWR_SR2_VOSF))
 8005bd4:	4b0f      	ldr	r3, [pc, #60]	; (8005c14 <HAL_PWREx_ControlVoltageScaling+0xa0>)
 8005bd6:	695b      	ldr	r3, [r3, #20]
 8005bd8:	f403 6380 	and.w	r3, r3, #1024	; 0x400
 8005bdc:	f5b3 6f80 	cmp.w	r3, #1024	; 0x400
 8005be0:	d110      	bne.n	8005c04 <HAL_PWREx_ControlVoltageScaling+0x90>
      {
        return HAL_TIMEOUT;
 8005be2:	2303      	movs	r3, #3
 8005be4:	e00f      	b.n	8005c06 <HAL_PWREx_ControlVoltageScaling+0x92>
      }
    }
  }
  else
  {
    if (READ_BIT(PWR->CR1, PWR_CR1_VOS) != PWR_REGULATOR_VOLTAGE_SCALE2)
 8005be6:	4b0b      	ldr	r3, [pc, #44]	; (8005c14 <HAL_PWREx_ControlVoltageScaling+0xa0>)
 8005be8:	681b      	ldr	r3, [r3, #0]
 8005bea:	f403 63c0 	and.w	r3, r3, #1536	; 0x600
 8005bee:	f5b3 6f80 	cmp.w	r3, #1024	; 0x400
 8005bf2:	d007      	beq.n	8005c04 <HAL_PWREx_ControlVoltageScaling+0x90>
    {
      /* Set Range 2 */
      MODIFY_REG(PWR->CR1, PWR_CR1_VOS, PWR_REGULATOR_VOLTAGE_SCALE2);
 8005bf4:	4b07      	ldr	r3, [pc, #28]	; (8005c14 <HAL_PWREx_ControlVoltageScaling+0xa0>)
 8005bf6:	681b      	ldr	r3, [r3, #0]
 8005bf8:	f423 63c0 	bic.w	r3, r3, #1536	; 0x600
 8005bfc:	4a05      	ldr	r2, [pc, #20]	; (8005c14 <HAL_PWREx_ControlVoltageScaling+0xa0>)
 8005bfe:	f443 6380 	orr.w	r3, r3, #1024	; 0x400
 8005c02:	6013      	str	r3, [r2, #0]
      /* No need to wait for VOSF to be cleared for this transition */
    }
  }
#endif

  return HAL_OK;
 8005c04:	2300      	movs	r3, #0
}
 8005c06:	4618      	mov	r0, r3
 8005c08:	3714      	adds	r7, #20
 8005c0a:	46bd      	mov	sp, r7
 8005c0c:	f85d 7b04 	ldr.w	r7, [sp], #4
 8005c10:	4770      	bx	lr
 8005c12:	bf00      	nop
 8005c14:	40007000 	.word	0x40007000
 8005c18:	200007d8 	.word	0x200007d8
 8005c1c:	431bde83 	.word	0x431bde83

08005c20 <HAL_RCC_OscConfig>:
  *         supported by this macro. User should request a transition to HSE Off
  *         first and then HSE On or HSE Bypass.
  * @retval HAL status
  */
HAL_StatusTypeDef HAL_RCC_OscConfig(RCC_OscInitTypeDef  *RCC_OscInitStruct)
{
 8005c20:	b580      	push	{r7, lr}
 8005c22:	b088      	sub	sp, #32
 8005c24:	af00      	add	r7, sp, #0
 8005c26:	6078      	str	r0, [r7, #4]
  uint32_t tickstart;
  HAL_StatusTypeDef status;
  uint32_t sysclk_source, pll_config;

  /* Check Null pointer */
  if(RCC_OscInitStruct == NULL)
 8005c28:	687b      	ldr	r3, [r7, #4]
 8005c2a:	2b00      	cmp	r3, #0
 8005c2c:	d102      	bne.n	8005c34 <HAL_RCC_OscConfig+0x14>
  {
    return HAL_ERROR;
 8005c2e:	2301      	movs	r3, #1
 8005c30:	f000 bc11 	b.w	8006456 <HAL_RCC_OscConfig+0x836>
  }

  /* Check the parameters */
  assert_param(IS_RCC_OSCILLATORTYPE(RCC_OscInitStruct->OscillatorType));

  sysclk_source = __HAL_RCC_GET_SYSCLK_SOURCE();
 8005c34:	4ba0      	ldr	r3, [pc, #640]	; (8005eb8 <HAL_RCC_OscConfig+0x298>)
 8005c36:	689b      	ldr	r3, [r3, #8]
 8005c38:	f003 030c 	and.w	r3, r3, #12
 8005c3c:	61bb      	str	r3, [r7, #24]
  pll_config = __HAL_RCC_GET_PLL_OSCSOURCE();
 8005c3e:	4b9e      	ldr	r3, [pc, #632]	; (8005eb8 <HAL_RCC_OscConfig+0x298>)
 8005c40:	68db      	ldr	r3, [r3, #12]
 8005c42:	f003 0303 	and.w	r3, r3, #3
 8005c46:	617b      	str	r3, [r7, #20]

  /*----------------------------- MSI Configuration --------------------------*/
  if(((RCC_OscInitStruct->OscillatorType) & RCC_OSCILLATORTYPE_MSI) == RCC_OSCILLATORTYPE_MSI)
 8005c48:	687b      	ldr	r3, [r7, #4]
 8005c4a:	681b      	ldr	r3, [r3, #0]
 8005c4c:	f003 0310 	and.w	r3, r3, #16
 8005c50:	2b00      	cmp	r3, #0
 8005c52:	f000 80e4 	beq.w	8005e1e <HAL_RCC_OscConfig+0x1fe>
    assert_param(IS_RCC_MSI(RCC_OscInitStruct->MSIState));
    assert_param(IS_RCC_MSICALIBRATION_VALUE(RCC_OscInitStruct->MSICalibrationValue));
    assert_param(IS_RCC_MSI_CLOCK_RANGE(RCC_OscInitStruct->MSIClockRange));

    /* Check if MSI is used as system clock or as PLL source when PLL is selected as system clock */
    if((sysclk_source == RCC_CFGR_SWS_MSI) ||
 8005c56:	69bb      	ldr	r3, [r7, #24]
 8005c58:	2b00      	cmp	r3, #0
 8005c5a:	d007      	beq.n	8005c6c <HAL_RCC_OscConfig+0x4c>
 8005c5c:	69bb      	ldr	r3, [r7, #24]
 8005c5e:	2b0c      	cmp	r3, #12
 8005c60:	f040 808b 	bne.w	8005d7a <HAL_RCC_OscConfig+0x15a>
       ((sysclk_source == RCC_CFGR_SWS_PLL) && (pll_config == RCC_PLLSOURCE_MSI)))
 8005c64:	697b      	ldr	r3, [r7, #20]
 8005c66:	2b01      	cmp	r3, #1
 8005c68:	f040 8087 	bne.w	8005d7a <HAL_RCC_OscConfig+0x15a>
    {
      if((READ_BIT(RCC->CR, RCC_CR_MSIRDY) != 0U) && (RCC_OscInitStruct->MSIState == RCC_MSI_OFF))
 8005c6c:	4b92      	ldr	r3, [pc, #584]	; (8005eb8 <HAL_RCC_OscConfig+0x298>)
 8005c6e:	681b      	ldr	r3, [r3, #0]
 8005c70:	f003 0302 	and.w	r3, r3, #2
 8005c74:	2b00      	cmp	r3, #0
 8005c76:	d005      	beq.n	8005c84 <HAL_RCC_OscConfig+0x64>
 8005c78:	687b      	ldr	r3, [r7, #4]
 8005c7a:	699b      	ldr	r3, [r3, #24]
 8005c7c:	2b00      	cmp	r3, #0
 8005c7e:	d101      	bne.n	8005c84 <HAL_RCC_OscConfig+0x64>
      {
        return HAL_ERROR;
 8005c80:	2301      	movs	r3, #1
 8005c82:	e3e8      	b.n	8006456 <HAL_RCC_OscConfig+0x836>
      else
      {
        /* To correctly read data from FLASH memory, the number of wait states (LATENCY)
           must be correctly programmed according to the frequency of the CPU clock
           (HCLK) and the supply voltage of the device. */
        if(RCC_OscInitStruct->MSIClockRange > __HAL_RCC_GET_MSI_RANGE())
 8005c84:	687b      	ldr	r3, [r7, #4]
 8005c86:	6a1a      	ldr	r2, [r3, #32]
 8005c88:	4b8b      	ldr	r3, [pc, #556]	; (8005eb8 <HAL_RCC_OscConfig+0x298>)
 8005c8a:	681b      	ldr	r3, [r3, #0]
 8005c8c:	f003 0308 	and.w	r3, r3, #8
 8005c90:	2b00      	cmp	r3, #0
 8005c92:	d004      	beq.n	8005c9e <HAL_RCC_OscConfig+0x7e>
 8005c94:	4b88      	ldr	r3, [pc, #544]	; (8005eb8 <HAL_RCC_OscConfig+0x298>)
 8005c96:	681b      	ldr	r3, [r3, #0]
 8005c98:	f003 03f0 	and.w	r3, r3, #240	; 0xf0
 8005c9c:	e005      	b.n	8005caa <HAL_RCC_OscConfig+0x8a>
 8005c9e:	4b86      	ldr	r3, [pc, #536]	; (8005eb8 <HAL_RCC_OscConfig+0x298>)
 8005ca0:	f8d3 3094 	ldr.w	r3, [r3, #148]	; 0x94
 8005ca4:	091b      	lsrs	r3, r3, #4
 8005ca6:	f003 03f0 	and.w	r3, r3, #240	; 0xf0
 8005caa:	4293      	cmp	r3, r2
 8005cac:	d223      	bcs.n	8005cf6 <HAL_RCC_OscConfig+0xd6>
        {
          /* First increase number of wait states update if necessary */
          if(RCC_SetFlashLatencyFromMSIRange(RCC_OscInitStruct->MSIClockRange) != HAL_OK)
 8005cae:	687b      	ldr	r3, [r7, #4]
 8005cb0:	6a1b      	ldr	r3, [r3, #32]
 8005cb2:	4618      	mov	r0, r3
 8005cb4:	f000 fd78 	bl	80067a8 <RCC_SetFlashLatencyFromMSIRange>
 8005cb8:	4603      	mov	r3, r0
 8005cba:	2b00      	cmp	r3, #0
 8005cbc:	d001      	beq.n	8005cc2 <HAL_RCC_OscConfig+0xa2>
          {
            return HAL_ERROR;
 8005cbe:	2301      	movs	r3, #1
 8005cc0:	e3c9      	b.n	8006456 <HAL_RCC_OscConfig+0x836>
          }

          /* Selects the Multiple Speed oscillator (MSI) clock range .*/
          __HAL_RCC_MSI_RANGE_CONFIG(RCC_OscInitStruct->MSIClockRange);
 8005cc2:	4b7d      	ldr	r3, [pc, #500]	; (8005eb8 <HAL_RCC_OscConfig+0x298>)
 8005cc4:	681b      	ldr	r3, [r3, #0]
 8005cc6:	4a7c      	ldr	r2, [pc, #496]	; (8005eb8 <HAL_RCC_OscConfig+0x298>)
 8005cc8:	f043 0308 	orr.w	r3, r3, #8
 8005ccc:	6013      	str	r3, [r2, #0]
 8005cce:	4b7a      	ldr	r3, [pc, #488]	; (8005eb8 <HAL_RCC_OscConfig+0x298>)
 8005cd0:	681b      	ldr	r3, [r3, #0]
 8005cd2:	f023 02f0 	bic.w	r2, r3, #240	; 0xf0
 8005cd6:	687b      	ldr	r3, [r7, #4]
 8005cd8:	6a1b      	ldr	r3, [r3, #32]
 8005cda:	4977      	ldr	r1, [pc, #476]	; (8005eb8 <HAL_RCC_OscConfig+0x298>)
 8005cdc:	4313      	orrs	r3, r2
 8005cde:	600b      	str	r3, [r1, #0]
          /* Adjusts the Multiple Speed oscillator (MSI) calibration value.*/
          __HAL_RCC_MSI_CALIBRATIONVALUE_ADJUST(RCC_OscInitStruct->MSICalibrationValue);
 8005ce0:	4b75      	ldr	r3, [pc, #468]	; (8005eb8 <HAL_RCC_OscConfig+0x298>)
 8005ce2:	685b      	ldr	r3, [r3, #4]
 8005ce4:	f423 427f 	bic.w	r2, r3, #65280	; 0xff00
 8005ce8:	687b      	ldr	r3, [r7, #4]
 8005cea:	69db      	ldr	r3, [r3, #28]
 8005cec:	021b      	lsls	r3, r3, #8
 8005cee:	4972      	ldr	r1, [pc, #456]	; (8005eb8 <HAL_RCC_OscConfig+0x298>)
 8005cf0:	4313      	orrs	r3, r2
 8005cf2:	604b      	str	r3, [r1, #4]
 8005cf4:	e025      	b.n	8005d42 <HAL_RCC_OscConfig+0x122>
        }
        else
        {
          /* Else, keep current flash latency while decreasing applies */
          /* Selects the Multiple Speed oscillator (MSI) clock range .*/
          __HAL_RCC_MSI_RANGE_CONFIG(RCC_OscInitStruct->MSIClockRange);
 8005cf6:	4b70      	ldr	r3, [pc, #448]	; (8005eb8 <HAL_RCC_OscConfig+0x298>)
 8005cf8:	681b      	ldr	r3, [r3, #0]
 8005cfa:	4a6f      	ldr	r2, [pc, #444]	; (8005eb8 <HAL_RCC_OscConfig+0x298>)
 8005cfc:	f043 0308 	orr.w	r3, r3, #8
 8005d00:	6013      	str	r3, [r2, #0]
 8005d02:	4b6d      	ldr	r3, [pc, #436]	; (8005eb8 <HAL_RCC_OscConfig+0x298>)
 8005d04:	681b      	ldr	r3, [r3, #0]
 8005d06:	f023 02f0 	bic.w	r2, r3, #240	; 0xf0
 8005d0a:	687b      	ldr	r3, [r7, #4]
 8005d0c:	6a1b      	ldr	r3, [r3, #32]
 8005d0e:	496a      	ldr	r1, [pc, #424]	; (8005eb8 <HAL_RCC_OscConfig+0x298>)
 8005d10:	4313      	orrs	r3, r2
 8005d12:	600b      	str	r3, [r1, #0]
          /* Adjusts the Multiple Speed oscillator (MSI) calibration value.*/
          __HAL_RCC_MSI_CALIBRATIONVALUE_ADJUST(RCC_OscInitStruct->MSICalibrationValue);
 8005d14:	4b68      	ldr	r3, [pc, #416]	; (8005eb8 <HAL_RCC_OscConfig+0x298>)
 8005d16:	685b      	ldr	r3, [r3, #4]
 8005d18:	f423 427f 	bic.w	r2, r3, #65280	; 0xff00
 8005d1c:	687b      	ldr	r3, [r7, #4]
 8005d1e:	69db      	ldr	r3, [r3, #28]
 8005d20:	021b      	lsls	r3, r3, #8
 8005d22:	4965      	ldr	r1, [pc, #404]	; (8005eb8 <HAL_RCC_OscConfig+0x298>)
 8005d24:	4313      	orrs	r3, r2
 8005d26:	604b      	str	r3, [r1, #4]

          /* Decrease number of wait states update if necessary */
          /* Only possible when MSI is the System clock source  */
          if(sysclk_source == RCC_CFGR_SWS_MSI)
 8005d28:	69bb      	ldr	r3, [r7, #24]
 8005d2a:	2b00      	cmp	r3, #0
 8005d2c:	d109      	bne.n	8005d42 <HAL_RCC_OscConfig+0x122>
          {
            if(RCC_SetFlashLatencyFromMSIRange(RCC_OscInitStruct->MSIClockRange) != HAL_OK)
 8005d2e:	687b      	ldr	r3, [r7, #4]
 8005d30:	6a1b      	ldr	r3, [r3, #32]
 8005d32:	4618      	mov	r0, r3
 8005d34:	f000 fd38 	bl	80067a8 <RCC_SetFlashLatencyFromMSIRange>
 8005d38:	4603      	mov	r3, r0
 8005d3a:	2b00      	cmp	r3, #0
 8005d3c:	d001      	beq.n	8005d42 <HAL_RCC_OscConfig+0x122>
            {
              return HAL_ERROR;
 8005d3e:	2301      	movs	r3, #1
 8005d40:	e389      	b.n	8006456 <HAL_RCC_OscConfig+0x836>
            }
          }
        }

        /* Update the SystemCoreClock global variable */
        SystemCoreClock = HAL_RCC_GetSysClockFreq() >> (AHBPrescTable[READ_BIT(RCC->CFGR, RCC_CFGR_HPRE) >> RCC_CFGR_HPRE_Pos] & 0x1FU);
 8005d42:	f000 fc6f 	bl	8006624 <HAL_RCC_GetSysClockFreq>
 8005d46:	4601      	mov	r1, r0
 8005d48:	4b5b      	ldr	r3, [pc, #364]	; (8005eb8 <HAL_RCC_OscConfig+0x298>)
 8005d4a:	689b      	ldr	r3, [r3, #8]
 8005d4c:	091b      	lsrs	r3, r3, #4
 8005d4e:	f003 030f 	and.w	r3, r3, #15
 8005d52:	4a5a      	ldr	r2, [pc, #360]	; (8005ebc <HAL_RCC_OscConfig+0x29c>)
 8005d54:	5cd3      	ldrb	r3, [r2, r3]
 8005d56:	f003 031f 	and.w	r3, r3, #31
 8005d5a:	fa21 f303 	lsr.w	r3, r1, r3
 8005d5e:	4a58      	ldr	r2, [pc, #352]	; (8005ec0 <HAL_RCC_OscConfig+0x2a0>)
 8005d60:	6013      	str	r3, [r2, #0]

        /* Configure the source of time base considering new system clocks settings*/
        status = HAL_InitTick(uwTickPrio);
 8005d62:	4b58      	ldr	r3, [pc, #352]	; (8005ec4 <HAL_RCC_OscConfig+0x2a4>)
 8005d64:	681b      	ldr	r3, [r3, #0]
 8005d66:	4618      	mov	r0, r3
 8005d68:	f7fd f9c2 	bl	80030f0 <HAL_InitTick>
 8005d6c:	4603      	mov	r3, r0
 8005d6e:	73fb      	strb	r3, [r7, #15]
        if(status != HAL_OK)
 8005d70:	7bfb      	ldrb	r3, [r7, #15]
 8005d72:	2b00      	cmp	r3, #0
 8005d74:	d052      	beq.n	8005e1c <HAL_RCC_OscConfig+0x1fc>
        {
          return status;
 8005d76:	7bfb      	ldrb	r3, [r7, #15]
 8005d78:	e36d      	b.n	8006456 <HAL_RCC_OscConfig+0x836>
      }
    }
    else
    {
      /* Check the MSI State */
      if(RCC_OscInitStruct->MSIState != RCC_MSI_OFF)
 8005d7a:	687b      	ldr	r3, [r7, #4]
 8005d7c:	699b      	ldr	r3, [r3, #24]
 8005d7e:	2b00      	cmp	r3, #0
 8005d80:	d032      	beq.n	8005de8 <HAL_RCC_OscConfig+0x1c8>
      {
        /* Enable the Internal High Speed oscillator (MSI). */
        __HAL_RCC_MSI_ENABLE();
 8005d82:	4b4d      	ldr	r3, [pc, #308]	; (8005eb8 <HAL_RCC_OscConfig+0x298>)
 8005d84:	681b      	ldr	r3, [r3, #0]
 8005d86:	4a4c      	ldr	r2, [pc, #304]	; (8005eb8 <HAL_RCC_OscConfig+0x298>)
 8005d88:	f043 0301 	orr.w	r3, r3, #1
 8005d8c:	6013      	str	r3, [r2, #0]

        /* Get timeout */
        tickstart = HAL_GetTick();
 8005d8e:	f7fd f9ff 	bl	8003190 <HAL_GetTick>
 8005d92:	6138      	str	r0, [r7, #16]

        /* Wait till MSI is ready */
        while(READ_BIT(RCC->CR, RCC_CR_MSIRDY) == 0U)
 8005d94:	e008      	b.n	8005da8 <HAL_RCC_OscConfig+0x188>
        {
          if((HAL_GetTick() - tickstart) > MSI_TIMEOUT_VALUE)
 8005d96:	f7fd f9fb 	bl	8003190 <HAL_GetTick>
 8005d9a:	4602      	mov	r2, r0
 8005d9c:	693b      	ldr	r3, [r7, #16]
 8005d9e:	1ad3      	subs	r3, r2, r3
 8005da0:	2b02      	cmp	r3, #2
 8005da2:	d901      	bls.n	8005da8 <HAL_RCC_OscConfig+0x188>
          {
            return HAL_TIMEOUT;
 8005da4:	2303      	movs	r3, #3
 8005da6:	e356      	b.n	8006456 <HAL_RCC_OscConfig+0x836>
        while(READ_BIT(RCC->CR, RCC_CR_MSIRDY) == 0U)
 8005da8:	4b43      	ldr	r3, [pc, #268]	; (8005eb8 <HAL_RCC_OscConfig+0x298>)
 8005daa:	681b      	ldr	r3, [r3, #0]
 8005dac:	f003 0302 	and.w	r3, r3, #2
 8005db0:	2b00      	cmp	r3, #0
 8005db2:	d0f0      	beq.n	8005d96 <HAL_RCC_OscConfig+0x176>
          }
        }
         /* Selects the Multiple Speed oscillator (MSI) clock range .*/
        __HAL_RCC_MSI_RANGE_CONFIG(RCC_OscInitStruct->MSIClockRange);
 8005db4:	4b40      	ldr	r3, [pc, #256]	; (8005eb8 <HAL_RCC_OscConfig+0x298>)
 8005db6:	681b      	ldr	r3, [r3, #0]
 8005db8:	4a3f      	ldr	r2, [pc, #252]	; (8005eb8 <HAL_RCC_OscConfig+0x298>)
 8005dba:	f043 0308 	orr.w	r3, r3, #8
 8005dbe:	6013      	str	r3, [r2, #0]
 8005dc0:	4b3d      	ldr	r3, [pc, #244]	; (8005eb8 <HAL_RCC_OscConfig+0x298>)
 8005dc2:	681b      	ldr	r3, [r3, #0]
 8005dc4:	f023 02f0 	bic.w	r2, r3, #240	; 0xf0
 8005dc8:	687b      	ldr	r3, [r7, #4]
 8005dca:	6a1b      	ldr	r3, [r3, #32]
 8005dcc:	493a      	ldr	r1, [pc, #232]	; (8005eb8 <HAL_RCC_OscConfig+0x298>)
 8005dce:	4313      	orrs	r3, r2
 8005dd0:	600b      	str	r3, [r1, #0]
         /* Adjusts the Multiple Speed oscillator (MSI) calibration value.*/
        __HAL_RCC_MSI_CALIBRATIONVALUE_ADJUST(RCC_OscInitStruct->MSICalibrationValue);
 8005dd2:	4b39      	ldr	r3, [pc, #228]	; (8005eb8 <HAL_RCC_OscConfig+0x298>)
 8005dd4:	685b      	ldr	r3, [r3, #4]
 8005dd6:	f423 427f 	bic.w	r2, r3, #65280	; 0xff00
 8005dda:	687b      	ldr	r3, [r7, #4]
 8005ddc:	69db      	ldr	r3, [r3, #28]
 8005dde:	021b      	lsls	r3, r3, #8
 8005de0:	4935      	ldr	r1, [pc, #212]	; (8005eb8 <HAL_RCC_OscConfig+0x298>)
 8005de2:	4313      	orrs	r3, r2
 8005de4:	604b      	str	r3, [r1, #4]
 8005de6:	e01a      	b.n	8005e1e <HAL_RCC_OscConfig+0x1fe>

      }
      else
      {
        /* Disable the Internal High Speed oscillator (MSI). */
        __HAL_RCC_MSI_DISABLE();
 8005de8:	4b33      	ldr	r3, [pc, #204]	; (8005eb8 <HAL_RCC_OscConfig+0x298>)
 8005dea:	681b      	ldr	r3, [r3, #0]
 8005dec:	4a32      	ldr	r2, [pc, #200]	; (8005eb8 <HAL_RCC_OscConfig+0x298>)
 8005dee:	f023 0301 	bic.w	r3, r3, #1
 8005df2:	6013      	str	r3, [r2, #0]

        /* Get timeout */
        tickstart = HAL_GetTick();
 8005df4:	f7fd f9cc 	bl	8003190 <HAL_GetTick>
 8005df8:	6138      	str	r0, [r7, #16]

        /* Wait till MSI is ready */
        while(READ_BIT(RCC->CR, RCC_CR_MSIRDY) != 0U)
 8005dfa:	e008      	b.n	8005e0e <HAL_RCC_OscConfig+0x1ee>
        {
          if((HAL_GetTick() - tickstart) > MSI_TIMEOUT_VALUE)
 8005dfc:	f7fd f9c8 	bl	8003190 <HAL_GetTick>
 8005e00:	4602      	mov	r2, r0
 8005e02:	693b      	ldr	r3, [r7, #16]
 8005e04:	1ad3      	subs	r3, r2, r3
 8005e06:	2b02      	cmp	r3, #2
 8005e08:	d901      	bls.n	8005e0e <HAL_RCC_OscConfig+0x1ee>
          {
            return HAL_TIMEOUT;
 8005e0a:	2303      	movs	r3, #3
 8005e0c:	e323      	b.n	8006456 <HAL_RCC_OscConfig+0x836>
        while(READ_BIT(RCC->CR, RCC_CR_MSIRDY) != 0U)
 8005e0e:	4b2a      	ldr	r3, [pc, #168]	; (8005eb8 <HAL_RCC_OscConfig+0x298>)
 8005e10:	681b      	ldr	r3, [r3, #0]
 8005e12:	f003 0302 	and.w	r3, r3, #2
 8005e16:	2b00      	cmp	r3, #0
 8005e18:	d1f0      	bne.n	8005dfc <HAL_RCC_OscConfig+0x1dc>
 8005e1a:	e000      	b.n	8005e1e <HAL_RCC_OscConfig+0x1fe>
      if((READ_BIT(RCC->CR, RCC_CR_MSIRDY) != 0U) && (RCC_OscInitStruct->MSIState == RCC_MSI_OFF))
 8005e1c:	bf00      	nop
        }
      }
    }
  }
  /*------------------------------- HSE Configuration ------------------------*/
  if(((RCC_OscInitStruct->OscillatorType) & RCC_OSCILLATORTYPE_HSE) == RCC_OSCILLATORTYPE_HSE)
 8005e1e:	687b      	ldr	r3, [r7, #4]
 8005e20:	681b      	ldr	r3, [r3, #0]
 8005e22:	f003 0301 	and.w	r3, r3, #1
 8005e26:	2b00      	cmp	r3, #0
 8005e28:	d073      	beq.n	8005f12 <HAL_RCC_OscConfig+0x2f2>
  {
    /* Check the parameters */
    assert_param(IS_RCC_HSE(RCC_OscInitStruct->HSEState));

    /* When the HSE is used as system clock or clock source for PLL in these cases it is not allowed to be disabled */
    if((sysclk_source == RCC_CFGR_SWS_HSE) ||
 8005e2a:	69bb      	ldr	r3, [r7, #24]
 8005e2c:	2b08      	cmp	r3, #8
 8005e2e:	d005      	beq.n	8005e3c <HAL_RCC_OscConfig+0x21c>
 8005e30:	69bb      	ldr	r3, [r7, #24]
 8005e32:	2b0c      	cmp	r3, #12
 8005e34:	d10e      	bne.n	8005e54 <HAL_RCC_OscConfig+0x234>
       ((sysclk_source == RCC_CFGR_SWS_PLL) && (pll_config == RCC_PLLSOURCE_HSE)))
 8005e36:	697b      	ldr	r3, [r7, #20]
 8005e38:	2b03      	cmp	r3, #3
 8005e3a:	d10b      	bne.n	8005e54 <HAL_RCC_OscConfig+0x234>
    {
      if((READ_BIT(RCC->CR, RCC_CR_HSERDY) != 0U) && (RCC_OscInitStruct->HSEState == RCC_HSE_OFF))
 8005e3c:	4b1e      	ldr	r3, [pc, #120]	; (8005eb8 <HAL_RCC_OscConfig+0x298>)
 8005e3e:	681b      	ldr	r3, [r3, #0]
 8005e40:	f403 3300 	and.w	r3, r3, #131072	; 0x20000
 8005e44:	2b00      	cmp	r3, #0
 8005e46:	d063      	beq.n	8005f10 <HAL_RCC_OscConfig+0x2f0>
 8005e48:	687b      	ldr	r3, [r7, #4]
 8005e4a:	685b      	ldr	r3, [r3, #4]
 8005e4c:	2b00      	cmp	r3, #0
 8005e4e:	d15f      	bne.n	8005f10 <HAL_RCC_OscConfig+0x2f0>
      {
        return HAL_ERROR;
 8005e50:	2301      	movs	r3, #1
 8005e52:	e300      	b.n	8006456 <HAL_RCC_OscConfig+0x836>
      }
    }
    else
    {
      /* Set the new HSE configuration ---------------------------------------*/
      __HAL_RCC_HSE_CONFIG(RCC_OscInitStruct->HSEState);
 8005e54:	687b      	ldr	r3, [r7, #4]
 8005e56:	685b      	ldr	r3, [r3, #4]
 8005e58:	f5b3 3f80 	cmp.w	r3, #65536	; 0x10000
 8005e5c:	d106      	bne.n	8005e6c <HAL_RCC_OscConfig+0x24c>
 8005e5e:	4b16      	ldr	r3, [pc, #88]	; (8005eb8 <HAL_RCC_OscConfig+0x298>)
 8005e60:	681b      	ldr	r3, [r3, #0]
 8005e62:	4a15      	ldr	r2, [pc, #84]	; (8005eb8 <HAL_RCC_OscConfig+0x298>)
 8005e64:	f443 3380 	orr.w	r3, r3, #65536	; 0x10000
 8005e68:	6013      	str	r3, [r2, #0]
 8005e6a:	e01d      	b.n	8005ea8 <HAL_RCC_OscConfig+0x288>
 8005e6c:	687b      	ldr	r3, [r7, #4]
 8005e6e:	685b      	ldr	r3, [r3, #4]
 8005e70:	f5b3 2fa0 	cmp.w	r3, #327680	; 0x50000
 8005e74:	d10c      	bne.n	8005e90 <HAL_RCC_OscConfig+0x270>
 8005e76:	4b10      	ldr	r3, [pc, #64]	; (8005eb8 <HAL_RCC_OscConfig+0x298>)
 8005e78:	681b      	ldr	r3, [r3, #0]
 8005e7a:	4a0f      	ldr	r2, [pc, #60]	; (8005eb8 <HAL_RCC_OscConfig+0x298>)
 8005e7c:	f443 2380 	orr.w	r3, r3, #262144	; 0x40000
 8005e80:	6013      	str	r3, [r2, #0]
 8005e82:	4b0d      	ldr	r3, [pc, #52]	; (8005eb8 <HAL_RCC_OscConfig+0x298>)
 8005e84:	681b      	ldr	r3, [r3, #0]
 8005e86:	4a0c      	ldr	r2, [pc, #48]	; (8005eb8 <HAL_RCC_OscConfig+0x298>)
 8005e88:	f443 3380 	orr.w	r3, r3, #65536	; 0x10000
 8005e8c:	6013      	str	r3, [r2, #0]
 8005e8e:	e00b      	b.n	8005ea8 <HAL_RCC_OscConfig+0x288>
 8005e90:	4b09      	ldr	r3, [pc, #36]	; (8005eb8 <HAL_RCC_OscConfig+0x298>)
 8005e92:	681b      	ldr	r3, [r3, #0]
 8005e94:	4a08      	ldr	r2, [pc, #32]	; (8005eb8 <HAL_RCC_OscConfig+0x298>)
 8005e96:	f423 3380 	bic.w	r3, r3, #65536	; 0x10000
 8005e9a:	6013      	str	r3, [r2, #0]
 8005e9c:	4b06      	ldr	r3, [pc, #24]	; (8005eb8 <HAL_RCC_OscConfig+0x298>)
 8005e9e:	681b      	ldr	r3, [r3, #0]
 8005ea0:	4a05      	ldr	r2, [pc, #20]	; (8005eb8 <HAL_RCC_OscConfig+0x298>)
 8005ea2:	f423 2380 	bic.w	r3, r3, #262144	; 0x40000
 8005ea6:	6013      	str	r3, [r2, #0]

      /* Check the HSE State */
      if(RCC_OscInitStruct->HSEState != RCC_HSE_OFF)
 8005ea8:	687b      	ldr	r3, [r7, #4]
 8005eaa:	685b      	ldr	r3, [r3, #4]
 8005eac:	2b00      	cmp	r3, #0
 8005eae:	d01b      	beq.n	8005ee8 <HAL_RCC_OscConfig+0x2c8>
      {
        /* Get Start Tick*/
        tickstart = HAL_GetTick();
 8005eb0:	f7fd f96e 	bl	8003190 <HAL_GetTick>
 8005eb4:	6138      	str	r0, [r7, #16]

        /* Wait till HSE is ready */
        while(READ_BIT(RCC->CR, RCC_CR_HSERDY) == 0U)
 8005eb6:	e010      	b.n	8005eda <HAL_RCC_OscConfig+0x2ba>
 8005eb8:	40021000 	.word	0x40021000
 8005ebc:	0800b838 	.word	0x0800b838
 8005ec0:	200007d8 	.word	0x200007d8
 8005ec4:	200007dc 	.word	0x200007dc
        {
          if((HAL_GetTick() - tickstart) > HSE_TIMEOUT_VALUE)
 8005ec8:	f7fd f962 	bl	8003190 <HAL_GetTick>
 8005ecc:	4602      	mov	r2, r0
 8005ece:	693b      	ldr	r3, [r7, #16]
 8005ed0:	1ad3      	subs	r3, r2, r3
 8005ed2:	2b64      	cmp	r3, #100	; 0x64
 8005ed4:	d901      	bls.n	8005eda <HAL_RCC_OscConfig+0x2ba>
          {
            return HAL_TIMEOUT;
 8005ed6:	2303      	movs	r3, #3
 8005ed8:	e2bd      	b.n	8006456 <HAL_RCC_OscConfig+0x836>
        while(READ_BIT(RCC->CR, RCC_CR_HSERDY) == 0U)
 8005eda:	4baf      	ldr	r3, [pc, #700]	; (8006198 <HAL_RCC_OscConfig+0x578>)
 8005edc:	681b      	ldr	r3, [r3, #0]
 8005ede:	f403 3300 	and.w	r3, r3, #131072	; 0x20000
 8005ee2:	2b00      	cmp	r3, #0
 8005ee4:	d0f0      	beq.n	8005ec8 <HAL_RCC_OscConfig+0x2a8>
 8005ee6:	e014      	b.n	8005f12 <HAL_RCC_OscConfig+0x2f2>
        }
      }
      else
      {
        /* Get Start Tick*/
        tickstart = HAL_GetTick();
 8005ee8:	f7fd f952 	bl	8003190 <HAL_GetTick>
 8005eec:	6138      	str	r0, [r7, #16]

        /* Wait till HSE is disabled */
        while(READ_BIT(RCC->CR, RCC_CR_HSERDY) != 0U)
 8005eee:	e008      	b.n	8005f02 <HAL_RCC_OscConfig+0x2e2>
        {
          if((HAL_GetTick() - tickstart) > HSE_TIMEOUT_VALUE)
 8005ef0:	f7fd f94e 	bl	8003190 <HAL_GetTick>
 8005ef4:	4602      	mov	r2, r0
 8005ef6:	693b      	ldr	r3, [r7, #16]
 8005ef8:	1ad3      	subs	r3, r2, r3
 8005efa:	2b64      	cmp	r3, #100	; 0x64
 8005efc:	d901      	bls.n	8005f02 <HAL_RCC_OscConfig+0x2e2>
          {
            return HAL_TIMEOUT;
 8005efe:	2303      	movs	r3, #3
 8005f00:	e2a9      	b.n	8006456 <HAL_RCC_OscConfig+0x836>
        while(READ_BIT(RCC->CR, RCC_CR_HSERDY) != 0U)
 8005f02:	4ba5      	ldr	r3, [pc, #660]	; (8006198 <HAL_RCC_OscConfig+0x578>)
 8005f04:	681b      	ldr	r3, [r3, #0]
 8005f06:	f403 3300 	and.w	r3, r3, #131072	; 0x20000
 8005f0a:	2b00      	cmp	r3, #0
 8005f0c:	d1f0      	bne.n	8005ef0 <HAL_RCC_OscConfig+0x2d0>
 8005f0e:	e000      	b.n	8005f12 <HAL_RCC_OscConfig+0x2f2>
      if((READ_BIT(RCC->CR, RCC_CR_HSERDY) != 0U) && (RCC_OscInitStruct->HSEState == RCC_HSE_OFF))
 8005f10:	bf00      	nop
        }
      }
    }
  }
  /*----------------------------- HSI Configuration --------------------------*/
  if(((RCC_OscInitStruct->OscillatorType) & RCC_OSCILLATORTYPE_HSI) == RCC_OSCILLATORTYPE_HSI)
 8005f12:	687b      	ldr	r3, [r7, #4]
 8005f14:	681b      	ldr	r3, [r3, #0]
 8005f16:	f003 0302 	and.w	r3, r3, #2
 8005f1a:	2b00      	cmp	r3, #0
 8005f1c:	d060      	beq.n	8005fe0 <HAL_RCC_OscConfig+0x3c0>
    /* Check the parameters */
    assert_param(IS_RCC_HSI(RCC_OscInitStruct->HSIState));
    assert_param(IS_RCC_HSI_CALIBRATION_VALUE(RCC_OscInitStruct->HSICalibrationValue));

    /* Check if HSI is used as system clock or as PLL source when PLL is selected as system clock */
    if((sysclk_source == RCC_CFGR_SWS_HSI) ||
 8005f1e:	69bb      	ldr	r3, [r7, #24]
 8005f20:	2b04      	cmp	r3, #4
 8005f22:	d005      	beq.n	8005f30 <HAL_RCC_OscConfig+0x310>
 8005f24:	69bb      	ldr	r3, [r7, #24]
 8005f26:	2b0c      	cmp	r3, #12
 8005f28:	d119      	bne.n	8005f5e <HAL_RCC_OscConfig+0x33e>
       ((sysclk_source == RCC_CFGR_SWS_PLL) && (pll_config == RCC_PLLSOURCE_HSI)))
 8005f2a:	697b      	ldr	r3, [r7, #20]
 8005f2c:	2b02      	cmp	r3, #2
 8005f2e:	d116      	bne.n	8005f5e <HAL_RCC_OscConfig+0x33e>
    {
      /* When HSI is used as system clock it will not be disabled */
      if((READ_BIT(RCC->CR, RCC_CR_HSIRDY) != 0U) && (RCC_OscInitStruct->HSIState == RCC_HSI_OFF))
 8005f30:	4b99      	ldr	r3, [pc, #612]	; (8006198 <HAL_RCC_OscConfig+0x578>)
 8005f32:	681b      	ldr	r3, [r3, #0]
 8005f34:	f403 6380 	and.w	r3, r3, #1024	; 0x400
 8005f38:	2b00      	cmp	r3, #0
 8005f3a:	d005      	beq.n	8005f48 <HAL_RCC_OscConfig+0x328>
 8005f3c:	687b      	ldr	r3, [r7, #4]
 8005f3e:	68db      	ldr	r3, [r3, #12]
 8005f40:	2b00      	cmp	r3, #0
 8005f42:	d101      	bne.n	8005f48 <HAL_RCC_OscConfig+0x328>
      {
        return HAL_ERROR;
 8005f44:	2301      	movs	r3, #1
 8005f46:	e286      	b.n	8006456 <HAL_RCC_OscConfig+0x836>
      }
      /* Otherwise, just the calibration is allowed */
      else
      {
        /* Adjusts the Internal High Speed oscillator (HSI) calibration value.*/
        __HAL_RCC_HSI_CALIBRATIONVALUE_ADJUST(RCC_OscInitStruct->HSICalibrationValue);
 8005f48:	4b93      	ldr	r3, [pc, #588]	; (8006198 <HAL_RCC_OscConfig+0x578>)
 8005f4a:	685b      	ldr	r3, [r3, #4]
 8005f4c:	f023 42fe 	bic.w	r2, r3, #2130706432	; 0x7f000000
 8005f50:	687b      	ldr	r3, [r7, #4]
 8005f52:	691b      	ldr	r3, [r3, #16]
 8005f54:	061b      	lsls	r3, r3, #24
 8005f56:	4990      	ldr	r1, [pc, #576]	; (8006198 <HAL_RCC_OscConfig+0x578>)
 8005f58:	4313      	orrs	r3, r2
 8005f5a:	604b      	str	r3, [r1, #4]
      if((READ_BIT(RCC->CR, RCC_CR_HSIRDY) != 0U) && (RCC_OscInitStruct->HSIState == RCC_HSI_OFF))
 8005f5c:	e040      	b.n	8005fe0 <HAL_RCC_OscConfig+0x3c0>
      }
    }
    else
    {
      /* Check the HSI State */
      if(RCC_OscInitStruct->HSIState != RCC_HSI_OFF)
 8005f5e:	687b      	ldr	r3, [r7, #4]
 8005f60:	68db      	ldr	r3, [r3, #12]
 8005f62:	2b00      	cmp	r3, #0
 8005f64:	d023      	beq.n	8005fae <HAL_RCC_OscConfig+0x38e>
      {
        /* Enable the Internal High Speed oscillator (HSI). */
        __HAL_RCC_HSI_ENABLE();
 8005f66:	4b8c      	ldr	r3, [pc, #560]	; (8006198 <HAL_RCC_OscConfig+0x578>)
 8005f68:	681b      	ldr	r3, [r3, #0]
 8005f6a:	4a8b      	ldr	r2, [pc, #556]	; (8006198 <HAL_RCC_OscConfig+0x578>)
 8005f6c:	f443 7380 	orr.w	r3, r3, #256	; 0x100
 8005f70:	6013      	str	r3, [r2, #0]

        /* Get Start Tick*/
        tickstart = HAL_GetTick();
 8005f72:	f7fd f90d 	bl	8003190 <HAL_GetTick>
 8005f76:	6138      	str	r0, [r7, #16]

        /* Wait till HSI is ready */
        while(READ_BIT(RCC->CR, RCC_CR_HSIRDY) == 0U)
 8005f78:	e008      	b.n	8005f8c <HAL_RCC_OscConfig+0x36c>
        {
          if((HAL_GetTick() - tickstart) > HSI_TIMEOUT_VALUE)
 8005f7a:	f7fd f909 	bl	8003190 <HAL_GetTick>
 8005f7e:	4602      	mov	r2, r0
 8005f80:	693b      	ldr	r3, [r7, #16]
 8005f82:	1ad3      	subs	r3, r2, r3
 8005f84:	2b02      	cmp	r3, #2
 8005f86:	d901      	bls.n	8005f8c <HAL_RCC_OscConfig+0x36c>
          {
            return HAL_TIMEOUT;
 8005f88:	2303      	movs	r3, #3
 8005f8a:	e264      	b.n	8006456 <HAL_RCC_OscConfig+0x836>
        while(READ_BIT(RCC->CR, RCC_CR_HSIRDY) == 0U)
 8005f8c:	4b82      	ldr	r3, [pc, #520]	; (8006198 <HAL_RCC_OscConfig+0x578>)
 8005f8e:	681b      	ldr	r3, [r3, #0]
 8005f90:	f403 6380 	and.w	r3, r3, #1024	; 0x400
 8005f94:	2b00      	cmp	r3, #0
 8005f96:	d0f0      	beq.n	8005f7a <HAL_RCC_OscConfig+0x35a>
          }
        }

        /* Adjusts the Internal High Speed oscillator (HSI) calibration value.*/
        __HAL_RCC_HSI_CALIBRATIONVALUE_ADJUST(RCC_OscInitStruct->HSICalibrationValue);
 8005f98:	4b7f      	ldr	r3, [pc, #508]	; (8006198 <HAL_RCC_OscConfig+0x578>)
 8005f9a:	685b      	ldr	r3, [r3, #4]
 8005f9c:	f023 42fe 	bic.w	r2, r3, #2130706432	; 0x7f000000
 8005fa0:	687b      	ldr	r3, [r7, #4]
 8005fa2:	691b      	ldr	r3, [r3, #16]
 8005fa4:	061b      	lsls	r3, r3, #24
 8005fa6:	497c      	ldr	r1, [pc, #496]	; (8006198 <HAL_RCC_OscConfig+0x578>)
 8005fa8:	4313      	orrs	r3, r2
 8005faa:	604b      	str	r3, [r1, #4]
 8005fac:	e018      	b.n	8005fe0 <HAL_RCC_OscConfig+0x3c0>
      }
      else
      {
        /* Disable the Internal High Speed oscillator (HSI). */
        __HAL_RCC_HSI_DISABLE();
 8005fae:	4b7a      	ldr	r3, [pc, #488]	; (8006198 <HAL_RCC_OscConfig+0x578>)
 8005fb0:	681b      	ldr	r3, [r3, #0]
 8005fb2:	4a79      	ldr	r2, [pc, #484]	; (8006198 <HAL_RCC_OscConfig+0x578>)
 8005fb4:	f423 7380 	bic.w	r3, r3, #256	; 0x100
 8005fb8:	6013      	str	r3, [r2, #0]

        /* Get Start Tick*/
        tickstart = HAL_GetTick();
 8005fba:	f7fd f8e9 	bl	8003190 <HAL_GetTick>
 8005fbe:	6138      	str	r0, [r7, #16]

        /* Wait till HSI is disabled */
        while(READ_BIT(RCC->CR, RCC_CR_HSIRDY) != 0U)
 8005fc0:	e008      	b.n	8005fd4 <HAL_RCC_OscConfig+0x3b4>
        {
          if((HAL_GetTick() - tickstart) > HSI_TIMEOUT_VALUE)
 8005fc2:	f7fd f8e5 	bl	8003190 <HAL_GetTick>
 8005fc6:	4602      	mov	r2, r0
 8005fc8:	693b      	ldr	r3, [r7, #16]
 8005fca:	1ad3      	subs	r3, r2, r3
 8005fcc:	2b02      	cmp	r3, #2
 8005fce:	d901      	bls.n	8005fd4 <HAL_RCC_OscConfig+0x3b4>
          {
            return HAL_TIMEOUT;
 8005fd0:	2303      	movs	r3, #3
 8005fd2:	e240      	b.n	8006456 <HAL_RCC_OscConfig+0x836>
        while(READ_BIT(RCC->CR, RCC_CR_HSIRDY) != 0U)
 8005fd4:	4b70      	ldr	r3, [pc, #448]	; (8006198 <HAL_RCC_OscConfig+0x578>)
 8005fd6:	681b      	ldr	r3, [r3, #0]
 8005fd8:	f403 6380 	and.w	r3, r3, #1024	; 0x400
 8005fdc:	2b00      	cmp	r3, #0
 8005fde:	d1f0      	bne.n	8005fc2 <HAL_RCC_OscConfig+0x3a2>
        }
      }
    }
  }
  /*------------------------------ LSI Configuration -------------------------*/
  if(((RCC_OscInitStruct->OscillatorType) & RCC_OSCILLATORTYPE_LSI) == RCC_OSCILLATORTYPE_LSI)
 8005fe0:	687b      	ldr	r3, [r7, #4]
 8005fe2:	681b      	ldr	r3, [r3, #0]
 8005fe4:	f003 0308 	and.w	r3, r3, #8
 8005fe8:	2b00      	cmp	r3, #0
 8005fea:	d03c      	beq.n	8006066 <HAL_RCC_OscConfig+0x446>
  {
    /* Check the parameters */
    assert_param(IS_RCC_LSI(RCC_OscInitStruct->LSIState));

    /* Check the LSI State */
    if(RCC_OscInitStruct->LSIState != RCC_LSI_OFF)
 8005fec:	687b      	ldr	r3, [r7, #4]
 8005fee:	695b      	ldr	r3, [r3, #20]
 8005ff0:	2b00      	cmp	r3, #0
 8005ff2:	d01c      	beq.n	800602e <HAL_RCC_OscConfig+0x40e>
        MODIFY_REG(RCC->CSR, RCC_CSR_LSIPREDIV, RCC_OscInitStruct->LSIDiv);
      }
#endif /* RCC_CSR_LSIPREDIV */

      /* Enable the Internal Low Speed oscillator (LSI). */
      __HAL_RCC_LSI_ENABLE();
 8005ff4:	4b68      	ldr	r3, [pc, #416]	; (8006198 <HAL_RCC_OscConfig+0x578>)
 8005ff6:	f8d3 3094 	ldr.w	r3, [r3, #148]	; 0x94
 8005ffa:	4a67      	ldr	r2, [pc, #412]	; (8006198 <HAL_RCC_OscConfig+0x578>)
 8005ffc:	f043 0301 	orr.w	r3, r3, #1
 8006000:	f8c2 3094 	str.w	r3, [r2, #148]	; 0x94

      /* Get Start Tick*/
      tickstart = HAL_GetTick();
 8006004:	f7fd f8c4 	bl	8003190 <HAL_GetTick>
 8006008:	6138      	str	r0, [r7, #16]

      /* Wait till LSI is ready */
      while(READ_BIT(RCC->CSR, RCC_CSR_LSIRDY) == 0U)
 800600a:	e008      	b.n	800601e <HAL_RCC_OscConfig+0x3fe>
      {
        if((HAL_GetTick() - tickstart) > LSI_TIMEOUT_VALUE)
 800600c:	f7fd f8c0 	bl	8003190 <HAL_GetTick>
 8006010:	4602      	mov	r2, r0
 8006012:	693b      	ldr	r3, [r7, #16]
 8006014:	1ad3      	subs	r3, r2, r3
 8006016:	2b02      	cmp	r3, #2
 8006018:	d901      	bls.n	800601e <HAL_RCC_OscConfig+0x3fe>
        {
          return HAL_TIMEOUT;
 800601a:	2303      	movs	r3, #3
 800601c:	e21b      	b.n	8006456 <HAL_RCC_OscConfig+0x836>
      while(READ_BIT(RCC->CSR, RCC_CSR_LSIRDY) == 0U)
 800601e:	4b5e      	ldr	r3, [pc, #376]	; (8006198 <HAL_RCC_OscConfig+0x578>)
 8006020:	f8d3 3094 	ldr.w	r3, [r3, #148]	; 0x94
 8006024:	f003 0302 	and.w	r3, r3, #2
 8006028:	2b00      	cmp	r3, #0
 800602a:	d0ef      	beq.n	800600c <HAL_RCC_OscConfig+0x3ec>
 800602c:	e01b      	b.n	8006066 <HAL_RCC_OscConfig+0x446>
      }
    }
    else
    {
      /* Disable the Internal Low Speed oscillator (LSI). */
      __HAL_RCC_LSI_DISABLE();
 800602e:	4b5a      	ldr	r3, [pc, #360]	; (8006198 <HAL_RCC_OscConfig+0x578>)
 8006030:	f8d3 3094 	ldr.w	r3, [r3, #148]	; 0x94
 8006034:	4a58      	ldr	r2, [pc, #352]	; (8006198 <HAL_RCC_OscConfig+0x578>)
 8006036:	f023 0301 	bic.w	r3, r3, #1
 800603a:	f8c2 3094 	str.w	r3, [r2, #148]	; 0x94

      /* Get Start Tick*/
      tickstart = HAL_GetTick();
 800603e:	f7fd f8a7 	bl	8003190 <HAL_GetTick>
 8006042:	6138      	str	r0, [r7, #16]

      /* Wait till LSI is disabled */
      while(READ_BIT(RCC->CSR, RCC_CSR_LSIRDY) != 0U)
 8006044:	e008      	b.n	8006058 <HAL_RCC_OscConfig+0x438>
      {
        if((HAL_GetTick() - tickstart) > LSI_TIMEOUT_VALUE)
 8006046:	f7fd f8a3 	bl	8003190 <HAL_GetTick>
 800604a:	4602      	mov	r2, r0
 800604c:	693b      	ldr	r3, [r7, #16]
 800604e:	1ad3      	subs	r3, r2, r3
 8006050:	2b02      	cmp	r3, #2
 8006052:	d901      	bls.n	8006058 <HAL_RCC_OscConfig+0x438>
        {
          return HAL_TIMEOUT;
 8006054:	2303      	movs	r3, #3
 8006056:	e1fe      	b.n	8006456 <HAL_RCC_OscConfig+0x836>
      while(READ_BIT(RCC->CSR, RCC_CSR_LSIRDY) != 0U)
 8006058:	4b4f      	ldr	r3, [pc, #316]	; (8006198 <HAL_RCC_OscConfig+0x578>)
 800605a:	f8d3 3094 	ldr.w	r3, [r3, #148]	; 0x94
 800605e:	f003 0302 	and.w	r3, r3, #2
 8006062:	2b00      	cmp	r3, #0
 8006064:	d1ef      	bne.n	8006046 <HAL_RCC_OscConfig+0x426>
        }
      }
    }
  }
  /*------------------------------ LSE Configuration -------------------------*/
  if(((RCC_OscInitStruct->OscillatorType) & RCC_OSCILLATORTYPE_LSE) == RCC_OSCILLATORTYPE_LSE)
 8006066:	687b      	ldr	r3, [r7, #4]
 8006068:	681b      	ldr	r3, [r3, #0]
 800606a:	f003 0304 	and.w	r3, r3, #4
 800606e:	2b00      	cmp	r3, #0
 8006070:	f000 80a6 	beq.w	80061c0 <HAL_RCC_OscConfig+0x5a0>
  {
    FlagStatus       pwrclkchanged = RESET;
 8006074:	2300      	movs	r3, #0
 8006076:	77fb      	strb	r3, [r7, #31]
    /* Check the parameters */
    assert_param(IS_RCC_LSE(RCC_OscInitStruct->LSEState));

    /* Update LSE configuration in Backup Domain control register    */
    /* Requires to enable write access to Backup Domain of necessary */
    if(HAL_IS_BIT_CLR(RCC->APB1ENR1, RCC_APB1ENR1_PWREN))
 8006078:	4b47      	ldr	r3, [pc, #284]	; (8006198 <HAL_RCC_OscConfig+0x578>)
 800607a:	6d9b      	ldr	r3, [r3, #88]	; 0x58
 800607c:	f003 5380 	and.w	r3, r3, #268435456	; 0x10000000
 8006080:	2b00      	cmp	r3, #0
 8006082:	d10d      	bne.n	80060a0 <HAL_RCC_OscConfig+0x480>
    {
      __HAL_RCC_PWR_CLK_ENABLE();
 8006084:	4b44      	ldr	r3, [pc, #272]	; (8006198 <HAL_RCC_OscConfig+0x578>)
 8006086:	6d9b      	ldr	r3, [r3, #88]	; 0x58
 8006088:	4a43      	ldr	r2, [pc, #268]	; (8006198 <HAL_RCC_OscConfig+0x578>)
 800608a:	f043 5380 	orr.w	r3, r3, #268435456	; 0x10000000
 800608e:	6593      	str	r3, [r2, #88]	; 0x58
 8006090:	4b41      	ldr	r3, [pc, #260]	; (8006198 <HAL_RCC_OscConfig+0x578>)
 8006092:	6d9b      	ldr	r3, [r3, #88]	; 0x58
 8006094:	f003 5380 	and.w	r3, r3, #268435456	; 0x10000000
 8006098:	60bb      	str	r3, [r7, #8]
 800609a:	68bb      	ldr	r3, [r7, #8]
      pwrclkchanged = SET;
 800609c:	2301      	movs	r3, #1
 800609e:	77fb      	strb	r3, [r7, #31]
    }

    if(HAL_IS_BIT_CLR(PWR->CR1, PWR_CR1_DBP))
 80060a0:	4b3e      	ldr	r3, [pc, #248]	; (800619c <HAL_RCC_OscConfig+0x57c>)
 80060a2:	681b      	ldr	r3, [r3, #0]
 80060a4:	f403 7380 	and.w	r3, r3, #256	; 0x100
 80060a8:	2b00      	cmp	r3, #0
 80060aa:	d118      	bne.n	80060de <HAL_RCC_OscConfig+0x4be>
    {
      /* Enable write access to Backup domain */
      SET_BIT(PWR->CR1, PWR_CR1_DBP);
 80060ac:	4b3b      	ldr	r3, [pc, #236]	; (800619c <HAL_RCC_OscConfig+0x57c>)
 80060ae:	681b      	ldr	r3, [r3, #0]
 80060b0:	4a3a      	ldr	r2, [pc, #232]	; (800619c <HAL_RCC_OscConfig+0x57c>)
 80060b2:	f443 7380 	orr.w	r3, r3, #256	; 0x100
 80060b6:	6013      	str	r3, [r2, #0]

      /* Wait for Backup domain Write protection disable */
      tickstart = HAL_GetTick();
 80060b8:	f7fd f86a 	bl	8003190 <HAL_GetTick>
 80060bc:	6138      	str	r0, [r7, #16]

      while(HAL_IS_BIT_CLR(PWR->CR1, PWR_CR1_DBP))
 80060be:	e008      	b.n	80060d2 <HAL_RCC_OscConfig+0x4b2>
      {
        if((HAL_GetTick() - tickstart) > RCC_DBP_TIMEOUT_VALUE)
 80060c0:	f7fd f866 	bl	8003190 <HAL_GetTick>
 80060c4:	4602      	mov	r2, r0
 80060c6:	693b      	ldr	r3, [r7, #16]
 80060c8:	1ad3      	subs	r3, r2, r3
 80060ca:	2b02      	cmp	r3, #2
 80060cc:	d901      	bls.n	80060d2 <HAL_RCC_OscConfig+0x4b2>
        {
          return HAL_TIMEOUT;
 80060ce:	2303      	movs	r3, #3
 80060d0:	e1c1      	b.n	8006456 <HAL_RCC_OscConfig+0x836>
      while(HAL_IS_BIT_CLR(PWR->CR1, PWR_CR1_DBP))
 80060d2:	4b32      	ldr	r3, [pc, #200]	; (800619c <HAL_RCC_OscConfig+0x57c>)
 80060d4:	681b      	ldr	r3, [r3, #0]
 80060d6:	f403 7380 	and.w	r3, r3, #256	; 0x100
 80060da:	2b00      	cmp	r3, #0
 80060dc:	d0f0      	beq.n	80060c0 <HAL_RCC_OscConfig+0x4a0>
    {
      CLEAR_BIT(RCC->BDCR, RCC_BDCR_LSEON);
      CLEAR_BIT(RCC->BDCR, RCC_BDCR_LSEBYP);
    }
#else
    __HAL_RCC_LSE_CONFIG(RCC_OscInitStruct->LSEState);
 80060de:	687b      	ldr	r3, [r7, #4]
 80060e0:	689b      	ldr	r3, [r3, #8]
 80060e2:	2b01      	cmp	r3, #1
 80060e4:	d108      	bne.n	80060f8 <HAL_RCC_OscConfig+0x4d8>
 80060e6:	4b2c      	ldr	r3, [pc, #176]	; (8006198 <HAL_RCC_OscConfig+0x578>)
 80060e8:	f8d3 3090 	ldr.w	r3, [r3, #144]	; 0x90
 80060ec:	4a2a      	ldr	r2, [pc, #168]	; (8006198 <HAL_RCC_OscConfig+0x578>)
 80060ee:	f043 0301 	orr.w	r3, r3, #1
 80060f2:	f8c2 3090 	str.w	r3, [r2, #144]	; 0x90
 80060f6:	e024      	b.n	8006142 <HAL_RCC_OscConfig+0x522>
 80060f8:	687b      	ldr	r3, [r7, #4]
 80060fa:	689b      	ldr	r3, [r3, #8]
 80060fc:	2b05      	cmp	r3, #5
 80060fe:	d110      	bne.n	8006122 <HAL_RCC_OscConfig+0x502>
 8006100:	4b25      	ldr	r3, [pc, #148]	; (8006198 <HAL_RCC_OscConfig+0x578>)
 8006102:	f8d3 3090 	ldr.w	r3, [r3, #144]	; 0x90
 8006106:	4a24      	ldr	r2, [pc, #144]	; (8006198 <HAL_RCC_OscConfig+0x578>)
 8006108:	f043 0304 	orr.w	r3, r3, #4
 800610c:	f8c2 3090 	str.w	r3, [r2, #144]	; 0x90
 8006110:	4b21      	ldr	r3, [pc, #132]	; (8006198 <HAL_RCC_OscConfig+0x578>)
 8006112:	f8d3 3090 	ldr.w	r3, [r3, #144]	; 0x90
 8006116:	4a20      	ldr	r2, [pc, #128]	; (8006198 <HAL_RCC_OscConfig+0x578>)
 8006118:	f043 0301 	orr.w	r3, r3, #1
 800611c:	f8c2 3090 	str.w	r3, [r2, #144]	; 0x90
 8006120:	e00f      	b.n	8006142 <HAL_RCC_OscConfig+0x522>
 8006122:	4b1d      	ldr	r3, [pc, #116]	; (8006198 <HAL_RCC_OscConfig+0x578>)
 8006124:	f8d3 3090 	ldr.w	r3, [r3, #144]	; 0x90
 8006128:	4a1b      	ldr	r2, [pc, #108]	; (8006198 <HAL_RCC_OscConfig+0x578>)
 800612a:	f023 0301 	bic.w	r3, r3, #1
 800612e:	f8c2 3090 	str.w	r3, [r2, #144]	; 0x90
 8006132:	4b19      	ldr	r3, [pc, #100]	; (8006198 <HAL_RCC_OscConfig+0x578>)
 8006134:	f8d3 3090 	ldr.w	r3, [r3, #144]	; 0x90
 8006138:	4a17      	ldr	r2, [pc, #92]	; (8006198 <HAL_RCC_OscConfig+0x578>)
 800613a:	f023 0304 	bic.w	r3, r3, #4
 800613e:	f8c2 3090 	str.w	r3, [r2, #144]	; 0x90
#endif /* RCC_BDCR_LSESYSDIS */

    /* Check the LSE State */
    if(RCC_OscInitStruct->LSEState != RCC_LSE_OFF)
 8006142:	687b      	ldr	r3, [r7, #4]
 8006144:	689b      	ldr	r3, [r3, #8]
 8006146:	2b00      	cmp	r3, #0
 8006148:	d016      	beq.n	8006178 <HAL_RCC_OscConfig+0x558>
    {
      /* Get Start Tick*/
      tickstart = HAL_GetTick();
 800614a:	f7fd f821 	bl	8003190 <HAL_GetTick>
 800614e:	6138      	str	r0, [r7, #16]

      /* Wait till LSE is ready */
      while(READ_BIT(RCC->BDCR, RCC_BDCR_LSERDY) == 0U)
 8006150:	e00a      	b.n	8006168 <HAL_RCC_OscConfig+0x548>
      {
        if((HAL_GetTick() - tickstart) > RCC_LSE_TIMEOUT_VALUE)
 8006152:	f7fd f81d 	bl	8003190 <HAL_GetTick>
 8006156:	4602      	mov	r2, r0
 8006158:	693b      	ldr	r3, [r7, #16]
 800615a:	1ad3      	subs	r3, r2, r3
 800615c:	f241 3288 	movw	r2, #5000	; 0x1388
 8006160:	4293      	cmp	r3, r2
 8006162:	d901      	bls.n	8006168 <HAL_RCC_OscConfig+0x548>
        {
          return HAL_TIMEOUT;
 8006164:	2303      	movs	r3, #3
 8006166:	e176      	b.n	8006456 <HAL_RCC_OscConfig+0x836>
      while(READ_BIT(RCC->BDCR, RCC_BDCR_LSERDY) == 0U)
 8006168:	4b0b      	ldr	r3, [pc, #44]	; (8006198 <HAL_RCC_OscConfig+0x578>)
 800616a:	f8d3 3090 	ldr.w	r3, [r3, #144]	; 0x90
 800616e:	f003 0302 	and.w	r3, r3, #2
 8006172:	2b00      	cmp	r3, #0
 8006174:	d0ed      	beq.n	8006152 <HAL_RCC_OscConfig+0x532>
 8006176:	e01a      	b.n	80061ae <HAL_RCC_OscConfig+0x58e>
      }
    }
    else
    {
      /* Get Start Tick*/
      tickstart = HAL_GetTick();
 8006178:	f7fd f80a 	bl	8003190 <HAL_GetTick>
 800617c:	6138      	str	r0, [r7, #16]

      /* Wait till LSE is disabled */
      while(READ_BIT(RCC->BDCR, RCC_BDCR_LSERDY) != 0U)
 800617e:	e00f      	b.n	80061a0 <HAL_RCC_OscConfig+0x580>
      {
        if((HAL_GetTick() - tickstart) > RCC_LSE_TIMEOUT_VALUE)
 8006180:	f7fd f806 	bl	8003190 <HAL_GetTick>
 8006184:	4602      	mov	r2, r0
 8006186:	693b      	ldr	r3, [r7, #16]
 8006188:	1ad3      	subs	r3, r2, r3
 800618a:	f241 3288 	movw	r2, #5000	; 0x1388
 800618e:	4293      	cmp	r3, r2
 8006190:	d906      	bls.n	80061a0 <HAL_RCC_OscConfig+0x580>
        {
          return HAL_TIMEOUT;
 8006192:	2303      	movs	r3, #3
 8006194:	e15f      	b.n	8006456 <HAL_RCC_OscConfig+0x836>
 8006196:	bf00      	nop
 8006198:	40021000 	.word	0x40021000
 800619c:	40007000 	.word	0x40007000
      while(READ_BIT(RCC->BDCR, RCC_BDCR_LSERDY) != 0U)
 80061a0:	4baa      	ldr	r3, [pc, #680]	; (800644c <HAL_RCC_OscConfig+0x82c>)
 80061a2:	f8d3 3090 	ldr.w	r3, [r3, #144]	; 0x90
 80061a6:	f003 0302 	and.w	r3, r3, #2
 80061aa:	2b00      	cmp	r3, #0
 80061ac:	d1e8      	bne.n	8006180 <HAL_RCC_OscConfig+0x560>
      CLEAR_BIT(RCC->BDCR, RCC_BDCR_LSESYSDIS);
#endif /* RCC_BDCR_LSESYSDIS */
    }

    /* Restore clock configuration if changed */
    if(pwrclkchanged == SET)
 80061ae:	7ffb      	ldrb	r3, [r7, #31]
 80061b0:	2b01      	cmp	r3, #1
 80061b2:	d105      	bne.n	80061c0 <HAL_RCC_OscConfig+0x5a0>
    {
      __HAL_RCC_PWR_CLK_DISABLE();
 80061b4:	4ba5      	ldr	r3, [pc, #660]	; (800644c <HAL_RCC_OscConfig+0x82c>)
 80061b6:	6d9b      	ldr	r3, [r3, #88]	; 0x58
 80061b8:	4aa4      	ldr	r2, [pc, #656]	; (800644c <HAL_RCC_OscConfig+0x82c>)
 80061ba:	f023 5380 	bic.w	r3, r3, #268435456	; 0x10000000
 80061be:	6593      	str	r3, [r2, #88]	; 0x58
    }
  }
#if defined(RCC_HSI48_SUPPORT)
  /*------------------------------ HSI48 Configuration -----------------------*/
  if(((RCC_OscInitStruct->OscillatorType) & RCC_OSCILLATORTYPE_HSI48) == RCC_OSCILLATORTYPE_HSI48)
 80061c0:	687b      	ldr	r3, [r7, #4]
 80061c2:	681b      	ldr	r3, [r3, #0]
 80061c4:	f003 0320 	and.w	r3, r3, #32
 80061c8:	2b00      	cmp	r3, #0
 80061ca:	d03c      	beq.n	8006246 <HAL_RCC_OscConfig+0x626>
  {
    /* Check the parameters */
    assert_param(IS_RCC_HSI48(RCC_OscInitStruct->HSI48State));

    /* Check the LSI State */
    if(RCC_OscInitStruct->HSI48State != RCC_HSI48_OFF)
 80061cc:	687b      	ldr	r3, [r7, #4]
 80061ce:	6a5b      	ldr	r3, [r3, #36]	; 0x24
 80061d0:	2b00      	cmp	r3, #0
 80061d2:	d01c      	beq.n	800620e <HAL_RCC_OscConfig+0x5ee>
    {
      /* Enable the Internal Low Speed oscillator (HSI48). */
      __HAL_RCC_HSI48_ENABLE();
 80061d4:	4b9d      	ldr	r3, [pc, #628]	; (800644c <HAL_RCC_OscConfig+0x82c>)
 80061d6:	f8d3 3098 	ldr.w	r3, [r3, #152]	; 0x98
 80061da:	4a9c      	ldr	r2, [pc, #624]	; (800644c <HAL_RCC_OscConfig+0x82c>)
 80061dc:	f043 0301 	orr.w	r3, r3, #1
 80061e0:	f8c2 3098 	str.w	r3, [r2, #152]	; 0x98

      /* Get Start Tick*/
      tickstart = HAL_GetTick();
 80061e4:	f7fc ffd4 	bl	8003190 <HAL_GetTick>
 80061e8:	6138      	str	r0, [r7, #16]

      /* Wait till HSI48 is ready */
      while(READ_BIT(RCC->CRRCR, RCC_CRRCR_HSI48RDY) == 0U)
 80061ea:	e008      	b.n	80061fe <HAL_RCC_OscConfig+0x5de>
      {
        if((HAL_GetTick() - tickstart) > HSI48_TIMEOUT_VALUE)
 80061ec:	f7fc ffd0 	bl	8003190 <HAL_GetTick>
 80061f0:	4602      	mov	r2, r0
 80061f2:	693b      	ldr	r3, [r7, #16]
 80061f4:	1ad3      	subs	r3, r2, r3
 80061f6:	2b02      	cmp	r3, #2
 80061f8:	d901      	bls.n	80061fe <HAL_RCC_OscConfig+0x5de>
        {
          return HAL_TIMEOUT;
 80061fa:	2303      	movs	r3, #3
 80061fc:	e12b      	b.n	8006456 <HAL_RCC_OscConfig+0x836>
      while(READ_BIT(RCC->CRRCR, RCC_CRRCR_HSI48RDY) == 0U)
 80061fe:	4b93      	ldr	r3, [pc, #588]	; (800644c <HAL_RCC_OscConfig+0x82c>)
 8006200:	f8d3 3098 	ldr.w	r3, [r3, #152]	; 0x98
 8006204:	f003 0302 	and.w	r3, r3, #2
 8006208:	2b00      	cmp	r3, #0
 800620a:	d0ef      	beq.n	80061ec <HAL_RCC_OscConfig+0x5cc>
 800620c:	e01b      	b.n	8006246 <HAL_RCC_OscConfig+0x626>
      }
    }
    else
    {
      /* Disable the Internal Low Speed oscillator (HSI48). */
      __HAL_RCC_HSI48_DISABLE();
 800620e:	4b8f      	ldr	r3, [pc, #572]	; (800644c <HAL_RCC_OscConfig+0x82c>)
 8006210:	f8d3 3098 	ldr.w	r3, [r3, #152]	; 0x98
 8006214:	4a8d      	ldr	r2, [pc, #564]	; (800644c <HAL_RCC_OscConfig+0x82c>)
 8006216:	f023 0301 	bic.w	r3, r3, #1
 800621a:	f8c2 3098 	str.w	r3, [r2, #152]	; 0x98

      /* Get Start Tick*/
      tickstart = HAL_GetTick();
 800621e:	f7fc ffb7 	bl	8003190 <HAL_GetTick>
 8006222:	6138      	str	r0, [r7, #16]

      /* Wait till HSI48 is disabled */
      while(READ_BIT(RCC->CRRCR, RCC_CRRCR_HSI48RDY) != 0U)
 8006224:	e008      	b.n	8006238 <HAL_RCC_OscConfig+0x618>
      {
        if((HAL_GetTick() - tickstart) > HSI48_TIMEOUT_VALUE)
 8006226:	f7fc ffb3 	bl	8003190 <HAL_GetTick>
 800622a:	4602      	mov	r2, r0
 800622c:	693b      	ldr	r3, [r7, #16]
 800622e:	1ad3      	subs	r3, r2, r3
 8006230:	2b02      	cmp	r3, #2
 8006232:	d901      	bls.n	8006238 <HAL_RCC_OscConfig+0x618>
        {
          return HAL_TIMEOUT;
 8006234:	2303      	movs	r3, #3
 8006236:	e10e      	b.n	8006456 <HAL_RCC_OscConfig+0x836>
      while(READ_BIT(RCC->CRRCR, RCC_CRRCR_HSI48RDY) != 0U)
 8006238:	4b84      	ldr	r3, [pc, #528]	; (800644c <HAL_RCC_OscConfig+0x82c>)
 800623a:	f8d3 3098 	ldr.w	r3, [r3, #152]	; 0x98
 800623e:	f003 0302 	and.w	r3, r3, #2
 8006242:	2b00      	cmp	r3, #0
 8006244:	d1ef      	bne.n	8006226 <HAL_RCC_OscConfig+0x606>
#endif /* RCC_HSI48_SUPPORT */
  /*-------------------------------- PLL Configuration -----------------------*/
  /* Check the parameters */
  assert_param(IS_RCC_PLL(RCC_OscInitStruct->PLL.PLLState));

  if(RCC_OscInitStruct->PLL.PLLState != RCC_PLL_NONE)
 8006246:	687b      	ldr	r3, [r7, #4]
 8006248:	6a9b      	ldr	r3, [r3, #40]	; 0x28
 800624a:	2b00      	cmp	r3, #0
 800624c:	f000 8102 	beq.w	8006454 <HAL_RCC_OscConfig+0x834>
  {
    /* PLL On ? */
    if(RCC_OscInitStruct->PLL.PLLState == RCC_PLL_ON)
 8006250:	687b      	ldr	r3, [r7, #4]
 8006252:	6a9b      	ldr	r3, [r3, #40]	; 0x28
 8006254:	2b02      	cmp	r3, #2
 8006256:	f040 80c5 	bne.w	80063e4 <HAL_RCC_OscConfig+0x7c4>
#endif /* RCC_PLLP_SUPPORT */
      assert_param(IS_RCC_PLLQ_VALUE(RCC_OscInitStruct->PLL.PLLQ));
      assert_param(IS_RCC_PLLR_VALUE(RCC_OscInitStruct->PLL.PLLR));

      /* Do nothing if PLL configuration is the unchanged */
      pll_config = RCC->PLLCFGR;
 800625a:	4b7c      	ldr	r3, [pc, #496]	; (800644c <HAL_RCC_OscConfig+0x82c>)
 800625c:	68db      	ldr	r3, [r3, #12]
 800625e:	617b      	str	r3, [r7, #20]
      if((READ_BIT(pll_config, RCC_PLLCFGR_PLLSRC)  != RCC_OscInitStruct->PLL.PLLSource) ||
 8006260:	697b      	ldr	r3, [r7, #20]
 8006262:	f003 0203 	and.w	r2, r3, #3
 8006266:	687b      	ldr	r3, [r7, #4]
 8006268:	6adb      	ldr	r3, [r3, #44]	; 0x2c
 800626a:	429a      	cmp	r2, r3
 800626c:	d12c      	bne.n	80062c8 <HAL_RCC_OscConfig+0x6a8>
         (READ_BIT(pll_config, RCC_PLLCFGR_PLLM)    != ((RCC_OscInitStruct->PLL.PLLM - 1U) << RCC_PLLCFGR_PLLM_Pos)) ||
 800626e:	697b      	ldr	r3, [r7, #20]
 8006270:	f003 0270 	and.w	r2, r3, #112	; 0x70
 8006274:	687b      	ldr	r3, [r7, #4]
 8006276:	6b1b      	ldr	r3, [r3, #48]	; 0x30
 8006278:	3b01      	subs	r3, #1
 800627a:	011b      	lsls	r3, r3, #4
      if((READ_BIT(pll_config, RCC_PLLCFGR_PLLSRC)  != RCC_OscInitStruct->PLL.PLLSource) ||
 800627c:	429a      	cmp	r2, r3
 800627e:	d123      	bne.n	80062c8 <HAL_RCC_OscConfig+0x6a8>
         (READ_BIT(pll_config, RCC_PLLCFGR_PLLN)    != (RCC_OscInitStruct->PLL.PLLN << RCC_PLLCFGR_PLLN_Pos)) ||
 8006280:	697b      	ldr	r3, [r7, #20]
 8006282:	f403 42fe 	and.w	r2, r3, #32512	; 0x7f00
 8006286:	687b      	ldr	r3, [r7, #4]
 8006288:	6b5b      	ldr	r3, [r3, #52]	; 0x34
 800628a:	021b      	lsls	r3, r3, #8
         (READ_BIT(pll_config, RCC_PLLCFGR_PLLM)    != ((RCC_OscInitStruct->PLL.PLLM - 1U) << RCC_PLLCFGR_PLLM_Pos)) ||
 800628c:	429a      	cmp	r2, r3
 800628e:	d11b      	bne.n	80062c8 <HAL_RCC_OscConfig+0x6a8>
#if defined(RCC_PLLP_SUPPORT)
#if defined(RCC_PLLP_DIV_2_31_SUPPORT)
         (READ_BIT(pll_config, RCC_PLLCFGR_PLLPDIV) != (RCC_OscInitStruct->PLL.PLLP << RCC_PLLCFGR_PLLPDIV_Pos)) ||
 8006290:	697b      	ldr	r3, [r7, #20]
 8006292:	f003 4278 	and.w	r2, r3, #4160749568	; 0xf8000000
 8006296:	687b      	ldr	r3, [r7, #4]
 8006298:	6b9b      	ldr	r3, [r3, #56]	; 0x38
 800629a:	06db      	lsls	r3, r3, #27
         (READ_BIT(pll_config, RCC_PLLCFGR_PLLN)    != (RCC_OscInitStruct->PLL.PLLN << RCC_PLLCFGR_PLLN_Pos)) ||
 800629c:	429a      	cmp	r2, r3
 800629e:	d113      	bne.n	80062c8 <HAL_RCC_OscConfig+0x6a8>
#else
         (READ_BIT(pll_config, RCC_PLLCFGR_PLLP)    != ((RCC_OscInitStruct->PLL.PLLP == RCC_PLLP_DIV7) ? 0U : 1U)) ||
#endif
#endif
         (READ_BIT(pll_config, RCC_PLLCFGR_PLLQ)    != ((((RCC_OscInitStruct->PLL.PLLQ) >> 1U) - 1U) << RCC_PLLCFGR_PLLQ_Pos)) ||
 80062a0:	697b      	ldr	r3, [r7, #20]
 80062a2:	f403 02c0 	and.w	r2, r3, #6291456	; 0x600000
 80062a6:	687b      	ldr	r3, [r7, #4]
 80062a8:	6bdb      	ldr	r3, [r3, #60]	; 0x3c
 80062aa:	085b      	lsrs	r3, r3, #1
 80062ac:	3b01      	subs	r3, #1
 80062ae:	055b      	lsls	r3, r3, #21
         (READ_BIT(pll_config, RCC_PLLCFGR_PLLPDIV) != (RCC_OscInitStruct->PLL.PLLP << RCC_PLLCFGR_PLLPDIV_Pos)) ||
 80062b0:	429a      	cmp	r2, r3
 80062b2:	d109      	bne.n	80062c8 <HAL_RCC_OscConfig+0x6a8>
         (READ_BIT(pll_config, RCC_PLLCFGR_PLLR)    != ((((RCC_OscInitStruct->PLL.PLLR) >> 1U) - 1U) << RCC_PLLCFGR_PLLR_Pos)))
 80062b4:	697b      	ldr	r3, [r7, #20]
 80062b6:	f003 62c0 	and.w	r2, r3, #100663296	; 0x6000000
 80062ba:	687b      	ldr	r3, [r7, #4]
 80062bc:	6c1b      	ldr	r3, [r3, #64]	; 0x40
 80062be:	085b      	lsrs	r3, r3, #1
 80062c0:	3b01      	subs	r3, #1
 80062c2:	065b      	lsls	r3, r3, #25
         (READ_BIT(pll_config, RCC_PLLCFGR_PLLQ)    != ((((RCC_OscInitStruct->PLL.PLLQ) >> 1U) - 1U) << RCC_PLLCFGR_PLLQ_Pos)) ||
 80062c4:	429a      	cmp	r2, r3
 80062c6:	d067      	beq.n	8006398 <HAL_RCC_OscConfig+0x778>
      {
        /* Check if the PLL is used as system clock or not */
        if(sysclk_source != RCC_CFGR_SWS_PLL)
 80062c8:	69bb      	ldr	r3, [r7, #24]
 80062ca:	2b0c      	cmp	r3, #12
 80062cc:	d062      	beq.n	8006394 <HAL_RCC_OscConfig+0x774>
        {
#if defined(RCC_PLLSAI1_SUPPORT) || defined(RCC_PLLSAI2_SUPPORT)
          /* Check if main PLL can be updated */
          /* Not possible if the source is shared by other enabled PLLSAIx */
          if((READ_BIT(RCC->CR, RCC_CR_PLLSAI1ON) != 0U)
 80062ce:	4b5f      	ldr	r3, [pc, #380]	; (800644c <HAL_RCC_OscConfig+0x82c>)
 80062d0:	681b      	ldr	r3, [r3, #0]
 80062d2:	f003 6380 	and.w	r3, r3, #67108864	; 0x4000000
 80062d6:	2b00      	cmp	r3, #0
 80062d8:	d001      	beq.n	80062de <HAL_RCC_OscConfig+0x6be>
#if defined(RCC_PLLSAI2_SUPPORT)
             || (READ_BIT(RCC->CR, RCC_CR_PLLSAI2ON) != 0U)
#endif
            )
          {
            return HAL_ERROR;
 80062da:	2301      	movs	r3, #1
 80062dc:	e0bb      	b.n	8006456 <HAL_RCC_OscConfig+0x836>
          }
          else
#endif /* RCC_PLLSAI1_SUPPORT || RCC_PLLSAI2_SUPPORT */
          {
            /* Disable the main PLL. */
            __HAL_RCC_PLL_DISABLE();
 80062de:	4b5b      	ldr	r3, [pc, #364]	; (800644c <HAL_RCC_OscConfig+0x82c>)
 80062e0:	681b      	ldr	r3, [r3, #0]
 80062e2:	4a5a      	ldr	r2, [pc, #360]	; (800644c <HAL_RCC_OscConfig+0x82c>)
 80062e4:	f023 7380 	bic.w	r3, r3, #16777216	; 0x1000000
 80062e8:	6013      	str	r3, [r2, #0]

            /* Get Start Tick*/
            tickstart = HAL_GetTick();
 80062ea:	f7fc ff51 	bl	8003190 <HAL_GetTick>
 80062ee:	6138      	str	r0, [r7, #16]

            /* Wait till PLL is ready */
            while(READ_BIT(RCC->CR, RCC_CR_PLLRDY) != 0U)
 80062f0:	e008      	b.n	8006304 <HAL_RCC_OscConfig+0x6e4>
            {
              if((HAL_GetTick() - tickstart) > PLL_TIMEOUT_VALUE)
 80062f2:	f7fc ff4d 	bl	8003190 <HAL_GetTick>
 80062f6:	4602      	mov	r2, r0
 80062f8:	693b      	ldr	r3, [r7, #16]
 80062fa:	1ad3      	subs	r3, r2, r3
 80062fc:	2b02      	cmp	r3, #2
 80062fe:	d901      	bls.n	8006304 <HAL_RCC_OscConfig+0x6e4>
              {
                return HAL_TIMEOUT;
 8006300:	2303      	movs	r3, #3
 8006302:	e0a8      	b.n	8006456 <HAL_RCC_OscConfig+0x836>
            while(READ_BIT(RCC->CR, RCC_CR_PLLRDY) != 0U)
 8006304:	4b51      	ldr	r3, [pc, #324]	; (800644c <HAL_RCC_OscConfig+0x82c>)
 8006306:	681b      	ldr	r3, [r3, #0]
 8006308:	f003 7300 	and.w	r3, r3, #33554432	; 0x2000000
 800630c:	2b00      	cmp	r3, #0
 800630e:	d1f0      	bne.n	80062f2 <HAL_RCC_OscConfig+0x6d2>
              }
            }

            /* Configure the main PLL clock source, multiplication and division factors. */
            __HAL_RCC_PLL_CONFIG(RCC_OscInitStruct->PLL.PLLSource,
 8006310:	4b4e      	ldr	r3, [pc, #312]	; (800644c <HAL_RCC_OscConfig+0x82c>)
 8006312:	68da      	ldr	r2, [r3, #12]
 8006314:	4b4e      	ldr	r3, [pc, #312]	; (8006450 <HAL_RCC_OscConfig+0x830>)
 8006316:	4013      	ands	r3, r2
 8006318:	687a      	ldr	r2, [r7, #4]
 800631a:	6ad1      	ldr	r1, [r2, #44]	; 0x2c
 800631c:	687a      	ldr	r2, [r7, #4]
 800631e:	6b12      	ldr	r2, [r2, #48]	; 0x30
 8006320:	3a01      	subs	r2, #1
 8006322:	0112      	lsls	r2, r2, #4
 8006324:	4311      	orrs	r1, r2
 8006326:	687a      	ldr	r2, [r7, #4]
 8006328:	6b52      	ldr	r2, [r2, #52]	; 0x34
 800632a:	0212      	lsls	r2, r2, #8
 800632c:	4311      	orrs	r1, r2
 800632e:	687a      	ldr	r2, [r7, #4]
 8006330:	6bd2      	ldr	r2, [r2, #60]	; 0x3c
 8006332:	0852      	lsrs	r2, r2, #1
 8006334:	3a01      	subs	r2, #1
 8006336:	0552      	lsls	r2, r2, #21
 8006338:	4311      	orrs	r1, r2
 800633a:	687a      	ldr	r2, [r7, #4]
 800633c:	6c12      	ldr	r2, [r2, #64]	; 0x40
 800633e:	0852      	lsrs	r2, r2, #1
 8006340:	3a01      	subs	r2, #1
 8006342:	0652      	lsls	r2, r2, #25
 8006344:	4311      	orrs	r1, r2
 8006346:	687a      	ldr	r2, [r7, #4]
 8006348:	6b92      	ldr	r2, [r2, #56]	; 0x38
 800634a:	06d2      	lsls	r2, r2, #27
 800634c:	430a      	orrs	r2, r1
 800634e:	493f      	ldr	r1, [pc, #252]	; (800644c <HAL_RCC_OscConfig+0x82c>)
 8006350:	4313      	orrs	r3, r2
 8006352:	60cb      	str	r3, [r1, #12]
#endif
                                 RCC_OscInitStruct->PLL.PLLQ,
                                 RCC_OscInitStruct->PLL.PLLR);

            /* Enable the main PLL. */
            __HAL_RCC_PLL_ENABLE();
 8006354:	4b3d      	ldr	r3, [pc, #244]	; (800644c <HAL_RCC_OscConfig+0x82c>)
 8006356:	681b      	ldr	r3, [r3, #0]
 8006358:	4a3c      	ldr	r2, [pc, #240]	; (800644c <HAL_RCC_OscConfig+0x82c>)
 800635a:	f043 7380 	orr.w	r3, r3, #16777216	; 0x1000000
 800635e:	6013      	str	r3, [r2, #0]

            /* Enable PLL System Clock output. */
            __HAL_RCC_PLLCLKOUT_ENABLE(RCC_PLL_SYSCLK);
 8006360:	4b3a      	ldr	r3, [pc, #232]	; (800644c <HAL_RCC_OscConfig+0x82c>)
 8006362:	68db      	ldr	r3, [r3, #12]
 8006364:	4a39      	ldr	r2, [pc, #228]	; (800644c <HAL_RCC_OscConfig+0x82c>)
 8006366:	f043 7380 	orr.w	r3, r3, #16777216	; 0x1000000
 800636a:	60d3      	str	r3, [r2, #12]

            /* Get Start Tick*/
            tickstart = HAL_GetTick();
 800636c:	f7fc ff10 	bl	8003190 <HAL_GetTick>
 8006370:	6138      	str	r0, [r7, #16]

            /* Wait till PLL is ready */
            while(READ_BIT(RCC->CR, RCC_CR_PLLRDY) == 0U)
 8006372:	e008      	b.n	8006386 <HAL_RCC_OscConfig+0x766>
            {
              if((HAL_GetTick() - tickstart) > PLL_TIMEOUT_VALUE)
 8006374:	f7fc ff0c 	bl	8003190 <HAL_GetTick>
 8006378:	4602      	mov	r2, r0
 800637a:	693b      	ldr	r3, [r7, #16]
 800637c:	1ad3      	subs	r3, r2, r3
 800637e:	2b02      	cmp	r3, #2
 8006380:	d901      	bls.n	8006386 <HAL_RCC_OscConfig+0x766>
              {
                return HAL_TIMEOUT;
 8006382:	2303      	movs	r3, #3
 8006384:	e067      	b.n	8006456 <HAL_RCC_OscConfig+0x836>
            while(READ_BIT(RCC->CR, RCC_CR_PLLRDY) == 0U)
 8006386:	4b31      	ldr	r3, [pc, #196]	; (800644c <HAL_RCC_OscConfig+0x82c>)
 8006388:	681b      	ldr	r3, [r3, #0]
 800638a:	f003 7300 	and.w	r3, r3, #33554432	; 0x2000000
 800638e:	2b00      	cmp	r3, #0
 8006390:	d0f0      	beq.n	8006374 <HAL_RCC_OscConfig+0x754>
        if(sysclk_source != RCC_CFGR_SWS_PLL)
 8006392:	e05f      	b.n	8006454 <HAL_RCC_OscConfig+0x834>
          }
        }
        else
        {
          /* PLL is already used as System core clock */
          return HAL_ERROR;
 8006394:	2301      	movs	r3, #1
 8006396:	e05e      	b.n	8006456 <HAL_RCC_OscConfig+0x836>
      }
      else
      {
        /* PLL configuration is unchanged */
        /* Re-enable PLL if it was disabled (ie. low power mode) */
        if(READ_BIT(RCC->CR, RCC_CR_PLLRDY) == 0U)
 8006398:	4b2c      	ldr	r3, [pc, #176]	; (800644c <HAL_RCC_OscConfig+0x82c>)
 800639a:	681b      	ldr	r3, [r3, #0]
 800639c:	f003 7300 	and.w	r3, r3, #33554432	; 0x2000000
 80063a0:	2b00      	cmp	r3, #0
 80063a2:	d157      	bne.n	8006454 <HAL_RCC_OscConfig+0x834>
        {
          /* Enable the main PLL. */
          __HAL_RCC_PLL_ENABLE();
 80063a4:	4b29      	ldr	r3, [pc, #164]	; (800644c <HAL_RCC_OscConfig+0x82c>)
 80063a6:	681b      	ldr	r3, [r3, #0]
 80063a8:	4a28      	ldr	r2, [pc, #160]	; (800644c <HAL_RCC_OscConfig+0x82c>)
 80063aa:	f043 7380 	orr.w	r3, r3, #16777216	; 0x1000000
 80063ae:	6013      	str	r3, [r2, #0]

          /* Enable PLL System Clock output. */
          __HAL_RCC_PLLCLKOUT_ENABLE(RCC_PLL_SYSCLK);
 80063b0:	4b26      	ldr	r3, [pc, #152]	; (800644c <HAL_RCC_OscConfig+0x82c>)
 80063b2:	68db      	ldr	r3, [r3, #12]
 80063b4:	4a25      	ldr	r2, [pc, #148]	; (800644c <HAL_RCC_OscConfig+0x82c>)
 80063b6:	f043 7380 	orr.w	r3, r3, #16777216	; 0x1000000
 80063ba:	60d3      	str	r3, [r2, #12]

          /* Get Start Tick*/
          tickstart = HAL_GetTick();
 80063bc:	f7fc fee8 	bl	8003190 <HAL_GetTick>
 80063c0:	6138      	str	r0, [r7, #16]

          /* Wait till PLL is ready */
          while(READ_BIT(RCC->CR, RCC_CR_PLLRDY) == 0U)
 80063c2:	e008      	b.n	80063d6 <HAL_RCC_OscConfig+0x7b6>
          {
            if((HAL_GetTick() - tickstart) > PLL_TIMEOUT_VALUE)
 80063c4:	f7fc fee4 	bl	8003190 <HAL_GetTick>
 80063c8:	4602      	mov	r2, r0
 80063ca:	693b      	ldr	r3, [r7, #16]
 80063cc:	1ad3      	subs	r3, r2, r3
 80063ce:	2b02      	cmp	r3, #2
 80063d0:	d901      	bls.n	80063d6 <HAL_RCC_OscConfig+0x7b6>
            {
              return HAL_TIMEOUT;
 80063d2:	2303      	movs	r3, #3
 80063d4:	e03f      	b.n	8006456 <HAL_RCC_OscConfig+0x836>
          while(READ_BIT(RCC->CR, RCC_CR_PLLRDY) == 0U)
 80063d6:	4b1d      	ldr	r3, [pc, #116]	; (800644c <HAL_RCC_OscConfig+0x82c>)
 80063d8:	681b      	ldr	r3, [r3, #0]
 80063da:	f003 7300 	and.w	r3, r3, #33554432	; 0x2000000
 80063de:	2b00      	cmp	r3, #0
 80063e0:	d0f0      	beq.n	80063c4 <HAL_RCC_OscConfig+0x7a4>
 80063e2:	e037      	b.n	8006454 <HAL_RCC_OscConfig+0x834>
      }
    }
    else
    {
      /* Check that PLL is not used as system clock or not */
      if(sysclk_source != RCC_CFGR_SWS_PLL)
 80063e4:	69bb      	ldr	r3, [r7, #24]
 80063e6:	2b0c      	cmp	r3, #12
 80063e8:	d02d      	beq.n	8006446 <HAL_RCC_OscConfig+0x826>
      {
        /* Disable the main PLL. */
        __HAL_RCC_PLL_DISABLE();
 80063ea:	4b18      	ldr	r3, [pc, #96]	; (800644c <HAL_RCC_OscConfig+0x82c>)
 80063ec:	681b      	ldr	r3, [r3, #0]
 80063ee:	4a17      	ldr	r2, [pc, #92]	; (800644c <HAL_RCC_OscConfig+0x82c>)
 80063f0:	f023 7380 	bic.w	r3, r3, #16777216	; 0x1000000
 80063f4:	6013      	str	r3, [r2, #0]
        if(READ_BIT(RCC->CR, (RCC_CR_PLLSAI1RDY | RCC_CR_PLLSAI2RDY)) == 0U)
        {
          MODIFY_REG(RCC->PLLCFGR, RCC_PLLCFGR_PLLSRC, RCC_PLLSOURCE_NONE);
        }
#elif defined(RCC_PLLSAI1_SUPPORT)
        if(READ_BIT(RCC->CR, RCC_CR_PLLSAI1RDY) == 0U)
 80063f6:	4b15      	ldr	r3, [pc, #84]	; (800644c <HAL_RCC_OscConfig+0x82c>)
 80063f8:	681b      	ldr	r3, [r3, #0]
 80063fa:	f003 6300 	and.w	r3, r3, #134217728	; 0x8000000
 80063fe:	2b00      	cmp	r3, #0
 8006400:	d105      	bne.n	800640e <HAL_RCC_OscConfig+0x7ee>
        {
          MODIFY_REG(RCC->PLLCFGR, RCC_PLLCFGR_PLLSRC, RCC_PLLSOURCE_NONE);
 8006402:	4b12      	ldr	r3, [pc, #72]	; (800644c <HAL_RCC_OscConfig+0x82c>)
 8006404:	68db      	ldr	r3, [r3, #12]
 8006406:	4a11      	ldr	r2, [pc, #68]	; (800644c <HAL_RCC_OscConfig+0x82c>)
 8006408:	f023 0303 	bic.w	r3, r3, #3
 800640c:	60d3      	str	r3, [r2, #12]
#endif /* RCC_PLLSAI1_SUPPORT && RCC_CR_PLLSAI2RDY */

#if defined(RCC_PLLSAI2_SUPPORT)
        __HAL_RCC_PLLCLKOUT_DISABLE(RCC_PLL_SYSCLK | RCC_PLL_48M1CLK | RCC_PLL_SAI3CLK);
#elif defined(RCC_PLLSAI1_SUPPORT)
        __HAL_RCC_PLLCLKOUT_DISABLE(RCC_PLL_SYSCLK | RCC_PLL_48M1CLK | RCC_PLL_SAI2CLK);
 800640e:	4b0f      	ldr	r3, [pc, #60]	; (800644c <HAL_RCC_OscConfig+0x82c>)
 8006410:	68db      	ldr	r3, [r3, #12]
 8006412:	4a0e      	ldr	r2, [pc, #56]	; (800644c <HAL_RCC_OscConfig+0x82c>)
 8006414:	f023 7388 	bic.w	r3, r3, #17825792	; 0x1100000
 8006418:	f423 3380 	bic.w	r3, r3, #65536	; 0x10000
 800641c:	60d3      	str	r3, [r2, #12]
#else
        __HAL_RCC_PLLCLKOUT_DISABLE(RCC_PLL_SYSCLK | RCC_PLL_48M1CLK);
#endif /* RCC_PLLSAI2_SUPPORT */

        /* Get Start Tick*/
        tickstart = HAL_GetTick();
 800641e:	f7fc feb7 	bl	8003190 <HAL_GetTick>
 8006422:	6138      	str	r0, [r7, #16]

        /* Wait till PLL is disabled */
        while(READ_BIT(RCC->CR, RCC_CR_PLLRDY) != 0U)
 8006424:	e008      	b.n	8006438 <HAL_RCC_OscConfig+0x818>
        {
          if((HAL_GetTick() - tickstart) > PLL_TIMEOUT_VALUE)
 8006426:	f7fc feb3 	bl	8003190 <HAL_GetTick>
 800642a:	4602      	mov	r2, r0
 800642c:	693b      	ldr	r3, [r7, #16]
 800642e:	1ad3      	subs	r3, r2, r3
 8006430:	2b02      	cmp	r3, #2
 8006432:	d901      	bls.n	8006438 <HAL_RCC_OscConfig+0x818>
          {
            return HAL_TIMEOUT;
 8006434:	2303      	movs	r3, #3
 8006436:	e00e      	b.n	8006456 <HAL_RCC_OscConfig+0x836>
        while(READ_BIT(RCC->CR, RCC_CR_PLLRDY) != 0U)
 8006438:	4b04      	ldr	r3, [pc, #16]	; (800644c <HAL_RCC_OscConfig+0x82c>)
 800643a:	681b      	ldr	r3, [r3, #0]
 800643c:	f003 7300 	and.w	r3, r3, #33554432	; 0x2000000
 8006440:	2b00      	cmp	r3, #0
 8006442:	d1f0      	bne.n	8006426 <HAL_RCC_OscConfig+0x806>
 8006444:	e006      	b.n	8006454 <HAL_RCC_OscConfig+0x834>
        }
      }
      else
      {
        /* PLL is already used as System core clock */
        return HAL_ERROR;
 8006446:	2301      	movs	r3, #1
 8006448:	e005      	b.n	8006456 <HAL_RCC_OscConfig+0x836>
 800644a:	bf00      	nop
 800644c:	40021000 	.word	0x40021000
 8006450:	019d808c 	.word	0x019d808c
      }
    }
  }
  return HAL_OK;
 8006454:	2300      	movs	r3, #0
}
 8006456:	4618      	mov	r0, r3
 8006458:	3720      	adds	r7, #32
 800645a:	46bd      	mov	sp, r7
 800645c:	bd80      	pop	{r7, pc}
 800645e:	bf00      	nop

08006460 <HAL_RCC_ClockConfig>:
  *         HPRE[3:0] bits to ensure that HCLK not exceed the maximum allowed frequency
  *         (for more details refer to section above "Initialization/de-initialization functions")
  * @retval None
  */
HAL_StatusTypeDef HAL_RCC_ClockConfig(RCC_ClkInitTypeDef  *RCC_ClkInitStruct, uint32_t FLatency)
{
 8006460:	b580      	push	{r7, lr}
 8006462:	b084      	sub	sp, #16
 8006464:	af00      	add	r7, sp, #0
 8006466:	6078      	str	r0, [r7, #4]
 8006468:	6039      	str	r1, [r7, #0]
  uint32_t hpre = RCC_SYSCLK_DIV1;
#endif
  HAL_StatusTypeDef status;

  /* Check Null pointer */
  if(RCC_ClkInitStruct == NULL)
 800646a:	687b      	ldr	r3, [r7, #4]
 800646c:	2b00      	cmp	r3, #0
 800646e:	d101      	bne.n	8006474 <HAL_RCC_ClockConfig+0x14>
  {
    return HAL_ERROR;
 8006470:	2301      	movs	r3, #1
 8006472:	e0c8      	b.n	8006606 <HAL_RCC_ClockConfig+0x1a6>
  /* To correctly read data from FLASH memory, the number of wait states (LATENCY)
    must be correctly programmed according to the frequency of the CPU clock
    (HCLK) and the supply voltage of the device. */

  /* Increasing the number of wait states because of higher CPU frequency */
  if(FLatency > __HAL_FLASH_GET_LATENCY())
 8006474:	4b66      	ldr	r3, [pc, #408]	; (8006610 <HAL_RCC_ClockConfig+0x1b0>)
 8006476:	681b      	ldr	r3, [r3, #0]
 8006478:	f003 0307 	and.w	r3, r3, #7
 800647c:	683a      	ldr	r2, [r7, #0]
 800647e:	429a      	cmp	r2, r3
 8006480:	d910      	bls.n	80064a4 <HAL_RCC_ClockConfig+0x44>
  {
    /* Program the new number of wait states to the LATENCY bits in the FLASH_ACR register */
    __HAL_FLASH_SET_LATENCY(FLatency);
 8006482:	4b63      	ldr	r3, [pc, #396]	; (8006610 <HAL_RCC_ClockConfig+0x1b0>)
 8006484:	681b      	ldr	r3, [r3, #0]
 8006486:	f023 0207 	bic.w	r2, r3, #7
 800648a:	4961      	ldr	r1, [pc, #388]	; (8006610 <HAL_RCC_ClockConfig+0x1b0>)
 800648c:	683b      	ldr	r3, [r7, #0]
 800648e:	4313      	orrs	r3, r2
 8006490:	600b      	str	r3, [r1, #0]

    /* Check that the new number of wait states is taken into account to access the Flash
    memory by reading the FLASH_ACR register */
    if(__HAL_FLASH_GET_LATENCY() != FLatency)
 8006492:	4b5f      	ldr	r3, [pc, #380]	; (8006610 <HAL_RCC_ClockConfig+0x1b0>)
 8006494:	681b      	ldr	r3, [r3, #0]
 8006496:	f003 0307 	and.w	r3, r3, #7
 800649a:	683a      	ldr	r2, [r7, #0]
 800649c:	429a      	cmp	r2, r3
 800649e:	d001      	beq.n	80064a4 <HAL_RCC_ClockConfig+0x44>
    {
      return HAL_ERROR;
 80064a0:	2301      	movs	r3, #1
 80064a2:	e0b0      	b.n	8006606 <HAL_RCC_ClockConfig+0x1a6>
    }
  }

  /*------------------------- SYSCLK Configuration ---------------------------*/
  if(((RCC_ClkInitStruct->ClockType) & RCC_CLOCKTYPE_SYSCLK) == RCC_CLOCKTYPE_SYSCLK)
 80064a4:	687b      	ldr	r3, [r7, #4]
 80064a6:	681b      	ldr	r3, [r3, #0]
 80064a8:	f003 0301 	and.w	r3, r3, #1
 80064ac:	2b00      	cmp	r3, #0
 80064ae:	d04c      	beq.n	800654a <HAL_RCC_ClockConfig+0xea>
  {
    assert_param(IS_RCC_SYSCLKSOURCE(RCC_ClkInitStruct->SYSCLKSource));

    /* PLL is selected as System Clock Source */
    if(RCC_ClkInitStruct->SYSCLKSource == RCC_SYSCLKSOURCE_PLLCLK)
 80064b0:	687b      	ldr	r3, [r7, #4]
 80064b2:	685b      	ldr	r3, [r3, #4]
 80064b4:	2b03      	cmp	r3, #3
 80064b6:	d107      	bne.n	80064c8 <HAL_RCC_ClockConfig+0x68>
    {
      /* Check the PLL ready flag */
      if(READ_BIT(RCC->CR, RCC_CR_PLLRDY) == 0U)
 80064b8:	4b56      	ldr	r3, [pc, #344]	; (8006614 <HAL_RCC_ClockConfig+0x1b4>)
 80064ba:	681b      	ldr	r3, [r3, #0]
 80064bc:	f003 7300 	and.w	r3, r3, #33554432	; 0x2000000
 80064c0:	2b00      	cmp	r3, #0
 80064c2:	d121      	bne.n	8006508 <HAL_RCC_ClockConfig+0xa8>
      {
        return HAL_ERROR;
 80064c4:	2301      	movs	r3, #1
 80064c6:	e09e      	b.n	8006606 <HAL_RCC_ClockConfig+0x1a6>
#endif
    }
    else
    {
      /* HSE is selected as System Clock Source */
      if(RCC_ClkInitStruct->SYSCLKSource == RCC_SYSCLKSOURCE_HSE)
 80064c8:	687b      	ldr	r3, [r7, #4]
 80064ca:	685b      	ldr	r3, [r3, #4]
 80064cc:	2b02      	cmp	r3, #2
 80064ce:	d107      	bne.n	80064e0 <HAL_RCC_ClockConfig+0x80>
      {
        /* Check the HSE ready flag */
        if(READ_BIT(RCC->CR, RCC_CR_HSERDY) == 0U)
 80064d0:	4b50      	ldr	r3, [pc, #320]	; (8006614 <HAL_RCC_ClockConfig+0x1b4>)
 80064d2:	681b      	ldr	r3, [r3, #0]
 80064d4:	f403 3300 	and.w	r3, r3, #131072	; 0x20000
 80064d8:	2b00      	cmp	r3, #0
 80064da:	d115      	bne.n	8006508 <HAL_RCC_ClockConfig+0xa8>
        {
          return HAL_ERROR;
 80064dc:	2301      	movs	r3, #1
 80064de:	e092      	b.n	8006606 <HAL_RCC_ClockConfig+0x1a6>
        }
      }
      /* MSI is selected as System Clock Source */
      else if(RCC_ClkInitStruct->SYSCLKSource == RCC_SYSCLKSOURCE_MSI)
 80064e0:	687b      	ldr	r3, [r7, #4]
 80064e2:	685b      	ldr	r3, [r3, #4]
 80064e4:	2b00      	cmp	r3, #0
 80064e6:	d107      	bne.n	80064f8 <HAL_RCC_ClockConfig+0x98>
      {
        /* Check the MSI ready flag */
        if(READ_BIT(RCC->CR, RCC_CR_MSIRDY) == 0U)
 80064e8:	4b4a      	ldr	r3, [pc, #296]	; (8006614 <HAL_RCC_ClockConfig+0x1b4>)
 80064ea:	681b      	ldr	r3, [r3, #0]
 80064ec:	f003 0302 	and.w	r3, r3, #2
 80064f0:	2b00      	cmp	r3, #0
 80064f2:	d109      	bne.n	8006508 <HAL_RCC_ClockConfig+0xa8>
        {
          return HAL_ERROR;
 80064f4:	2301      	movs	r3, #1
 80064f6:	e086      	b.n	8006606 <HAL_RCC_ClockConfig+0x1a6>
      }
      /* HSI is selected as System Clock Source */
      else
      {
        /* Check the HSI ready flag */
        if(READ_BIT(RCC->CR, RCC_CR_HSIRDY) == 0U)
 80064f8:	4b46      	ldr	r3, [pc, #280]	; (8006614 <HAL_RCC_ClockConfig+0x1b4>)
 80064fa:	681b      	ldr	r3, [r3, #0]
 80064fc:	f403 6380 	and.w	r3, r3, #1024	; 0x400
 8006500:	2b00      	cmp	r3, #0
 8006502:	d101      	bne.n	8006508 <HAL_RCC_ClockConfig+0xa8>
        {
          return HAL_ERROR;
 8006504:	2301      	movs	r3, #1
 8006506:	e07e      	b.n	8006606 <HAL_RCC_ClockConfig+0x1a6>
      }
#endif

    }

    MODIFY_REG(RCC->CFGR, RCC_CFGR_SW, RCC_ClkInitStruct->SYSCLKSource);
 8006508:	4b42      	ldr	r3, [pc, #264]	; (8006614 <HAL_RCC_ClockConfig+0x1b4>)
 800650a:	689b      	ldr	r3, [r3, #8]
 800650c:	f023 0203 	bic.w	r2, r3, #3
 8006510:	687b      	ldr	r3, [r7, #4]
 8006512:	685b      	ldr	r3, [r3, #4]
 8006514:	493f      	ldr	r1, [pc, #252]	; (8006614 <HAL_RCC_ClockConfig+0x1b4>)
 8006516:	4313      	orrs	r3, r2
 8006518:	608b      	str	r3, [r1, #8]

    /* Get Start Tick*/
    tickstart = HAL_GetTick();
 800651a:	f7fc fe39 	bl	8003190 <HAL_GetTick>
 800651e:	60f8      	str	r0, [r7, #12]

    while(__HAL_RCC_GET_SYSCLK_SOURCE() != (RCC_ClkInitStruct->SYSCLKSource << RCC_CFGR_SWS_Pos))
 8006520:	e00a      	b.n	8006538 <HAL_RCC_ClockConfig+0xd8>
    {
      if((HAL_GetTick() - tickstart) > CLOCKSWITCH_TIMEOUT_VALUE)
 8006522:	f7fc fe35 	bl	8003190 <HAL_GetTick>
 8006526:	4602      	mov	r2, r0
 8006528:	68fb      	ldr	r3, [r7, #12]
 800652a:	1ad3      	subs	r3, r2, r3
 800652c:	f241 3288 	movw	r2, #5000	; 0x1388
 8006530:	4293      	cmp	r3, r2
 8006532:	d901      	bls.n	8006538 <HAL_RCC_ClockConfig+0xd8>
      {
        return HAL_TIMEOUT;
 8006534:	2303      	movs	r3, #3
 8006536:	e066      	b.n	8006606 <HAL_RCC_ClockConfig+0x1a6>
    while(__HAL_RCC_GET_SYSCLK_SOURCE() != (RCC_ClkInitStruct->SYSCLKSource << RCC_CFGR_SWS_Pos))
 8006538:	4b36      	ldr	r3, [pc, #216]	; (8006614 <HAL_RCC_ClockConfig+0x1b4>)
 800653a:	689b      	ldr	r3, [r3, #8]
 800653c:	f003 020c 	and.w	r2, r3, #12
 8006540:	687b      	ldr	r3, [r7, #4]
 8006542:	685b      	ldr	r3, [r3, #4]
 8006544:	009b      	lsls	r3, r3, #2
 8006546:	429a      	cmp	r2, r3
 8006548:	d1eb      	bne.n	8006522 <HAL_RCC_ClockConfig+0xc2>
      }
    }
  }

  /*-------------------------- HCLK Configuration --------------------------*/
  if(((RCC_ClkInitStruct->ClockType) & RCC_CLOCKTYPE_HCLK) == RCC_CLOCKTYPE_HCLK)
 800654a:	687b      	ldr	r3, [r7, #4]
 800654c:	681b      	ldr	r3, [r3, #0]
 800654e:	f003 0302 	and.w	r3, r3, #2
 8006552:	2b00      	cmp	r3, #0
 8006554:	d008      	beq.n	8006568 <HAL_RCC_ClockConfig+0x108>
  {
    assert_param(IS_RCC_HCLK(RCC_ClkInitStruct->AHBCLKDivider));
    MODIFY_REG(RCC->CFGR, RCC_CFGR_HPRE, RCC_ClkInitStruct->AHBCLKDivider);
 8006556:	4b2f      	ldr	r3, [pc, #188]	; (8006614 <HAL_RCC_ClockConfig+0x1b4>)
 8006558:	689b      	ldr	r3, [r3, #8]
 800655a:	f023 02f0 	bic.w	r2, r3, #240	; 0xf0
 800655e:	687b      	ldr	r3, [r7, #4]
 8006560:	689b      	ldr	r3, [r3, #8]
 8006562:	492c      	ldr	r1, [pc, #176]	; (8006614 <HAL_RCC_ClockConfig+0x1b4>)
 8006564:	4313      	orrs	r3, r2
 8006566:	608b      	str	r3, [r1, #8]
    }
  }
#endif

  /* Decreasing the number of wait states because of lower CPU frequency */
  if(FLatency < __HAL_FLASH_GET_LATENCY())
 8006568:	4b29      	ldr	r3, [pc, #164]	; (8006610 <HAL_RCC_ClockConfig+0x1b0>)
 800656a:	681b      	ldr	r3, [r3, #0]
 800656c:	f003 0307 	and.w	r3, r3, #7
 8006570:	683a      	ldr	r2, [r7, #0]
 8006572:	429a      	cmp	r2, r3
 8006574:	d210      	bcs.n	8006598 <HAL_RCC_ClockConfig+0x138>
  {
    /* Program the new number of wait states to the LATENCY bits in the FLASH_ACR register */
    __HAL_FLASH_SET_LATENCY(FLatency);
 8006576:	4b26      	ldr	r3, [pc, #152]	; (8006610 <HAL_RCC_ClockConfig+0x1b0>)
 8006578:	681b      	ldr	r3, [r3, #0]
 800657a:	f023 0207 	bic.w	r2, r3, #7
 800657e:	4924      	ldr	r1, [pc, #144]	; (8006610 <HAL_RCC_ClockConfig+0x1b0>)
 8006580:	683b      	ldr	r3, [r7, #0]
 8006582:	4313      	orrs	r3, r2
 8006584:	600b      	str	r3, [r1, #0]

    /* Check that the new number of wait states is taken into account to access the Flash
    memory by reading the FLASH_ACR register */
    if(__HAL_FLASH_GET_LATENCY() != FLatency)
 8006586:	4b22      	ldr	r3, [pc, #136]	; (8006610 <HAL_RCC_ClockConfig+0x1b0>)
 8006588:	681b      	ldr	r3, [r3, #0]
 800658a:	f003 0307 	and.w	r3, r3, #7
 800658e:	683a      	ldr	r2, [r7, #0]
 8006590:	429a      	cmp	r2, r3
 8006592:	d001      	beq.n	8006598 <HAL_RCC_ClockConfig+0x138>
    {
      return HAL_ERROR;
 8006594:	2301      	movs	r3, #1
 8006596:	e036      	b.n	8006606 <HAL_RCC_ClockConfig+0x1a6>
    }
  }

  /*-------------------------- PCLK1 Configuration ---------------------------*/
  if(((RCC_ClkInitStruct->ClockType) & RCC_CLOCKTYPE_PCLK1) == RCC_CLOCKTYPE_PCLK1)
 8006598:	687b      	ldr	r3, [r7, #4]
 800659a:	681b      	ldr	r3, [r3, #0]
 800659c:	f003 0304 	and.w	r3, r3, #4
 80065a0:	2b00      	cmp	r3, #0
 80065a2:	d008      	beq.n	80065b6 <HAL_RCC_ClockConfig+0x156>
  {
    assert_param(IS_RCC_PCLK(RCC_ClkInitStruct->APB1CLKDivider));
    MODIFY_REG(RCC->CFGR, RCC_CFGR_PPRE1, RCC_ClkInitStruct->APB1CLKDivider);
 80065a4:	4b1b      	ldr	r3, [pc, #108]	; (8006614 <HAL_RCC_ClockConfig+0x1b4>)
 80065a6:	689b      	ldr	r3, [r3, #8]
 80065a8:	f423 62e0 	bic.w	r2, r3, #1792	; 0x700
 80065ac:	687b      	ldr	r3, [r7, #4]
 80065ae:	68db      	ldr	r3, [r3, #12]
 80065b0:	4918      	ldr	r1, [pc, #96]	; (8006614 <HAL_RCC_ClockConfig+0x1b4>)
 80065b2:	4313      	orrs	r3, r2
 80065b4:	608b      	str	r3, [r1, #8]
  }

  /*-------------------------- PCLK2 Configuration ---------------------------*/
  if(((RCC_ClkInitStruct->ClockType) & RCC_CLOCKTYPE_PCLK2) == RCC_CLOCKTYPE_PCLK2)
 80065b6:	687b      	ldr	r3, [r7, #4]
 80065b8:	681b      	ldr	r3, [r3, #0]
 80065ba:	f003 0308 	and.w	r3, r3, #8
 80065be:	2b00      	cmp	r3, #0
 80065c0:	d009      	beq.n	80065d6 <HAL_RCC_ClockConfig+0x176>
  {
    assert_param(IS_RCC_PCLK(RCC_ClkInitStruct->APB2CLKDivider));
    MODIFY_REG(RCC->CFGR, RCC_CFGR_PPRE2, ((RCC_ClkInitStruct->APB2CLKDivider) << 3U));
 80065c2:	4b14      	ldr	r3, [pc, #80]	; (8006614 <HAL_RCC_ClockConfig+0x1b4>)
 80065c4:	689b      	ldr	r3, [r3, #8]
 80065c6:	f423 5260 	bic.w	r2, r3, #14336	; 0x3800
 80065ca:	687b      	ldr	r3, [r7, #4]
 80065cc:	691b      	ldr	r3, [r3, #16]
 80065ce:	00db      	lsls	r3, r3, #3
 80065d0:	4910      	ldr	r1, [pc, #64]	; (8006614 <HAL_RCC_ClockConfig+0x1b4>)
 80065d2:	4313      	orrs	r3, r2
 80065d4:	608b      	str	r3, [r1, #8]
  }

  /* Update the SystemCoreClock global variable */
  SystemCoreClock = HAL_RCC_GetSysClockFreq() >> (AHBPrescTable[READ_BIT(RCC->CFGR, RCC_CFGR_HPRE) >> RCC_CFGR_HPRE_Pos] & 0x1FU);
 80065d6:	f000 f825 	bl	8006624 <HAL_RCC_GetSysClockFreq>
 80065da:	4601      	mov	r1, r0
 80065dc:	4b0d      	ldr	r3, [pc, #52]	; (8006614 <HAL_RCC_ClockConfig+0x1b4>)
 80065de:	689b      	ldr	r3, [r3, #8]
 80065e0:	091b      	lsrs	r3, r3, #4
 80065e2:	f003 030f 	and.w	r3, r3, #15
 80065e6:	4a0c      	ldr	r2, [pc, #48]	; (8006618 <HAL_RCC_ClockConfig+0x1b8>)
 80065e8:	5cd3      	ldrb	r3, [r2, r3]
 80065ea:	f003 031f 	and.w	r3, r3, #31
 80065ee:	fa21 f303 	lsr.w	r3, r1, r3
 80065f2:	4a0a      	ldr	r2, [pc, #40]	; (800661c <HAL_RCC_ClockConfig+0x1bc>)
 80065f4:	6013      	str	r3, [r2, #0]

  /* Configure the source of time base considering new system clocks settings*/
  status = HAL_InitTick(uwTickPrio);
 80065f6:	4b0a      	ldr	r3, [pc, #40]	; (8006620 <HAL_RCC_ClockConfig+0x1c0>)
 80065f8:	681b      	ldr	r3, [r3, #0]
 80065fa:	4618      	mov	r0, r3
 80065fc:	f7fc fd78 	bl	80030f0 <HAL_InitTick>
 8006600:	4603      	mov	r3, r0
 8006602:	72fb      	strb	r3, [r7, #11]

  return status;
 8006604:	7afb      	ldrb	r3, [r7, #11]
}
 8006606:	4618      	mov	r0, r3
 8006608:	3710      	adds	r7, #16
 800660a:	46bd      	mov	sp, r7
 800660c:	bd80      	pop	{r7, pc}
 800660e:	bf00      	nop
 8006610:	40022000 	.word	0x40022000
 8006614:	40021000 	.word	0x40021000
 8006618:	0800b838 	.word	0x0800b838
 800661c:	200007d8 	.word	0x200007d8
 8006620:	200007dc 	.word	0x200007dc

08006624 <HAL_RCC_GetSysClockFreq>:
  *
  *
  * @retval SYSCLK frequency
  */
uint32_t HAL_RCC_GetSysClockFreq(void)
{
 8006624:	b480      	push	{r7}
 8006626:	b089      	sub	sp, #36	; 0x24
 8006628:	af00      	add	r7, sp, #0
  uint32_t msirange = 0U, sysclockfreq = 0U;
 800662a:	2300      	movs	r3, #0
 800662c:	61fb      	str	r3, [r7, #28]
 800662e:	2300      	movs	r3, #0
 8006630:	61bb      	str	r3, [r7, #24]
  uint32_t pllvco, pllsource, pllr, pllm;    /* no init needed */
  uint32_t sysclk_source, pll_oscsource;

  sysclk_source = __HAL_RCC_GET_SYSCLK_SOURCE();
 8006632:	4b3d      	ldr	r3, [pc, #244]	; (8006728 <HAL_RCC_GetSysClockFreq+0x104>)
 8006634:	689b      	ldr	r3, [r3, #8]
 8006636:	f003 030c 	and.w	r3, r3, #12
 800663a:	613b      	str	r3, [r7, #16]
  pll_oscsource = __HAL_RCC_GET_PLL_OSCSOURCE();
 800663c:	4b3a      	ldr	r3, [pc, #232]	; (8006728 <HAL_RCC_GetSysClockFreq+0x104>)
 800663e:	68db      	ldr	r3, [r3, #12]
 8006640:	f003 0303 	and.w	r3, r3, #3
 8006644:	60fb      	str	r3, [r7, #12]

  if((sysclk_source == RCC_CFGR_SWS_MSI) ||
 8006646:	693b      	ldr	r3, [r7, #16]
 8006648:	2b00      	cmp	r3, #0
 800664a:	d005      	beq.n	8006658 <HAL_RCC_GetSysClockFreq+0x34>
 800664c:	693b      	ldr	r3, [r7, #16]
 800664e:	2b0c      	cmp	r3, #12
 8006650:	d121      	bne.n	8006696 <HAL_RCC_GetSysClockFreq+0x72>
     ((sysclk_source == RCC_CFGR_SWS_PLL) && (pll_oscsource == RCC_PLLSOURCE_MSI)))
 8006652:	68fb      	ldr	r3, [r7, #12]
 8006654:	2b01      	cmp	r3, #1
 8006656:	d11e      	bne.n	8006696 <HAL_RCC_GetSysClockFreq+0x72>
  {
    /* MSI or PLL with MSI source used as system clock source */

    /* Get SYSCLK source */
    if(READ_BIT(RCC->CR, RCC_CR_MSIRGSEL) == 0U)
 8006658:	4b33      	ldr	r3, [pc, #204]	; (8006728 <HAL_RCC_GetSysClockFreq+0x104>)
 800665a:	681b      	ldr	r3, [r3, #0]
 800665c:	f003 0308 	and.w	r3, r3, #8
 8006660:	2b00      	cmp	r3, #0
 8006662:	d107      	bne.n	8006674 <HAL_RCC_GetSysClockFreq+0x50>
    { /* MSISRANGE from RCC_CSR applies */
      msirange = READ_BIT(RCC->CSR, RCC_CSR_MSISRANGE) >> RCC_CSR_MSISRANGE_Pos;
 8006664:	4b30      	ldr	r3, [pc, #192]	; (8006728 <HAL_RCC_GetSysClockFreq+0x104>)
 8006666:	f8d3 3094 	ldr.w	r3, [r3, #148]	; 0x94
 800666a:	0a1b      	lsrs	r3, r3, #8
 800666c:	f003 030f 	and.w	r3, r3, #15
 8006670:	61fb      	str	r3, [r7, #28]
 8006672:	e005      	b.n	8006680 <HAL_RCC_GetSysClockFreq+0x5c>
    }
    else
    { /* MSIRANGE from RCC_CR applies */
      msirange = READ_BIT(RCC->CR, RCC_CR_MSIRANGE) >> RCC_CR_MSIRANGE_Pos;
 8006674:	4b2c      	ldr	r3, [pc, #176]	; (8006728 <HAL_RCC_GetSysClockFreq+0x104>)
 8006676:	681b      	ldr	r3, [r3, #0]
 8006678:	091b      	lsrs	r3, r3, #4
 800667a:	f003 030f 	and.w	r3, r3, #15
 800667e:	61fb      	str	r3, [r7, #28]
    }
    /*MSI frequency range in HZ*/
    msirange = MSIRangeTable[msirange];
 8006680:	4a2a      	ldr	r2, [pc, #168]	; (800672c <HAL_RCC_GetSysClockFreq+0x108>)
 8006682:	69fb      	ldr	r3, [r7, #28]
 8006684:	f852 3023 	ldr.w	r3, [r2, r3, lsl #2]
 8006688:	61fb      	str	r3, [r7, #28]

    if(sysclk_source == RCC_CFGR_SWS_MSI)
 800668a:	693b      	ldr	r3, [r7, #16]
 800668c:	2b00      	cmp	r3, #0
 800668e:	d10d      	bne.n	80066ac <HAL_RCC_GetSysClockFreq+0x88>
    {
      /* MSI used as system clock source */
      sysclockfreq = msirange;
 8006690:	69fb      	ldr	r3, [r7, #28]
 8006692:	61bb      	str	r3, [r7, #24]
    if(sysclk_source == RCC_CFGR_SWS_MSI)
 8006694:	e00a      	b.n	80066ac <HAL_RCC_GetSysClockFreq+0x88>
    }
  }
  else if(sysclk_source == RCC_CFGR_SWS_HSI)
 8006696:	693b      	ldr	r3, [r7, #16]
 8006698:	2b04      	cmp	r3, #4
 800669a:	d102      	bne.n	80066a2 <HAL_RCC_GetSysClockFreq+0x7e>
  {
    /* HSI used as system clock source */
    sysclockfreq = HSI_VALUE;
 800669c:	4b24      	ldr	r3, [pc, #144]	; (8006730 <HAL_RCC_GetSysClockFreq+0x10c>)
 800669e:	61bb      	str	r3, [r7, #24]
 80066a0:	e004      	b.n	80066ac <HAL_RCC_GetSysClockFreq+0x88>
  }
  else if(sysclk_source == RCC_CFGR_SWS_HSE)
 80066a2:	693b      	ldr	r3, [r7, #16]
 80066a4:	2b08      	cmp	r3, #8
 80066a6:	d101      	bne.n	80066ac <HAL_RCC_GetSysClockFreq+0x88>
  {
    /* HSE used as system clock source */
    sysclockfreq = HSE_VALUE;
 80066a8:	4b22      	ldr	r3, [pc, #136]	; (8006734 <HAL_RCC_GetSysClockFreq+0x110>)
 80066aa:	61bb      	str	r3, [r7, #24]
  else
  {
    /* unexpected case: sysclockfreq at 0 */
  }

  if(sysclk_source == RCC_CFGR_SWS_PLL)
 80066ac:	693b      	ldr	r3, [r7, #16]
 80066ae:	2b0c      	cmp	r3, #12
 80066b0:	d133      	bne.n	800671a <HAL_RCC_GetSysClockFreq+0xf6>
    /* PLL used as system clock  source */

    /* PLL_VCO = (HSE_VALUE or HSI_VALUE or MSI_VALUE) * PLLN / PLLM
    SYSCLK = PLL_VCO / PLLR
    */
    pllsource = READ_BIT(RCC->PLLCFGR, RCC_PLLCFGR_PLLSRC);
 80066b2:	4b1d      	ldr	r3, [pc, #116]	; (8006728 <HAL_RCC_GetSysClockFreq+0x104>)
 80066b4:	68db      	ldr	r3, [r3, #12]
 80066b6:	f003 0303 	and.w	r3, r3, #3
 80066ba:	60bb      	str	r3, [r7, #8]

    switch (pllsource)
 80066bc:	68bb      	ldr	r3, [r7, #8]
 80066be:	2b02      	cmp	r3, #2
 80066c0:	d002      	beq.n	80066c8 <HAL_RCC_GetSysClockFreq+0xa4>
 80066c2:	2b03      	cmp	r3, #3
 80066c4:	d003      	beq.n	80066ce <HAL_RCC_GetSysClockFreq+0xaa>
 80066c6:	e005      	b.n	80066d4 <HAL_RCC_GetSysClockFreq+0xb0>
    {
    case RCC_PLLSOURCE_HSI:  /* HSI used as PLL clock source */
      pllvco = HSI_VALUE;
 80066c8:	4b19      	ldr	r3, [pc, #100]	; (8006730 <HAL_RCC_GetSysClockFreq+0x10c>)
 80066ca:	617b      	str	r3, [r7, #20]
      break;
 80066cc:	e005      	b.n	80066da <HAL_RCC_GetSysClockFreq+0xb6>

    case RCC_PLLSOURCE_HSE:  /* HSE used as PLL clock source */
      pllvco = HSE_VALUE;
 80066ce:	4b19      	ldr	r3, [pc, #100]	; (8006734 <HAL_RCC_GetSysClockFreq+0x110>)
 80066d0:	617b      	str	r3, [r7, #20]
      break;
 80066d2:	e002      	b.n	80066da <HAL_RCC_GetSysClockFreq+0xb6>

    case RCC_PLLSOURCE_MSI:  /* MSI used as PLL clock source */
    default:
      pllvco = msirange;
 80066d4:	69fb      	ldr	r3, [r7, #28]
 80066d6:	617b      	str	r3, [r7, #20]
      break;
 80066d8:	bf00      	nop
    }
    pllm = (READ_BIT(RCC->PLLCFGR, RCC_PLLCFGR_PLLM) >> RCC_PLLCFGR_PLLM_Pos) + 1U ;
 80066da:	4b13      	ldr	r3, [pc, #76]	; (8006728 <HAL_RCC_GetSysClockFreq+0x104>)
 80066dc:	68db      	ldr	r3, [r3, #12]
 80066de:	091b      	lsrs	r3, r3, #4
 80066e0:	f003 0307 	and.w	r3, r3, #7
 80066e4:	3301      	adds	r3, #1
 80066e6:	607b      	str	r3, [r7, #4]
    pllvco = (pllvco * (READ_BIT(RCC->PLLCFGR, RCC_PLLCFGR_PLLN) >> RCC_PLLCFGR_PLLN_Pos)) / pllm;
 80066e8:	4b0f      	ldr	r3, [pc, #60]	; (8006728 <HAL_RCC_GetSysClockFreq+0x104>)
 80066ea:	68db      	ldr	r3, [r3, #12]
 80066ec:	0a1b      	lsrs	r3, r3, #8
 80066ee:	f003 037f 	and.w	r3, r3, #127	; 0x7f
 80066f2:	697a      	ldr	r2, [r7, #20]
 80066f4:	fb02 f203 	mul.w	r2, r2, r3
 80066f8:	687b      	ldr	r3, [r7, #4]
 80066fa:	fbb2 f3f3 	udiv	r3, r2, r3
 80066fe:	617b      	str	r3, [r7, #20]
    pllr = ((READ_BIT(RCC->PLLCFGR, RCC_PLLCFGR_PLLR) >> RCC_PLLCFGR_PLLR_Pos) + 1U ) * 2U;
 8006700:	4b09      	ldr	r3, [pc, #36]	; (8006728 <HAL_RCC_GetSysClockFreq+0x104>)
 8006702:	68db      	ldr	r3, [r3, #12]
 8006704:	0e5b      	lsrs	r3, r3, #25
 8006706:	f003 0303 	and.w	r3, r3, #3
 800670a:	3301      	adds	r3, #1
 800670c:	005b      	lsls	r3, r3, #1
 800670e:	603b      	str	r3, [r7, #0]
    sysclockfreq = pllvco / pllr;
 8006710:	697a      	ldr	r2, [r7, #20]
 8006712:	683b      	ldr	r3, [r7, #0]
 8006714:	fbb2 f3f3 	udiv	r3, r2, r3
 8006718:	61bb      	str	r3, [r7, #24]
  }

  return sysclockfreq;
 800671a:	69bb      	ldr	r3, [r7, #24]
}
 800671c:	4618      	mov	r0, r3
 800671e:	3724      	adds	r7, #36	; 0x24
 8006720:	46bd      	mov	sp, r7
 8006722:	f85d 7b04 	ldr.w	r7, [sp], #4
 8006726:	4770      	bx	lr
 8006728:	40021000 	.word	0x40021000
 800672c:	0800b850 	.word	0x0800b850
 8006730:	00f42400 	.word	0x00f42400
 8006734:	007a1200 	.word	0x007a1200

08006738 <HAL_RCC_GetHCLKFreq>:
  *
  * @note   The SystemCoreClock CMSIS variable is used to store System Clock Frequency.
  * @retval HCLK frequency in Hz
  */
uint32_t HAL_RCC_GetHCLKFreq(void)
{
 8006738:	b480      	push	{r7}
 800673a:	af00      	add	r7, sp, #0
  return SystemCoreClock;
 800673c:	4b03      	ldr	r3, [pc, #12]	; (800674c <HAL_RCC_GetHCLKFreq+0x14>)
 800673e:	681b      	ldr	r3, [r3, #0]
}
 8006740:	4618      	mov	r0, r3
 8006742:	46bd      	mov	sp, r7
 8006744:	f85d 7b04 	ldr.w	r7, [sp], #4
 8006748:	4770      	bx	lr
 800674a:	bf00      	nop
 800674c:	200007d8 	.word	0x200007d8

08006750 <HAL_RCC_GetPCLK1Freq>:
  * @note   Each time PCLK1 changes, this function must be called to update the
  *         right PCLK1 value. Otherwise, any configuration based on this function will be incorrect.
  * @retval PCLK1 frequency in Hz
  */
uint32_t HAL_RCC_GetPCLK1Freq(void)
{
 8006750:	b580      	push	{r7, lr}
 8006752:	af00      	add	r7, sp, #0
  /* Get HCLK source and Compute PCLK1 frequency ---------------------------*/
  return (HAL_RCC_GetHCLKFreq() >> (APBPrescTable[READ_BIT(RCC->CFGR, RCC_CFGR_PPRE1) >> RCC_CFGR_PPRE1_Pos] & 0x1FU));
 8006754:	f7ff fff0 	bl	8006738 <HAL_RCC_GetHCLKFreq>
 8006758:	4601      	mov	r1, r0
 800675a:	4b06      	ldr	r3, [pc, #24]	; (8006774 <HAL_RCC_GetPCLK1Freq+0x24>)
 800675c:	689b      	ldr	r3, [r3, #8]
 800675e:	0a1b      	lsrs	r3, r3, #8
 8006760:	f003 0307 	and.w	r3, r3, #7
 8006764:	4a04      	ldr	r2, [pc, #16]	; (8006778 <HAL_RCC_GetPCLK1Freq+0x28>)
 8006766:	5cd3      	ldrb	r3, [r2, r3]
 8006768:	f003 031f 	and.w	r3, r3, #31
 800676c:	fa21 f303 	lsr.w	r3, r1, r3
}
 8006770:	4618      	mov	r0, r3
 8006772:	bd80      	pop	{r7, pc}
 8006774:	40021000 	.word	0x40021000
 8006778:	0800b848 	.word	0x0800b848

0800677c <HAL_RCC_GetPCLK2Freq>:
  * @note   Each time PCLK2 changes, this function must be called to update the
  *         right PCLK2 value. Otherwise, any configuration based on this function will be incorrect.
  * @retval PCLK2 frequency in Hz
  */
uint32_t HAL_RCC_GetPCLK2Freq(void)
{
 800677c:	b580      	push	{r7, lr}
 800677e:	af00      	add	r7, sp, #0
  /* Get HCLK source and Compute PCLK2 frequency ---------------------------*/
  return (HAL_RCC_GetHCLKFreq()>> (APBPrescTable[READ_BIT(RCC->CFGR, RCC_CFGR_PPRE2) >> RCC_CFGR_PPRE2_Pos] & 0x1FU));
 8006780:	f7ff ffda 	bl	8006738 <HAL_RCC_GetHCLKFreq>
 8006784:	4601      	mov	r1, r0
 8006786:	4b06      	ldr	r3, [pc, #24]	; (80067a0 <HAL_RCC_GetPCLK2Freq+0x24>)
 8006788:	689b      	ldr	r3, [r3, #8]
 800678a:	0adb      	lsrs	r3, r3, #11
 800678c:	f003 0307 	and.w	r3, r3, #7
 8006790:	4a04      	ldr	r2, [pc, #16]	; (80067a4 <HAL_RCC_GetPCLK2Freq+0x28>)
 8006792:	5cd3      	ldrb	r3, [r2, r3]
 8006794:	f003 031f 	and.w	r3, r3, #31
 8006798:	fa21 f303 	lsr.w	r3, r1, r3
}
 800679c:	4618      	mov	r0, r3
 800679e:	bd80      	pop	{r7, pc}
 80067a0:	40021000 	.word	0x40021000
 80067a4:	0800b848 	.word	0x0800b848

080067a8 <RCC_SetFlashLatencyFromMSIRange>:
            voltage range.
  * @param  msirange  MSI range value from RCC_MSIRANGE_0 to RCC_MSIRANGE_11
  * @retval HAL status
  */
static HAL_StatusTypeDef RCC_SetFlashLatencyFromMSIRange(uint32_t msirange)
{
 80067a8:	b580      	push	{r7, lr}
 80067aa:	b086      	sub	sp, #24
 80067ac:	af00      	add	r7, sp, #0
 80067ae:	6078      	str	r0, [r7, #4]
  uint32_t vos;
  uint32_t latency = FLASH_LATENCY_0;  /* default value 0WS */
 80067b0:	2300      	movs	r3, #0
 80067b2:	613b      	str	r3, [r7, #16]

  if(__HAL_RCC_PWR_IS_CLK_ENABLED())
 80067b4:	4b2a      	ldr	r3, [pc, #168]	; (8006860 <RCC_SetFlashLatencyFromMSIRange+0xb8>)
 80067b6:	6d9b      	ldr	r3, [r3, #88]	; 0x58
 80067b8:	f003 5380 	and.w	r3, r3, #268435456	; 0x10000000
 80067bc:	2b00      	cmp	r3, #0
 80067be:	d003      	beq.n	80067c8 <RCC_SetFlashLatencyFromMSIRange+0x20>
  {
    vos = HAL_PWREx_GetVoltageRange();
 80067c0:	f7ff f9ca 	bl	8005b58 <HAL_PWREx_GetVoltageRange>
 80067c4:	6178      	str	r0, [r7, #20]
 80067c6:	e014      	b.n	80067f2 <RCC_SetFlashLatencyFromMSIRange+0x4a>
  }
  else
  {
    __HAL_RCC_PWR_CLK_ENABLE();
 80067c8:	4b25      	ldr	r3, [pc, #148]	; (8006860 <RCC_SetFlashLatencyFromMSIRange+0xb8>)
 80067ca:	6d9b      	ldr	r3, [r3, #88]	; 0x58
 80067cc:	4a24      	ldr	r2, [pc, #144]	; (8006860 <RCC_SetFlashLatencyFromMSIRange+0xb8>)
 80067ce:	f043 5380 	orr.w	r3, r3, #268435456	; 0x10000000
 80067d2:	6593      	str	r3, [r2, #88]	; 0x58
 80067d4:	4b22      	ldr	r3, [pc, #136]	; (8006860 <RCC_SetFlashLatencyFromMSIRange+0xb8>)
 80067d6:	6d9b      	ldr	r3, [r3, #88]	; 0x58
 80067d8:	f003 5380 	and.w	r3, r3, #268435456	; 0x10000000
 80067dc:	60fb      	str	r3, [r7, #12]
 80067de:	68fb      	ldr	r3, [r7, #12]
    vos = HAL_PWREx_GetVoltageRange();
 80067e0:	f7ff f9ba 	bl	8005b58 <HAL_PWREx_GetVoltageRange>
 80067e4:	6178      	str	r0, [r7, #20]
    __HAL_RCC_PWR_CLK_DISABLE();
 80067e6:	4b1e      	ldr	r3, [pc, #120]	; (8006860 <RCC_SetFlashLatencyFromMSIRange+0xb8>)
 80067e8:	6d9b      	ldr	r3, [r3, #88]	; 0x58
 80067ea:	4a1d      	ldr	r2, [pc, #116]	; (8006860 <RCC_SetFlashLatencyFromMSIRange+0xb8>)
 80067ec:	f023 5380 	bic.w	r3, r3, #268435456	; 0x10000000
 80067f0:	6593      	str	r3, [r2, #88]	; 0x58
  }

  if(vos == PWR_REGULATOR_VOLTAGE_SCALE1)
 80067f2:	697b      	ldr	r3, [r7, #20]
 80067f4:	f5b3 7f00 	cmp.w	r3, #512	; 0x200
 80067f8:	d10b      	bne.n	8006812 <RCC_SetFlashLatencyFromMSIRange+0x6a>
  {
    if(msirange > RCC_MSIRANGE_8)
 80067fa:	687b      	ldr	r3, [r7, #4]
 80067fc:	2b80      	cmp	r3, #128	; 0x80
 80067fe:	d919      	bls.n	8006834 <RCC_SetFlashLatencyFromMSIRange+0x8c>
    {
      /* MSI > 16Mhz */
      if(msirange > RCC_MSIRANGE_10)
 8006800:	687b      	ldr	r3, [r7, #4]
 8006802:	2ba0      	cmp	r3, #160	; 0xa0
 8006804:	d902      	bls.n	800680c <RCC_SetFlashLatencyFromMSIRange+0x64>
      {
        /* MSI 48Mhz */
        latency = FLASH_LATENCY_2; /* 2WS */
 8006806:	2302      	movs	r3, #2
 8006808:	613b      	str	r3, [r7, #16]
 800680a:	e013      	b.n	8006834 <RCC_SetFlashLatencyFromMSIRange+0x8c>
      }
      else
      {
        /* MSI 24Mhz or 32Mhz */
        latency = FLASH_LATENCY_1; /* 1WS */
 800680c:	2301      	movs	r3, #1
 800680e:	613b      	str	r3, [r7, #16]
 8006810:	e010      	b.n	8006834 <RCC_SetFlashLatencyFromMSIRange+0x8c>
        latency = FLASH_LATENCY_1; /* 1WS */
      }
      /* else MSI < 8Mhz default FLASH_LATENCY_0 0WS */
    }
#else
    if(msirange > RCC_MSIRANGE_8)
 8006812:	687b      	ldr	r3, [r7, #4]
 8006814:	2b80      	cmp	r3, #128	; 0x80
 8006816:	d902      	bls.n	800681e <RCC_SetFlashLatencyFromMSIRange+0x76>
    {
      /* MSI > 16Mhz */
      latency = FLASH_LATENCY_3; /* 3WS */
 8006818:	2303      	movs	r3, #3
 800681a:	613b      	str	r3, [r7, #16]
 800681c:	e00a      	b.n	8006834 <RCC_SetFlashLatencyFromMSIRange+0x8c>
    }
    else
    {
      if(msirange == RCC_MSIRANGE_8)
 800681e:	687b      	ldr	r3, [r7, #4]
 8006820:	2b80      	cmp	r3, #128	; 0x80
 8006822:	d102      	bne.n	800682a <RCC_SetFlashLatencyFromMSIRange+0x82>
      {
        /* MSI 16Mhz */
        latency = FLASH_LATENCY_2; /* 2WS */
 8006824:	2302      	movs	r3, #2
 8006826:	613b      	str	r3, [r7, #16]
 8006828:	e004      	b.n	8006834 <RCC_SetFlashLatencyFromMSIRange+0x8c>
      }
      else if(msirange == RCC_MSIRANGE_7)
 800682a:	687b      	ldr	r3, [r7, #4]
 800682c:	2b70      	cmp	r3, #112	; 0x70
 800682e:	d101      	bne.n	8006834 <RCC_SetFlashLatencyFromMSIRange+0x8c>
      {
        /* MSI 8Mhz */
        latency = FLASH_LATENCY_1; /* 1WS */
 8006830:	2301      	movs	r3, #1
 8006832:	613b      	str	r3, [r7, #16]
      /* else MSI < 8Mhz default FLASH_LATENCY_0 0WS */
    }
#endif
  }

  __HAL_FLASH_SET_LATENCY(latency);
 8006834:	4b0b      	ldr	r3, [pc, #44]	; (8006864 <RCC_SetFlashLatencyFromMSIRange+0xbc>)
 8006836:	681b      	ldr	r3, [r3, #0]
 8006838:	f023 0207 	bic.w	r2, r3, #7
 800683c:	4909      	ldr	r1, [pc, #36]	; (8006864 <RCC_SetFlashLatencyFromMSIRange+0xbc>)
 800683e:	693b      	ldr	r3, [r7, #16]
 8006840:	4313      	orrs	r3, r2
 8006842:	600b      	str	r3, [r1, #0]

  /* Check that the new number of wait states is taken into account to access the Flash
     memory by reading the FLASH_ACR register */
  if(__HAL_FLASH_GET_LATENCY() != latency)
 8006844:	4b07      	ldr	r3, [pc, #28]	; (8006864 <RCC_SetFlashLatencyFromMSIRange+0xbc>)
 8006846:	681b      	ldr	r3, [r3, #0]
 8006848:	f003 0307 	and.w	r3, r3, #7
 800684c:	693a      	ldr	r2, [r7, #16]
 800684e:	429a      	cmp	r2, r3
 8006850:	d001      	beq.n	8006856 <RCC_SetFlashLatencyFromMSIRange+0xae>
  {
    return HAL_ERROR;
 8006852:	2301      	movs	r3, #1
 8006854:	e000      	b.n	8006858 <RCC_SetFlashLatencyFromMSIRange+0xb0>
  }

  return HAL_OK;
 8006856:	2300      	movs	r3, #0
}
 8006858:	4618      	mov	r0, r3
 800685a:	3718      	adds	r7, #24
 800685c:	46bd      	mov	sp, r7
 800685e:	bd80      	pop	{r7, pc}
 8006860:	40021000 	.word	0x40021000
 8006864:	40022000 	.word	0x40022000

08006868 <HAL_RCCEx_PeriphCLKConfig>:
  *         the RTC clock source: in this case the access to Backup domain is enabled.
  *
  * @retval HAL status
  */
HAL_StatusTypeDef HAL_RCCEx_PeriphCLKConfig(RCC_PeriphCLKInitTypeDef  *PeriphClkInit)
{
 8006868:	b580      	push	{r7, lr}
 800686a:	b086      	sub	sp, #24
 800686c:	af00      	add	r7, sp, #0
 800686e:	6078      	str	r0, [r7, #4]
  uint32_t tmpregister, tickstart;     /* no init needed */
  HAL_StatusTypeDef ret = HAL_OK;      /* Intermediate status */
 8006870:	2300      	movs	r3, #0
 8006872:	74fb      	strb	r3, [r7, #19]
  HAL_StatusTypeDef status = HAL_OK;   /* Final status */
 8006874:	2300      	movs	r3, #0
 8006876:	74bb      	strb	r3, [r7, #18]
  assert_param(IS_RCC_PERIPHCLOCK(PeriphClkInit->PeriphClockSelection));

#if defined(SAI1)

  /*-------------------------- SAI1 clock source configuration ---------------------*/
  if((((PeriphClkInit->PeriphClockSelection) & RCC_PERIPHCLK_SAI1) == RCC_PERIPHCLK_SAI1))
 8006878:	687b      	ldr	r3, [r7, #4]
 800687a:	681b      	ldr	r3, [r3, #0]
 800687c:	f403 6300 	and.w	r3, r3, #2048	; 0x800
 8006880:	2b00      	cmp	r3, #0
 8006882:	d02f      	beq.n	80068e4 <HAL_RCCEx_PeriphCLKConfig+0x7c>
  {
    /* Check the parameters */
    assert_param(IS_RCC_SAI1CLK(PeriphClkInit->Sai1ClockSelection));

    switch(PeriphClkInit->Sai1ClockSelection)
 8006884:	687b      	ldr	r3, [r7, #4]
 8006886:	6bdb      	ldr	r3, [r3, #60]	; 0x3c
 8006888:	f5b3 0f00 	cmp.w	r3, #8388608	; 0x800000
 800688c:	d005      	beq.n	800689a <HAL_RCCEx_PeriphCLKConfig+0x32>
 800688e:	f5b3 0f40 	cmp.w	r3, #12582912	; 0xc00000
 8006892:	d015      	beq.n	80068c0 <HAL_RCCEx_PeriphCLKConfig+0x58>
 8006894:	2b00      	cmp	r3, #0
 8006896:	d007      	beq.n	80068a8 <HAL_RCCEx_PeriphCLKConfig+0x40>
 8006898:	e00f      	b.n	80068ba <HAL_RCCEx_PeriphCLKConfig+0x52>
    case RCC_SAI1CLKSOURCE_PLL:      /* PLL is used as clock source for SAI1*/
      /* Enable SAI Clock output generated from System PLL . */
#if defined(RCC_PLLSAI2_SUPPORT)
      __HAL_RCC_PLLCLKOUT_ENABLE(RCC_PLL_SAI3CLK);
#else
      __HAL_RCC_PLLCLKOUT_ENABLE(RCC_PLL_SAI2CLK);
 800689a:	4bac      	ldr	r3, [pc, #688]	; (8006b4c <HAL_RCCEx_PeriphCLKConfig+0x2e4>)
 800689c:	68db      	ldr	r3, [r3, #12]
 800689e:	4aab      	ldr	r2, [pc, #684]	; (8006b4c <HAL_RCCEx_PeriphCLKConfig+0x2e4>)
 80068a0:	f443 3380 	orr.w	r3, r3, #65536	; 0x10000
 80068a4:	60d3      	str	r3, [r2, #12]
#endif /* RCC_PLLSAI2_SUPPORT */
      /* SAI1 clock source config set later after clock selection check */
      break;
 80068a6:	e00c      	b.n	80068c2 <HAL_RCCEx_PeriphCLKConfig+0x5a>

    case RCC_SAI1CLKSOURCE_PLLSAI1:  /* PLLSAI1 is used as clock source for SAI1*/
      /* PLLSAI1 input clock, parameters M, N & P configuration and clock output (PLLSAI1ClockOut) */
      ret = RCCEx_PLLSAI1_Config(&(PeriphClkInit->PLLSAI1), DIVIDER_P_UPDATE);
 80068a8:	687b      	ldr	r3, [r7, #4]
 80068aa:	3304      	adds	r3, #4
 80068ac:	2100      	movs	r1, #0
 80068ae:	4618      	mov	r0, r3
 80068b0:	f000 f9dc 	bl	8006c6c <RCCEx_PLLSAI1_Config>
 80068b4:	4603      	mov	r3, r0
 80068b6:	74fb      	strb	r3, [r7, #19]
      /* SAI1 clock source config set later after clock selection check */
      break;
 80068b8:	e003      	b.n	80068c2 <HAL_RCCEx_PeriphCLKConfig+0x5a>
#endif /* STM32L4P5xx || STM32L4Q5xx || STM32L4R5xx || STM32L4R7xx || STM32L4R9xx || STM32L4S5xx || STM32L4S7xx || STM32L4S9xx */
      /* SAI1 clock source config set later after clock selection check */
      break;

    default:
      ret = HAL_ERROR;
 80068ba:	2301      	movs	r3, #1
 80068bc:	74fb      	strb	r3, [r7, #19]
      break;
 80068be:	e000      	b.n	80068c2 <HAL_RCCEx_PeriphCLKConfig+0x5a>
      break;
 80068c0:	bf00      	nop
    }

    if(ret == HAL_OK)
 80068c2:	7cfb      	ldrb	r3, [r7, #19]
 80068c4:	2b00      	cmp	r3, #0
 80068c6:	d10b      	bne.n	80068e0 <HAL_RCCEx_PeriphCLKConfig+0x78>
    {
      /* Set the source of SAI1 clock*/
      __HAL_RCC_SAI1_CONFIG(PeriphClkInit->Sai1ClockSelection);
 80068c8:	4ba0      	ldr	r3, [pc, #640]	; (8006b4c <HAL_RCCEx_PeriphCLKConfig+0x2e4>)
 80068ca:	f8d3 3088 	ldr.w	r3, [r3, #136]	; 0x88
 80068ce:	f423 0240 	bic.w	r2, r3, #12582912	; 0xc00000
 80068d2:	687b      	ldr	r3, [r7, #4]
 80068d4:	6bdb      	ldr	r3, [r3, #60]	; 0x3c
 80068d6:	499d      	ldr	r1, [pc, #628]	; (8006b4c <HAL_RCCEx_PeriphCLKConfig+0x2e4>)
 80068d8:	4313      	orrs	r3, r2
 80068da:	f8c1 3088 	str.w	r3, [r1, #136]	; 0x88
 80068de:	e001      	b.n	80068e4 <HAL_RCCEx_PeriphCLKConfig+0x7c>
    }
    else
    {
      /* set overall return value */
      status = ret;
 80068e0:	7cfb      	ldrb	r3, [r7, #19]
 80068e2:	74bb      	strb	r3, [r7, #18]
    }
  }
#endif /* SAI2 */

  /*-------------------------- RTC clock source configuration ----------------------*/
  if((PeriphClkInit->PeriphClockSelection & RCC_PERIPHCLK_RTC) == RCC_PERIPHCLK_RTC)
 80068e4:	687b      	ldr	r3, [r7, #4]
 80068e6:	681b      	ldr	r3, [r3, #0]
 80068e8:	f403 3300 	and.w	r3, r3, #131072	; 0x20000
 80068ec:	2b00      	cmp	r3, #0
 80068ee:	f000 8099 	beq.w	8006a24 <HAL_RCCEx_PeriphCLKConfig+0x1bc>
  {
    FlagStatus       pwrclkchanged = RESET;
 80068f2:	2300      	movs	r3, #0
 80068f4:	747b      	strb	r3, [r7, #17]

    /* Check for RTC Parameters used to output RTCCLK */
    assert_param(IS_RCC_RTCCLKSOURCE(PeriphClkInit->RTCClockSelection));

    /* Enable Power Clock */
    if(__HAL_RCC_PWR_IS_CLK_DISABLED() != 0U)
 80068f6:	4b95      	ldr	r3, [pc, #596]	; (8006b4c <HAL_RCCEx_PeriphCLKConfig+0x2e4>)
 80068f8:	6d9b      	ldr	r3, [r3, #88]	; 0x58
 80068fa:	f003 5380 	and.w	r3, r3, #268435456	; 0x10000000
 80068fe:	2b00      	cmp	r3, #0
 8006900:	d101      	bne.n	8006906 <HAL_RCCEx_PeriphCLKConfig+0x9e>
 8006902:	2301      	movs	r3, #1
 8006904:	e000      	b.n	8006908 <HAL_RCCEx_PeriphCLKConfig+0xa0>
 8006906:	2300      	movs	r3, #0
 8006908:	2b00      	cmp	r3, #0
 800690a:	d00d      	beq.n	8006928 <HAL_RCCEx_PeriphCLKConfig+0xc0>
    {
      __HAL_RCC_PWR_CLK_ENABLE();
 800690c:	4b8f      	ldr	r3, [pc, #572]	; (8006b4c <HAL_RCCEx_PeriphCLKConfig+0x2e4>)
 800690e:	6d9b      	ldr	r3, [r3, #88]	; 0x58
 8006910:	4a8e      	ldr	r2, [pc, #568]	; (8006b4c <HAL_RCCEx_PeriphCLKConfig+0x2e4>)
 8006912:	f043 5380 	orr.w	r3, r3, #268435456	; 0x10000000
 8006916:	6593      	str	r3, [r2, #88]	; 0x58
 8006918:	4b8c      	ldr	r3, [pc, #560]	; (8006b4c <HAL_RCCEx_PeriphCLKConfig+0x2e4>)
 800691a:	6d9b      	ldr	r3, [r3, #88]	; 0x58
 800691c:	f003 5380 	and.w	r3, r3, #268435456	; 0x10000000
 8006920:	60bb      	str	r3, [r7, #8]
 8006922:	68bb      	ldr	r3, [r7, #8]
      pwrclkchanged = SET;
 8006924:	2301      	movs	r3, #1
 8006926:	747b      	strb	r3, [r7, #17]
    }

    /* Enable write access to Backup domain */
    SET_BIT(PWR->CR1, PWR_CR1_DBP);
 8006928:	4b89      	ldr	r3, [pc, #548]	; (8006b50 <HAL_RCCEx_PeriphCLKConfig+0x2e8>)
 800692a:	681b      	ldr	r3, [r3, #0]
 800692c:	4a88      	ldr	r2, [pc, #544]	; (8006b50 <HAL_RCCEx_PeriphCLKConfig+0x2e8>)
 800692e:	f443 7380 	orr.w	r3, r3, #256	; 0x100
 8006932:	6013      	str	r3, [r2, #0]

    /* Wait for Backup domain Write protection disable */
    tickstart = HAL_GetTick();
 8006934:	f7fc fc2c 	bl	8003190 <HAL_GetTick>
 8006938:	60f8      	str	r0, [r7, #12]

    while(READ_BIT(PWR->CR1, PWR_CR1_DBP) == 0U)
 800693a:	e009      	b.n	8006950 <HAL_RCCEx_PeriphCLKConfig+0xe8>
    {
      if((HAL_GetTick() - tickstart) > RCC_DBP_TIMEOUT_VALUE)
 800693c:	f7fc fc28 	bl	8003190 <HAL_GetTick>
 8006940:	4602      	mov	r2, r0
 8006942:	68fb      	ldr	r3, [r7, #12]
 8006944:	1ad3      	subs	r3, r2, r3
 8006946:	2b02      	cmp	r3, #2
 8006948:	d902      	bls.n	8006950 <HAL_RCCEx_PeriphCLKConfig+0xe8>
      {
        ret = HAL_TIMEOUT;
 800694a:	2303      	movs	r3, #3
 800694c:	74fb      	strb	r3, [r7, #19]
        break;
 800694e:	e005      	b.n	800695c <HAL_RCCEx_PeriphCLKConfig+0xf4>
    while(READ_BIT(PWR->CR1, PWR_CR1_DBP) == 0U)
 8006950:	4b7f      	ldr	r3, [pc, #508]	; (8006b50 <HAL_RCCEx_PeriphCLKConfig+0x2e8>)
 8006952:	681b      	ldr	r3, [r3, #0]
 8006954:	f403 7380 	and.w	r3, r3, #256	; 0x100
 8006958:	2b00      	cmp	r3, #0
 800695a:	d0ef      	beq.n	800693c <HAL_RCCEx_PeriphCLKConfig+0xd4>
      }
    }

    if(ret == HAL_OK)
 800695c:	7cfb      	ldrb	r3, [r7, #19]
 800695e:	2b00      	cmp	r3, #0
 8006960:	d155      	bne.n	8006a0e <HAL_RCCEx_PeriphCLKConfig+0x1a6>
    {
      /* Reset the Backup domain only if the RTC Clock source selection is modified from default */
      tmpregister = READ_BIT(RCC->BDCR, RCC_BDCR_RTCSEL);
 8006962:	4b7a      	ldr	r3, [pc, #488]	; (8006b4c <HAL_RCCEx_PeriphCLKConfig+0x2e4>)
 8006964:	f8d3 3090 	ldr.w	r3, [r3, #144]	; 0x90
 8006968:	f403 7340 	and.w	r3, r3, #768	; 0x300
 800696c:	617b      	str	r3, [r7, #20]

      if((tmpregister != RCC_RTCCLKSOURCE_NONE) && (tmpregister != PeriphClkInit->RTCClockSelection))
 800696e:	697b      	ldr	r3, [r7, #20]
 8006970:	2b00      	cmp	r3, #0
 8006972:	d01e      	beq.n	80069b2 <HAL_RCCEx_PeriphCLKConfig+0x14a>
 8006974:	687b      	ldr	r3, [r7, #4]
 8006976:	6d1b      	ldr	r3, [r3, #80]	; 0x50
 8006978:	697a      	ldr	r2, [r7, #20]
 800697a:	429a      	cmp	r2, r3
 800697c:	d019      	beq.n	80069b2 <HAL_RCCEx_PeriphCLKConfig+0x14a>
      {
        /* Store the content of BDCR register before the reset of Backup Domain */
        tmpregister = READ_BIT(RCC->BDCR, ~(RCC_BDCR_RTCSEL));
 800697e:	4b73      	ldr	r3, [pc, #460]	; (8006b4c <HAL_RCCEx_PeriphCLKConfig+0x2e4>)
 8006980:	f8d3 3090 	ldr.w	r3, [r3, #144]	; 0x90
 8006984:	f423 7340 	bic.w	r3, r3, #768	; 0x300
 8006988:	617b      	str	r3, [r7, #20]
        /* RTC Clock selection can be changed only if the Backup Domain is reset */
        __HAL_RCC_BACKUPRESET_FORCE();
 800698a:	4b70      	ldr	r3, [pc, #448]	; (8006b4c <HAL_RCCEx_PeriphCLKConfig+0x2e4>)
 800698c:	f8d3 3090 	ldr.w	r3, [r3, #144]	; 0x90
 8006990:	4a6e      	ldr	r2, [pc, #440]	; (8006b4c <HAL_RCCEx_PeriphCLKConfig+0x2e4>)
 8006992:	f443 3380 	orr.w	r3, r3, #65536	; 0x10000
 8006996:	f8c2 3090 	str.w	r3, [r2, #144]	; 0x90
        __HAL_RCC_BACKUPRESET_RELEASE();
 800699a:	4b6c      	ldr	r3, [pc, #432]	; (8006b4c <HAL_RCCEx_PeriphCLKConfig+0x2e4>)
 800699c:	f8d3 3090 	ldr.w	r3, [r3, #144]	; 0x90
 80069a0:	4a6a      	ldr	r2, [pc, #424]	; (8006b4c <HAL_RCCEx_PeriphCLKConfig+0x2e4>)
 80069a2:	f423 3380 	bic.w	r3, r3, #65536	; 0x10000
 80069a6:	f8c2 3090 	str.w	r3, [r2, #144]	; 0x90
        /* Restore the Content of BDCR register */
        RCC->BDCR = tmpregister;
 80069aa:	4a68      	ldr	r2, [pc, #416]	; (8006b4c <HAL_RCCEx_PeriphCLKConfig+0x2e4>)
 80069ac:	697b      	ldr	r3, [r7, #20]
 80069ae:	f8c2 3090 	str.w	r3, [r2, #144]	; 0x90
      }

      /* Wait for LSE reactivation if LSE was enable prior to Backup Domain reset */
      if (HAL_IS_BIT_SET(tmpregister, RCC_BDCR_LSEON))
 80069b2:	697b      	ldr	r3, [r7, #20]
 80069b4:	f003 0301 	and.w	r3, r3, #1
 80069b8:	2b00      	cmp	r3, #0
 80069ba:	d016      	beq.n	80069ea <HAL_RCCEx_PeriphCLKConfig+0x182>
      {
        /* Get Start Tick*/
        tickstart = HAL_GetTick();
 80069bc:	f7fc fbe8 	bl	8003190 <HAL_GetTick>
 80069c0:	60f8      	str	r0, [r7, #12]

        /* Wait till LSE is ready */
        while(READ_BIT(RCC->BDCR, RCC_BDCR_LSERDY) == 0U)
 80069c2:	e00b      	b.n	80069dc <HAL_RCCEx_PeriphCLKConfig+0x174>
        {
          if((HAL_GetTick() - tickstart) > RCC_LSE_TIMEOUT_VALUE)
 80069c4:	f7fc fbe4 	bl	8003190 <HAL_GetTick>
 80069c8:	4602      	mov	r2, r0
 80069ca:	68fb      	ldr	r3, [r7, #12]
 80069cc:	1ad3      	subs	r3, r2, r3
 80069ce:	f241 3288 	movw	r2, #5000	; 0x1388
 80069d2:	4293      	cmp	r3, r2
 80069d4:	d902      	bls.n	80069dc <HAL_RCCEx_PeriphCLKConfig+0x174>
          {
            ret = HAL_TIMEOUT;
 80069d6:	2303      	movs	r3, #3
 80069d8:	74fb      	strb	r3, [r7, #19]
            break;
 80069da:	e006      	b.n	80069ea <HAL_RCCEx_PeriphCLKConfig+0x182>
        while(READ_BIT(RCC->BDCR, RCC_BDCR_LSERDY) == 0U)
 80069dc:	4b5b      	ldr	r3, [pc, #364]	; (8006b4c <HAL_RCCEx_PeriphCLKConfig+0x2e4>)
 80069de:	f8d3 3090 	ldr.w	r3, [r3, #144]	; 0x90
 80069e2:	f003 0302 	and.w	r3, r3, #2
 80069e6:	2b00      	cmp	r3, #0
 80069e8:	d0ec      	beq.n	80069c4 <HAL_RCCEx_PeriphCLKConfig+0x15c>
          }
        }
      }

      if(ret == HAL_OK)
 80069ea:	7cfb      	ldrb	r3, [r7, #19]
 80069ec:	2b00      	cmp	r3, #0
 80069ee:	d10b      	bne.n	8006a08 <HAL_RCCEx_PeriphCLKConfig+0x1a0>
      {
        /* Apply new RTC clock source selection */
        __HAL_RCC_RTC_CONFIG(PeriphClkInit->RTCClockSelection);
 80069f0:	4b56      	ldr	r3, [pc, #344]	; (8006b4c <HAL_RCCEx_PeriphCLKConfig+0x2e4>)
 80069f2:	f8d3 3090 	ldr.w	r3, [r3, #144]	; 0x90
 80069f6:	f423 7240 	bic.w	r2, r3, #768	; 0x300
 80069fa:	687b      	ldr	r3, [r7, #4]
 80069fc:	6d1b      	ldr	r3, [r3, #80]	; 0x50
 80069fe:	4953      	ldr	r1, [pc, #332]	; (8006b4c <HAL_RCCEx_PeriphCLKConfig+0x2e4>)
 8006a00:	4313      	orrs	r3, r2
 8006a02:	f8c1 3090 	str.w	r3, [r1, #144]	; 0x90
 8006a06:	e004      	b.n	8006a12 <HAL_RCCEx_PeriphCLKConfig+0x1aa>
      }
      else
      {
        /* set overall return value */
        status = ret;
 8006a08:	7cfb      	ldrb	r3, [r7, #19]
 8006a0a:	74bb      	strb	r3, [r7, #18]
 8006a0c:	e001      	b.n	8006a12 <HAL_RCCEx_PeriphCLKConfig+0x1aa>
      }
    }
    else
    {
      /* set overall return value */
      status = ret;
 8006a0e:	7cfb      	ldrb	r3, [r7, #19]
 8006a10:	74bb      	strb	r3, [r7, #18]
    }

    /* Restore clock configuration if changed */
    if(pwrclkchanged == SET)
 8006a12:	7c7b      	ldrb	r3, [r7, #17]
 8006a14:	2b01      	cmp	r3, #1
 8006a16:	d105      	bne.n	8006a24 <HAL_RCCEx_PeriphCLKConfig+0x1bc>
    {
      __HAL_RCC_PWR_CLK_DISABLE();
 8006a18:	4b4c      	ldr	r3, [pc, #304]	; (8006b4c <HAL_RCCEx_PeriphCLKConfig+0x2e4>)
 8006a1a:	6d9b      	ldr	r3, [r3, #88]	; 0x58
 8006a1c:	4a4b      	ldr	r2, [pc, #300]	; (8006b4c <HAL_RCCEx_PeriphCLKConfig+0x2e4>)
 8006a1e:	f023 5380 	bic.w	r3, r3, #268435456	; 0x10000000
 8006a22:	6593      	str	r3, [r2, #88]	; 0x58
    }
  }

  /*-------------------------- USART1 clock source configuration -------------------*/
  if(((PeriphClkInit->PeriphClockSelection) & RCC_PERIPHCLK_USART1) == RCC_PERIPHCLK_USART1)
 8006a24:	687b      	ldr	r3, [r7, #4]
 8006a26:	681b      	ldr	r3, [r3, #0]
 8006a28:	f003 0301 	and.w	r3, r3, #1
 8006a2c:	2b00      	cmp	r3, #0
 8006a2e:	d00a      	beq.n	8006a46 <HAL_RCCEx_PeriphCLKConfig+0x1de>
  {
    /* Check the parameters */
    assert_param(IS_RCC_USART1CLKSOURCE(PeriphClkInit->Usart1ClockSelection));

    /* Configure the USART1 clock source */
    __HAL_RCC_USART1_CONFIG(PeriphClkInit->Usart1ClockSelection);
 8006a30:	4b46      	ldr	r3, [pc, #280]	; (8006b4c <HAL_RCCEx_PeriphCLKConfig+0x2e4>)
 8006a32:	f8d3 3088 	ldr.w	r3, [r3, #136]	; 0x88
 8006a36:	f023 0203 	bic.w	r2, r3, #3
 8006a3a:	687b      	ldr	r3, [r7, #4]
 8006a3c:	6a1b      	ldr	r3, [r3, #32]
 8006a3e:	4943      	ldr	r1, [pc, #268]	; (8006b4c <HAL_RCCEx_PeriphCLKConfig+0x2e4>)
 8006a40:	4313      	orrs	r3, r2
 8006a42:	f8c1 3088 	str.w	r3, [r1, #136]	; 0x88
  }

  /*-------------------------- USART2 clock source configuration -------------------*/
  if(((PeriphClkInit->PeriphClockSelection) & RCC_PERIPHCLK_USART2) == RCC_PERIPHCLK_USART2)
 8006a46:	687b      	ldr	r3, [r7, #4]
 8006a48:	681b      	ldr	r3, [r3, #0]
 8006a4a:	f003 0302 	and.w	r3, r3, #2
 8006a4e:	2b00      	cmp	r3, #0
 8006a50:	d00a      	beq.n	8006a68 <HAL_RCCEx_PeriphCLKConfig+0x200>
  {
    /* Check the parameters */
    assert_param(IS_RCC_USART2CLKSOURCE(PeriphClkInit->Usart2ClockSelection));

    /* Configure the USART2 clock source */
    __HAL_RCC_USART2_CONFIG(PeriphClkInit->Usart2ClockSelection);
 8006a52:	4b3e      	ldr	r3, [pc, #248]	; (8006b4c <HAL_RCCEx_PeriphCLKConfig+0x2e4>)
 8006a54:	f8d3 3088 	ldr.w	r3, [r3, #136]	; 0x88
 8006a58:	f023 020c 	bic.w	r2, r3, #12
 8006a5c:	687b      	ldr	r3, [r7, #4]
 8006a5e:	6a5b      	ldr	r3, [r3, #36]	; 0x24
 8006a60:	493a      	ldr	r1, [pc, #232]	; (8006b4c <HAL_RCCEx_PeriphCLKConfig+0x2e4>)
 8006a62:	4313      	orrs	r3, r2
 8006a64:	f8c1 3088 	str.w	r3, [r1, #136]	; 0x88
  }

#endif /* UART5 */

  /*-------------------------- LPUART1 clock source configuration ------------------*/
  if(((PeriphClkInit->PeriphClockSelection) & RCC_PERIPHCLK_LPUART1) == RCC_PERIPHCLK_LPUART1)
 8006a68:	687b      	ldr	r3, [r7, #4]
 8006a6a:	681b      	ldr	r3, [r3, #0]
 8006a6c:	f003 0320 	and.w	r3, r3, #32
 8006a70:	2b00      	cmp	r3, #0
 8006a72:	d00a      	beq.n	8006a8a <HAL_RCCEx_PeriphCLKConfig+0x222>
  {
    /* Check the parameters */
    assert_param(IS_RCC_LPUART1CLKSOURCE(PeriphClkInit->Lpuart1ClockSelection));

    /* Configure the LPUART1 clock source */
    __HAL_RCC_LPUART1_CONFIG(PeriphClkInit->Lpuart1ClockSelection);
 8006a74:	4b35      	ldr	r3, [pc, #212]	; (8006b4c <HAL_RCCEx_PeriphCLKConfig+0x2e4>)
 8006a76:	f8d3 3088 	ldr.w	r3, [r3, #136]	; 0x88
 8006a7a:	f423 6240 	bic.w	r2, r3, #3072	; 0xc00
 8006a7e:	687b      	ldr	r3, [r7, #4]
 8006a80:	6a9b      	ldr	r3, [r3, #40]	; 0x28
 8006a82:	4932      	ldr	r1, [pc, #200]	; (8006b4c <HAL_RCCEx_PeriphCLKConfig+0x2e4>)
 8006a84:	4313      	orrs	r3, r2
 8006a86:	f8c1 3088 	str.w	r3, [r1, #136]	; 0x88
  }

  /*-------------------------- LPTIM1 clock source configuration -------------------*/
  if(((PeriphClkInit->PeriphClockSelection) & RCC_PERIPHCLK_LPTIM1) == (RCC_PERIPHCLK_LPTIM1))
 8006a8a:	687b      	ldr	r3, [r7, #4]
 8006a8c:	681b      	ldr	r3, [r3, #0]
 8006a8e:	f403 7300 	and.w	r3, r3, #512	; 0x200
 8006a92:	2b00      	cmp	r3, #0
 8006a94:	d00a      	beq.n	8006aac <HAL_RCCEx_PeriphCLKConfig+0x244>
  {
    assert_param(IS_RCC_LPTIM1CLK(PeriphClkInit->Lptim1ClockSelection));
    __HAL_RCC_LPTIM1_CONFIG(PeriphClkInit->Lptim1ClockSelection);
 8006a96:	4b2d      	ldr	r3, [pc, #180]	; (8006b4c <HAL_RCCEx_PeriphCLKConfig+0x2e4>)
 8006a98:	f8d3 3088 	ldr.w	r3, [r3, #136]	; 0x88
 8006a9c:	f423 2240 	bic.w	r2, r3, #786432	; 0xc0000
 8006aa0:	687b      	ldr	r3, [r7, #4]
 8006aa2:	6b5b      	ldr	r3, [r3, #52]	; 0x34
 8006aa4:	4929      	ldr	r1, [pc, #164]	; (8006b4c <HAL_RCCEx_PeriphCLKConfig+0x2e4>)
 8006aa6:	4313      	orrs	r3, r2
 8006aa8:	f8c1 3088 	str.w	r3, [r1, #136]	; 0x88
  }

  /*-------------------------- LPTIM2 clock source configuration -------------------*/
  if(((PeriphClkInit->PeriphClockSelection) & RCC_PERIPHCLK_LPTIM2) == (RCC_PERIPHCLK_LPTIM2))
 8006aac:	687b      	ldr	r3, [r7, #4]
 8006aae:	681b      	ldr	r3, [r3, #0]
 8006ab0:	f403 6380 	and.w	r3, r3, #1024	; 0x400
 8006ab4:	2b00      	cmp	r3, #0
 8006ab6:	d00a      	beq.n	8006ace <HAL_RCCEx_PeriphCLKConfig+0x266>
  {
    assert_param(IS_RCC_LPTIM2CLK(PeriphClkInit->Lptim2ClockSelection));
    __HAL_RCC_LPTIM2_CONFIG(PeriphClkInit->Lptim2ClockSelection);
 8006ab8:	4b24      	ldr	r3, [pc, #144]	; (8006b4c <HAL_RCCEx_PeriphCLKConfig+0x2e4>)
 8006aba:	f8d3 3088 	ldr.w	r3, [r3, #136]	; 0x88
 8006abe:	f423 1240 	bic.w	r2, r3, #3145728	; 0x300000
 8006ac2:	687b      	ldr	r3, [r7, #4]
 8006ac4:	6b9b      	ldr	r3, [r3, #56]	; 0x38
 8006ac6:	4921      	ldr	r1, [pc, #132]	; (8006b4c <HAL_RCCEx_PeriphCLKConfig+0x2e4>)
 8006ac8:	4313      	orrs	r3, r2
 8006aca:	f8c1 3088 	str.w	r3, [r1, #136]	; 0x88
  }

  /*-------------------------- I2C1 clock source configuration ---------------------*/
  if(((PeriphClkInit->PeriphClockSelection) & RCC_PERIPHCLK_I2C1) == RCC_PERIPHCLK_I2C1)
 8006ace:	687b      	ldr	r3, [r7, #4]
 8006ad0:	681b      	ldr	r3, [r3, #0]
 8006ad2:	f003 0340 	and.w	r3, r3, #64	; 0x40
 8006ad6:	2b00      	cmp	r3, #0
 8006ad8:	d00a      	beq.n	8006af0 <HAL_RCCEx_PeriphCLKConfig+0x288>
  {
    /* Check the parameters */
    assert_param(IS_RCC_I2C1CLKSOURCE(PeriphClkInit->I2c1ClockSelection));

    /* Configure the I2C1 clock source */
    __HAL_RCC_I2C1_CONFIG(PeriphClkInit->I2c1ClockSelection);
 8006ada:	4b1c      	ldr	r3, [pc, #112]	; (8006b4c <HAL_RCCEx_PeriphCLKConfig+0x2e4>)
 8006adc:	f8d3 3088 	ldr.w	r3, [r3, #136]	; 0x88
 8006ae0:	f423 5240 	bic.w	r2, r3, #12288	; 0x3000
 8006ae4:	687b      	ldr	r3, [r7, #4]
 8006ae6:	6adb      	ldr	r3, [r3, #44]	; 0x2c
 8006ae8:	4918      	ldr	r1, [pc, #96]	; (8006b4c <HAL_RCCEx_PeriphCLKConfig+0x2e4>)
 8006aea:	4313      	orrs	r3, r2
 8006aec:	f8c1 3088 	str.w	r3, [r1, #136]	; 0x88
  }

#endif /* I2C2 */

  /*-------------------------- I2C3 clock source configuration ---------------------*/
  if(((PeriphClkInit->PeriphClockSelection) & RCC_PERIPHCLK_I2C3) == RCC_PERIPHCLK_I2C3)
 8006af0:	687b      	ldr	r3, [r7, #4]
 8006af2:	681b      	ldr	r3, [r3, #0]
 8006af4:	f403 7380 	and.w	r3, r3, #256	; 0x100
 8006af8:	2b00      	cmp	r3, #0
 8006afa:	d00a      	beq.n	8006b12 <HAL_RCCEx_PeriphCLKConfig+0x2aa>
  {
    /* Check the parameters */
    assert_param(IS_RCC_I2C3CLKSOURCE(PeriphClkInit->I2c3ClockSelection));

    /* Configure the I2C3 clock source */
    __HAL_RCC_I2C3_CONFIG(PeriphClkInit->I2c3ClockSelection);
 8006afc:	4b13      	ldr	r3, [pc, #76]	; (8006b4c <HAL_RCCEx_PeriphCLKConfig+0x2e4>)
 8006afe:	f8d3 3088 	ldr.w	r3, [r3, #136]	; 0x88
 8006b02:	f423 3240 	bic.w	r2, r3, #196608	; 0x30000
 8006b06:	687b      	ldr	r3, [r7, #4]
 8006b08:	6b1b      	ldr	r3, [r3, #48]	; 0x30
 8006b0a:	4910      	ldr	r1, [pc, #64]	; (8006b4c <HAL_RCCEx_PeriphCLKConfig+0x2e4>)
 8006b0c:	4313      	orrs	r3, r2
 8006b0e:	f8c1 3088 	str.w	r3, [r1, #136]	; 0x88
#endif /* I2C4 */

#if defined(USB_OTG_FS) || defined(USB)

  /*-------------------------- USB clock source configuration ----------------------*/
  if(((PeriphClkInit->PeriphClockSelection) & RCC_PERIPHCLK_USB) == (RCC_PERIPHCLK_USB))
 8006b12:	687b      	ldr	r3, [r7, #4]
 8006b14:	681b      	ldr	r3, [r3, #0]
 8006b16:	f403 5300 	and.w	r3, r3, #8192	; 0x2000
 8006b1a:	2b00      	cmp	r3, #0
 8006b1c:	d02c      	beq.n	8006b78 <HAL_RCCEx_PeriphCLKConfig+0x310>
  {
    assert_param(IS_RCC_USBCLKSOURCE(PeriphClkInit->UsbClockSelection));
    __HAL_RCC_USB_CONFIG(PeriphClkInit->UsbClockSelection);
 8006b1e:	4b0b      	ldr	r3, [pc, #44]	; (8006b4c <HAL_RCCEx_PeriphCLKConfig+0x2e4>)
 8006b20:	f8d3 3088 	ldr.w	r3, [r3, #136]	; 0x88
 8006b24:	f023 6240 	bic.w	r2, r3, #201326592	; 0xc000000
 8006b28:	687b      	ldr	r3, [r7, #4]
 8006b2a:	6c1b      	ldr	r3, [r3, #64]	; 0x40
 8006b2c:	4907      	ldr	r1, [pc, #28]	; (8006b4c <HAL_RCCEx_PeriphCLKConfig+0x2e4>)
 8006b2e:	4313      	orrs	r3, r2
 8006b30:	f8c1 3088 	str.w	r3, [r1, #136]	; 0x88

    if(PeriphClkInit->UsbClockSelection == RCC_USBCLKSOURCE_PLL)
 8006b34:	687b      	ldr	r3, [r7, #4]
 8006b36:	6c1b      	ldr	r3, [r3, #64]	; 0x40
 8006b38:	f1b3 6f00 	cmp.w	r3, #134217728	; 0x8000000
 8006b3c:	d10a      	bne.n	8006b54 <HAL_RCCEx_PeriphCLKConfig+0x2ec>
    {
      /* Enable PLL48M1CLK output clock */
      __HAL_RCC_PLLCLKOUT_ENABLE(RCC_PLL_48M1CLK);
 8006b3e:	4b03      	ldr	r3, [pc, #12]	; (8006b4c <HAL_RCCEx_PeriphCLKConfig+0x2e4>)
 8006b40:	68db      	ldr	r3, [r3, #12]
 8006b42:	4a02      	ldr	r2, [pc, #8]	; (8006b4c <HAL_RCCEx_PeriphCLKConfig+0x2e4>)
 8006b44:	f443 1380 	orr.w	r3, r3, #1048576	; 0x100000
 8006b48:	60d3      	str	r3, [r2, #12]
 8006b4a:	e015      	b.n	8006b78 <HAL_RCCEx_PeriphCLKConfig+0x310>
 8006b4c:	40021000 	.word	0x40021000
 8006b50:	40007000 	.word	0x40007000
    }
    else
    {
#if defined(RCC_PLLSAI1_SUPPORT)
      if(PeriphClkInit->UsbClockSelection == RCC_USBCLKSOURCE_PLLSAI1)
 8006b54:	687b      	ldr	r3, [r7, #4]
 8006b56:	6c1b      	ldr	r3, [r3, #64]	; 0x40
 8006b58:	f1b3 6f80 	cmp.w	r3, #67108864	; 0x4000000
 8006b5c:	d10c      	bne.n	8006b78 <HAL_RCCEx_PeriphCLKConfig+0x310>
      {
        /* PLLSAI1 input clock, parameters M, N & Q configuration and clock output (PLLSAI1ClockOut) */
        ret = RCCEx_PLLSAI1_Config(&(PeriphClkInit->PLLSAI1), DIVIDER_Q_UPDATE);
 8006b5e:	687b      	ldr	r3, [r7, #4]
 8006b60:	3304      	adds	r3, #4
 8006b62:	2101      	movs	r1, #1
 8006b64:	4618      	mov	r0, r3
 8006b66:	f000 f881 	bl	8006c6c <RCCEx_PLLSAI1_Config>
 8006b6a:	4603      	mov	r3, r0
 8006b6c:	74fb      	strb	r3, [r7, #19]

        if(ret != HAL_OK)
 8006b6e:	7cfb      	ldrb	r3, [r7, #19]
 8006b70:	2b00      	cmp	r3, #0
 8006b72:	d001      	beq.n	8006b78 <HAL_RCCEx_PeriphCLKConfig+0x310>
        {
          /* set overall return value */
          status = ret;
 8006b74:	7cfb      	ldrb	r3, [r7, #19]
 8006b76:	74bb      	strb	r3, [r7, #18]
  }

#endif /* SDMMC1 */

  /*-------------------------- RNG clock source configuration ----------------------*/
  if(((PeriphClkInit->PeriphClockSelection) & RCC_PERIPHCLK_RNG) == (RCC_PERIPHCLK_RNG))
 8006b78:	687b      	ldr	r3, [r7, #4]
 8006b7a:	681b      	ldr	r3, [r3, #0]
 8006b7c:	f403 2380 	and.w	r3, r3, #262144	; 0x40000
 8006b80:	2b00      	cmp	r3, #0
 8006b82:	d028      	beq.n	8006bd6 <HAL_RCCEx_PeriphCLKConfig+0x36e>
  {
    assert_param(IS_RCC_RNGCLKSOURCE(PeriphClkInit->RngClockSelection));
    __HAL_RCC_RNG_CONFIG(PeriphClkInit->RngClockSelection);
 8006b84:	4b30      	ldr	r3, [pc, #192]	; (8006c48 <HAL_RCCEx_PeriphCLKConfig+0x3e0>)
 8006b86:	f8d3 3088 	ldr.w	r3, [r3, #136]	; 0x88
 8006b8a:	f023 6240 	bic.w	r2, r3, #201326592	; 0xc000000
 8006b8e:	687b      	ldr	r3, [r7, #4]
 8006b90:	6c5b      	ldr	r3, [r3, #68]	; 0x44
 8006b92:	492d      	ldr	r1, [pc, #180]	; (8006c48 <HAL_RCCEx_PeriphCLKConfig+0x3e0>)
 8006b94:	4313      	orrs	r3, r2
 8006b96:	f8c1 3088 	str.w	r3, [r1, #136]	; 0x88

    if(PeriphClkInit->RngClockSelection == RCC_RNGCLKSOURCE_PLL)
 8006b9a:	687b      	ldr	r3, [r7, #4]
 8006b9c:	6c5b      	ldr	r3, [r3, #68]	; 0x44
 8006b9e:	f1b3 6f00 	cmp.w	r3, #134217728	; 0x8000000
 8006ba2:	d106      	bne.n	8006bb2 <HAL_RCCEx_PeriphCLKConfig+0x34a>
    {
      /* Enable PLL48M1CLK output clock */
      __HAL_RCC_PLLCLKOUT_ENABLE(RCC_PLL_48M1CLK);
 8006ba4:	4b28      	ldr	r3, [pc, #160]	; (8006c48 <HAL_RCCEx_PeriphCLKConfig+0x3e0>)
 8006ba6:	68db      	ldr	r3, [r3, #12]
 8006ba8:	4a27      	ldr	r2, [pc, #156]	; (8006c48 <HAL_RCCEx_PeriphCLKConfig+0x3e0>)
 8006baa:	f443 1380 	orr.w	r3, r3, #1048576	; 0x100000
 8006bae:	60d3      	str	r3, [r2, #12]
 8006bb0:	e011      	b.n	8006bd6 <HAL_RCCEx_PeriphCLKConfig+0x36e>
    }
#if defined(RCC_PLLSAI1_SUPPORT)
    else if(PeriphClkInit->RngClockSelection == RCC_RNGCLKSOURCE_PLLSAI1)
 8006bb2:	687b      	ldr	r3, [r7, #4]
 8006bb4:	6c5b      	ldr	r3, [r3, #68]	; 0x44
 8006bb6:	f1b3 6f80 	cmp.w	r3, #67108864	; 0x4000000
 8006bba:	d10c      	bne.n	8006bd6 <HAL_RCCEx_PeriphCLKConfig+0x36e>
    {
      /* PLLSAI1 input clock, parameters M, N & Q configuration and clock output (PLLSAI1ClockOut) */
      ret = RCCEx_PLLSAI1_Config(&(PeriphClkInit->PLLSAI1), DIVIDER_Q_UPDATE);
 8006bbc:	687b      	ldr	r3, [r7, #4]
 8006bbe:	3304      	adds	r3, #4
 8006bc0:	2101      	movs	r1, #1
 8006bc2:	4618      	mov	r0, r3
 8006bc4:	f000 f852 	bl	8006c6c <RCCEx_PLLSAI1_Config>
 8006bc8:	4603      	mov	r3, r0
 8006bca:	74fb      	strb	r3, [r7, #19]

      if(ret != HAL_OK)
 8006bcc:	7cfb      	ldrb	r3, [r7, #19]
 8006bce:	2b00      	cmp	r3, #0
 8006bd0:	d001      	beq.n	8006bd6 <HAL_RCCEx_PeriphCLKConfig+0x36e>
      {
        /* set overall return value */
        status = ret;
 8006bd2:	7cfb      	ldrb	r3, [r7, #19]
 8006bd4:	74bb      	strb	r3, [r7, #18]
    }
  }

  /*-------------------------- ADC clock source configuration ----------------------*/
#if !defined(STM32L412xx) && !defined(STM32L422xx)
  if(((PeriphClkInit->PeriphClockSelection) & RCC_PERIPHCLK_ADC) == RCC_PERIPHCLK_ADC)
 8006bd6:	687b      	ldr	r3, [r7, #4]
 8006bd8:	681b      	ldr	r3, [r3, #0]
 8006bda:	f403 4380 	and.w	r3, r3, #16384	; 0x4000
 8006bde:	2b00      	cmp	r3, #0
 8006be0:	d01c      	beq.n	8006c1c <HAL_RCCEx_PeriphCLKConfig+0x3b4>
  {
    /* Check the parameters */
    assert_param(IS_RCC_ADCCLKSOURCE(PeriphClkInit->AdcClockSelection));

    /* Configure the ADC interface clock source */
    __HAL_RCC_ADC_CONFIG(PeriphClkInit->AdcClockSelection);
 8006be2:	4b19      	ldr	r3, [pc, #100]	; (8006c48 <HAL_RCCEx_PeriphCLKConfig+0x3e0>)
 8006be4:	f8d3 3088 	ldr.w	r3, [r3, #136]	; 0x88
 8006be8:	f023 5240 	bic.w	r2, r3, #805306368	; 0x30000000
 8006bec:	687b      	ldr	r3, [r7, #4]
 8006bee:	6c9b      	ldr	r3, [r3, #72]	; 0x48
 8006bf0:	4915      	ldr	r1, [pc, #84]	; (8006c48 <HAL_RCCEx_PeriphCLKConfig+0x3e0>)
 8006bf2:	4313      	orrs	r3, r2
 8006bf4:	f8c1 3088 	str.w	r3, [r1, #136]	; 0x88

#if defined(RCC_PLLSAI1_SUPPORT)
    if(PeriphClkInit->AdcClockSelection == RCC_ADCCLKSOURCE_PLLSAI1)
 8006bf8:	687b      	ldr	r3, [r7, #4]
 8006bfa:	6c9b      	ldr	r3, [r3, #72]	; 0x48
 8006bfc:	f1b3 5f80 	cmp.w	r3, #268435456	; 0x10000000
 8006c00:	d10c      	bne.n	8006c1c <HAL_RCCEx_PeriphCLKConfig+0x3b4>
    {
      /* PLLSAI1 input clock, parameters M, N & R configuration and clock output (PLLSAI1ClockOut) */
      ret = RCCEx_PLLSAI1_Config(&(PeriphClkInit->PLLSAI1), DIVIDER_R_UPDATE);
 8006c02:	687b      	ldr	r3, [r7, #4]
 8006c04:	3304      	adds	r3, #4
 8006c06:	2102      	movs	r1, #2
 8006c08:	4618      	mov	r0, r3
 8006c0a:	f000 f82f 	bl	8006c6c <RCCEx_PLLSAI1_Config>
 8006c0e:	4603      	mov	r3, r0
 8006c10:	74fb      	strb	r3, [r7, #19]

      if(ret != HAL_OK)
 8006c12:	7cfb      	ldrb	r3, [r7, #19]
 8006c14:	2b00      	cmp	r3, #0
 8006c16:	d001      	beq.n	8006c1c <HAL_RCCEx_PeriphCLKConfig+0x3b4>
      {
        /* set overall return value */
        status = ret;
 8006c18:	7cfb      	ldrb	r3, [r7, #19]
 8006c1a:	74bb      	strb	r3, [r7, #18]
#endif /* !STM32L412xx && !STM32L422xx */

#if defined(SWPMI1)

  /*-------------------------- SWPMI1 clock source configuration -------------------*/
  if(((PeriphClkInit->PeriphClockSelection) & RCC_PERIPHCLK_SWPMI1) == RCC_PERIPHCLK_SWPMI1)
 8006c1c:	687b      	ldr	r3, [r7, #4]
 8006c1e:	681b      	ldr	r3, [r3, #0]
 8006c20:	f403 4300 	and.w	r3, r3, #32768	; 0x8000
 8006c24:	2b00      	cmp	r3, #0
 8006c26:	d00a      	beq.n	8006c3e <HAL_RCCEx_PeriphCLKConfig+0x3d6>
  {
    /* Check the parameters */
    assert_param(IS_RCC_SWPMI1CLKSOURCE(PeriphClkInit->Swpmi1ClockSelection));

    /* Configure the SWPMI1 clock source */
    __HAL_RCC_SWPMI1_CONFIG(PeriphClkInit->Swpmi1ClockSelection);
 8006c28:	4b07      	ldr	r3, [pc, #28]	; (8006c48 <HAL_RCCEx_PeriphCLKConfig+0x3e0>)
 8006c2a:	f8d3 3088 	ldr.w	r3, [r3, #136]	; 0x88
 8006c2e:	f023 4280 	bic.w	r2, r3, #1073741824	; 0x40000000
 8006c32:	687b      	ldr	r3, [r7, #4]
 8006c34:	6cdb      	ldr	r3, [r3, #76]	; 0x4c
 8006c36:	4904      	ldr	r1, [pc, #16]	; (8006c48 <HAL_RCCEx_PeriphCLKConfig+0x3e0>)
 8006c38:	4313      	orrs	r3, r2
 8006c3a:	f8c1 3088 	str.w	r3, [r1, #136]	; 0x88
    }
  }

#endif /* OCTOSPI1 || OCTOSPI2 */

  return status;
 8006c3e:	7cbb      	ldrb	r3, [r7, #18]
}
 8006c40:	4618      	mov	r0, r3
 8006c42:	3718      	adds	r7, #24
 8006c44:	46bd      	mov	sp, r7
 8006c46:	bd80      	pop	{r7, pc}
 8006c48:	40021000 	.word	0x40021000

08006c4c <HAL_RCCEx_EnableMSIPLLMode>:
  * @note   Prior to enable the PLL-mode of the MSI for automatic hardware
  *         calibration LSE oscillator is to be enabled with HAL_RCC_OscConfig().
  * @retval None
  */
void HAL_RCCEx_EnableMSIPLLMode(void)
{
 8006c4c:	b480      	push	{r7}
 8006c4e:	af00      	add	r7, sp, #0
  SET_BIT(RCC->CR, RCC_CR_MSIPLLEN) ;
 8006c50:	4b05      	ldr	r3, [pc, #20]	; (8006c68 <HAL_RCCEx_EnableMSIPLLMode+0x1c>)
 8006c52:	681b      	ldr	r3, [r3, #0]
 8006c54:	4a04      	ldr	r2, [pc, #16]	; (8006c68 <HAL_RCCEx_EnableMSIPLLMode+0x1c>)
 8006c56:	f043 0304 	orr.w	r3, r3, #4
 8006c5a:	6013      	str	r3, [r2, #0]
}
 8006c5c:	bf00      	nop
 8006c5e:	46bd      	mov	sp, r7
 8006c60:	f85d 7b04 	ldr.w	r7, [sp], #4
 8006c64:	4770      	bx	lr
 8006c66:	bf00      	nop
 8006c68:	40021000 	.word	0x40021000

08006c6c <RCCEx_PLLSAI1_Config>:
  * @note   PLLSAI1 is temporary disable to apply new parameters
  *
  * @retval HAL status
  */
static HAL_StatusTypeDef RCCEx_PLLSAI1_Config(RCC_PLLSAI1InitTypeDef *PllSai1, uint32_t Divider)
{
 8006c6c:	b580      	push	{r7, lr}
 8006c6e:	b084      	sub	sp, #16
 8006c70:	af00      	add	r7, sp, #0
 8006c72:	6078      	str	r0, [r7, #4]
 8006c74:	6039      	str	r1, [r7, #0]
  uint32_t tickstart;
  HAL_StatusTypeDef status = HAL_OK;
 8006c76:	2300      	movs	r3, #0
 8006c78:	73fb      	strb	r3, [r7, #15]
  assert_param(IS_RCC_PLLSAI1M_VALUE(PllSai1->PLLSAI1M));
  assert_param(IS_RCC_PLLSAI1N_VALUE(PllSai1->PLLSAI1N));
  assert_param(IS_RCC_PLLSAI1CLOCKOUT_VALUE(PllSai1->PLLSAI1ClockOut));

  /* Check that PLLSAI1 clock source and divider M can be applied */
  if(__HAL_RCC_GET_PLL_OSCSOURCE() != RCC_PLLSOURCE_NONE)
 8006c7a:	4b73      	ldr	r3, [pc, #460]	; (8006e48 <RCCEx_PLLSAI1_Config+0x1dc>)
 8006c7c:	68db      	ldr	r3, [r3, #12]
 8006c7e:	f003 0303 	and.w	r3, r3, #3
 8006c82:	2b00      	cmp	r3, #0
 8006c84:	d018      	beq.n	8006cb8 <RCCEx_PLLSAI1_Config+0x4c>
  {
    /* PLL clock source and divider M already set, check that no request for change  */
    if((__HAL_RCC_GET_PLL_OSCSOURCE() != PllSai1->PLLSAI1Source)
 8006c86:	4b70      	ldr	r3, [pc, #448]	; (8006e48 <RCCEx_PLLSAI1_Config+0x1dc>)
 8006c88:	68db      	ldr	r3, [r3, #12]
 8006c8a:	f003 0203 	and.w	r2, r3, #3
 8006c8e:	687b      	ldr	r3, [r7, #4]
 8006c90:	681b      	ldr	r3, [r3, #0]
 8006c92:	429a      	cmp	r2, r3
 8006c94:	d10d      	bne.n	8006cb2 <RCCEx_PLLSAI1_Config+0x46>
       ||
       (PllSai1->PLLSAI1Source == RCC_PLLSOURCE_NONE)
 8006c96:	687b      	ldr	r3, [r7, #4]
 8006c98:	681b      	ldr	r3, [r3, #0]
       ||
 8006c9a:	2b00      	cmp	r3, #0
 8006c9c:	d009      	beq.n	8006cb2 <RCCEx_PLLSAI1_Config+0x46>
#if !defined(RCC_PLLSAI1M_DIV_1_16_SUPPORT)
       ||
       (((READ_BIT(RCC->PLLCFGR, RCC_PLLCFGR_PLLM) >> RCC_PLLCFGR_PLLM_Pos) + 1U) != PllSai1->PLLSAI1M)
 8006c9e:	4b6a      	ldr	r3, [pc, #424]	; (8006e48 <RCCEx_PLLSAI1_Config+0x1dc>)
 8006ca0:	68db      	ldr	r3, [r3, #12]
 8006ca2:	091b      	lsrs	r3, r3, #4
 8006ca4:	f003 0307 	and.w	r3, r3, #7
 8006ca8:	1c5a      	adds	r2, r3, #1
 8006caa:	687b      	ldr	r3, [r7, #4]
 8006cac:	685b      	ldr	r3, [r3, #4]
       ||
 8006cae:	429a      	cmp	r2, r3
 8006cb0:	d044      	beq.n	8006d3c <RCCEx_PLLSAI1_Config+0xd0>
#endif
      )
    {
      status = HAL_ERROR;
 8006cb2:	2301      	movs	r3, #1
 8006cb4:	73fb      	strb	r3, [r7, #15]
 8006cb6:	e041      	b.n	8006d3c <RCCEx_PLLSAI1_Config+0xd0>
    }
  }
  else
  {
    /* Check PLLSAI1 clock source availability */
    switch(PllSai1->PLLSAI1Source)
 8006cb8:	687b      	ldr	r3, [r7, #4]
 8006cba:	681b      	ldr	r3, [r3, #0]
 8006cbc:	2b02      	cmp	r3, #2
 8006cbe:	d00c      	beq.n	8006cda <RCCEx_PLLSAI1_Config+0x6e>
 8006cc0:	2b03      	cmp	r3, #3
 8006cc2:	d013      	beq.n	8006cec <RCCEx_PLLSAI1_Config+0x80>
 8006cc4:	2b01      	cmp	r3, #1
 8006cc6:	d120      	bne.n	8006d0a <RCCEx_PLLSAI1_Config+0x9e>
    {
    case RCC_PLLSOURCE_MSI:
      if(HAL_IS_BIT_CLR(RCC->CR, RCC_CR_MSIRDY))
 8006cc8:	4b5f      	ldr	r3, [pc, #380]	; (8006e48 <RCCEx_PLLSAI1_Config+0x1dc>)
 8006cca:	681b      	ldr	r3, [r3, #0]
 8006ccc:	f003 0302 	and.w	r3, r3, #2
 8006cd0:	2b00      	cmp	r3, #0
 8006cd2:	d11d      	bne.n	8006d10 <RCCEx_PLLSAI1_Config+0xa4>
      {
        status = HAL_ERROR;
 8006cd4:	2301      	movs	r3, #1
 8006cd6:	73fb      	strb	r3, [r7, #15]
      }
      break;
 8006cd8:	e01a      	b.n	8006d10 <RCCEx_PLLSAI1_Config+0xa4>
    case RCC_PLLSOURCE_HSI:
      if(HAL_IS_BIT_CLR(RCC->CR, RCC_CR_HSIRDY))
 8006cda:	4b5b      	ldr	r3, [pc, #364]	; (8006e48 <RCCEx_PLLSAI1_Config+0x1dc>)
 8006cdc:	681b      	ldr	r3, [r3, #0]
 8006cde:	f403 6380 	and.w	r3, r3, #1024	; 0x400
 8006ce2:	2b00      	cmp	r3, #0
 8006ce4:	d116      	bne.n	8006d14 <RCCEx_PLLSAI1_Config+0xa8>
      {
        status = HAL_ERROR;
 8006ce6:	2301      	movs	r3, #1
 8006ce8:	73fb      	strb	r3, [r7, #15]
      }
      break;
 8006cea:	e013      	b.n	8006d14 <RCCEx_PLLSAI1_Config+0xa8>
    case RCC_PLLSOURCE_HSE:
      if(HAL_IS_BIT_CLR(RCC->CR, RCC_CR_HSERDY))
 8006cec:	4b56      	ldr	r3, [pc, #344]	; (8006e48 <RCCEx_PLLSAI1_Config+0x1dc>)
 8006cee:	681b      	ldr	r3, [r3, #0]
 8006cf0:	f403 3300 	and.w	r3, r3, #131072	; 0x20000
 8006cf4:	2b00      	cmp	r3, #0
 8006cf6:	d10f      	bne.n	8006d18 <RCCEx_PLLSAI1_Config+0xac>
      {
        if(HAL_IS_BIT_CLR(RCC->CR, RCC_CR_HSEBYP))
 8006cf8:	4b53      	ldr	r3, [pc, #332]	; (8006e48 <RCCEx_PLLSAI1_Config+0x1dc>)
 8006cfa:	681b      	ldr	r3, [r3, #0]
 8006cfc:	f403 2380 	and.w	r3, r3, #262144	; 0x40000
 8006d00:	2b00      	cmp	r3, #0
 8006d02:	d109      	bne.n	8006d18 <RCCEx_PLLSAI1_Config+0xac>
        {
          status = HAL_ERROR;
 8006d04:	2301      	movs	r3, #1
 8006d06:	73fb      	strb	r3, [r7, #15]
        }
      }
      break;
 8006d08:	e006      	b.n	8006d18 <RCCEx_PLLSAI1_Config+0xac>
    default:
      status = HAL_ERROR;
 8006d0a:	2301      	movs	r3, #1
 8006d0c:	73fb      	strb	r3, [r7, #15]
      break;
 8006d0e:	e004      	b.n	8006d1a <RCCEx_PLLSAI1_Config+0xae>
      break;
 8006d10:	bf00      	nop
 8006d12:	e002      	b.n	8006d1a <RCCEx_PLLSAI1_Config+0xae>
      break;
 8006d14:	bf00      	nop
 8006d16:	e000      	b.n	8006d1a <RCCEx_PLLSAI1_Config+0xae>
      break;
 8006d18:	bf00      	nop
    }

    if(status == HAL_OK)
 8006d1a:	7bfb      	ldrb	r3, [r7, #15]
 8006d1c:	2b00      	cmp	r3, #0
 8006d1e:	d10d      	bne.n	8006d3c <RCCEx_PLLSAI1_Config+0xd0>
#if defined(RCC_PLLSAI1M_DIV_1_16_SUPPORT)
      /* Set PLLSAI1 clock source */
      MODIFY_REG(RCC->PLLCFGR, RCC_PLLCFGR_PLLSRC, PllSai1->PLLSAI1Source);
#else
      /* Set PLLSAI1 clock source and divider M */
      MODIFY_REG(RCC->PLLCFGR, RCC_PLLCFGR_PLLSRC | RCC_PLLCFGR_PLLM, PllSai1->PLLSAI1Source | (PllSai1->PLLSAI1M - 1U) << RCC_PLLCFGR_PLLM_Pos);
 8006d20:	4b49      	ldr	r3, [pc, #292]	; (8006e48 <RCCEx_PLLSAI1_Config+0x1dc>)
 8006d22:	68db      	ldr	r3, [r3, #12]
 8006d24:	f023 0273 	bic.w	r2, r3, #115	; 0x73
 8006d28:	687b      	ldr	r3, [r7, #4]
 8006d2a:	6819      	ldr	r1, [r3, #0]
 8006d2c:	687b      	ldr	r3, [r7, #4]
 8006d2e:	685b      	ldr	r3, [r3, #4]
 8006d30:	3b01      	subs	r3, #1
 8006d32:	011b      	lsls	r3, r3, #4
 8006d34:	430b      	orrs	r3, r1
 8006d36:	4944      	ldr	r1, [pc, #272]	; (8006e48 <RCCEx_PLLSAI1_Config+0x1dc>)
 8006d38:	4313      	orrs	r3, r2
 8006d3a:	60cb      	str	r3, [r1, #12]
#endif
    }
  }

  if(status == HAL_OK)
 8006d3c:	7bfb      	ldrb	r3, [r7, #15]
 8006d3e:	2b00      	cmp	r3, #0
 8006d40:	d17c      	bne.n	8006e3c <RCCEx_PLLSAI1_Config+0x1d0>
  {
    /* Disable the PLLSAI1 */
    __HAL_RCC_PLLSAI1_DISABLE();
 8006d42:	4b41      	ldr	r3, [pc, #260]	; (8006e48 <RCCEx_PLLSAI1_Config+0x1dc>)
 8006d44:	681b      	ldr	r3, [r3, #0]
 8006d46:	4a40      	ldr	r2, [pc, #256]	; (8006e48 <RCCEx_PLLSAI1_Config+0x1dc>)
 8006d48:	f023 6380 	bic.w	r3, r3, #67108864	; 0x4000000
 8006d4c:	6013      	str	r3, [r2, #0]

    /* Get Start Tick*/
    tickstart = HAL_GetTick();
 8006d4e:	f7fc fa1f 	bl	8003190 <HAL_GetTick>
 8006d52:	60b8      	str	r0, [r7, #8]

    /* Wait till PLLSAI1 is ready to be updated */
    while(READ_BIT(RCC->CR, RCC_CR_PLLSAI1RDY) != 0U)
 8006d54:	e009      	b.n	8006d6a <RCCEx_PLLSAI1_Config+0xfe>
    {
      if((HAL_GetTick() - tickstart) > PLLSAI1_TIMEOUT_VALUE)
 8006d56:	f7fc fa1b 	bl	8003190 <HAL_GetTick>
 8006d5a:	4602      	mov	r2, r0
 8006d5c:	68bb      	ldr	r3, [r7, #8]
 8006d5e:	1ad3      	subs	r3, r2, r3
 8006d60:	2b02      	cmp	r3, #2
 8006d62:	d902      	bls.n	8006d6a <RCCEx_PLLSAI1_Config+0xfe>
      {
        status = HAL_TIMEOUT;
 8006d64:	2303      	movs	r3, #3
 8006d66:	73fb      	strb	r3, [r7, #15]
        break;
 8006d68:	e005      	b.n	8006d76 <RCCEx_PLLSAI1_Config+0x10a>
    while(READ_BIT(RCC->CR, RCC_CR_PLLSAI1RDY) != 0U)
 8006d6a:	4b37      	ldr	r3, [pc, #220]	; (8006e48 <RCCEx_PLLSAI1_Config+0x1dc>)
 8006d6c:	681b      	ldr	r3, [r3, #0]
 8006d6e:	f003 6300 	and.w	r3, r3, #134217728	; 0x8000000
 8006d72:	2b00      	cmp	r3, #0
 8006d74:	d1ef      	bne.n	8006d56 <RCCEx_PLLSAI1_Config+0xea>
      }
    }

    if(status == HAL_OK)
 8006d76:	7bfb      	ldrb	r3, [r7, #15]
 8006d78:	2b00      	cmp	r3, #0
 8006d7a:	d15f      	bne.n	8006e3c <RCCEx_PLLSAI1_Config+0x1d0>
    {
      if(Divider == DIVIDER_P_UPDATE)
 8006d7c:	683b      	ldr	r3, [r7, #0]
 8006d7e:	2b00      	cmp	r3, #0
 8006d80:	d110      	bne.n	8006da4 <RCCEx_PLLSAI1_Config+0x138>
#endif /* RCC_PLLSAI1P_DIV_2_31_SUPPORT */

#else
        /* Configure the PLLSAI1 Division factor P and Multiplication factor N*/
#if defined(RCC_PLLSAI1P_DIV_2_31_SUPPORT)
        MODIFY_REG(RCC->PLLSAI1CFGR,
 8006d82:	4b31      	ldr	r3, [pc, #196]	; (8006e48 <RCCEx_PLLSAI1_Config+0x1dc>)
 8006d84:	691b      	ldr	r3, [r3, #16]
 8006d86:	f023 4378 	bic.w	r3, r3, #4160749568	; 0xf8000000
 8006d8a:	f423 43fe 	bic.w	r3, r3, #32512	; 0x7f00
 8006d8e:	687a      	ldr	r2, [r7, #4]
 8006d90:	6892      	ldr	r2, [r2, #8]
 8006d92:	0211      	lsls	r1, r2, #8
 8006d94:	687a      	ldr	r2, [r7, #4]
 8006d96:	68d2      	ldr	r2, [r2, #12]
 8006d98:	06d2      	lsls	r2, r2, #27
 8006d9a:	430a      	orrs	r2, r1
 8006d9c:	492a      	ldr	r1, [pc, #168]	; (8006e48 <RCCEx_PLLSAI1_Config+0x1dc>)
 8006d9e:	4313      	orrs	r3, r2
 8006da0:	610b      	str	r3, [r1, #16]
 8006da2:	e027      	b.n	8006df4 <RCCEx_PLLSAI1_Config+0x188>
                   ((PllSai1->PLLSAI1P >> 4U) << RCC_PLLSAI1CFGR_PLLSAI1P_Pos));
#endif /* RCC_PLLSAI1P_DIV_2_31_SUPPORT */

#endif /* RCC_PLLSAI1M_DIV_1_16_SUPPORT */
      }
      else if(Divider == DIVIDER_Q_UPDATE)
 8006da4:	683b      	ldr	r3, [r7, #0]
 8006da6:	2b01      	cmp	r3, #1
 8006da8:	d112      	bne.n	8006dd0 <RCCEx_PLLSAI1_Config+0x164>
                   (PllSai1->PLLSAI1N << RCC_PLLSAI1CFGR_PLLSAI1N_Pos) |
                   (((PllSai1->PLLSAI1Q >> 1U) - 1U) << RCC_PLLSAI1CFGR_PLLSAI1Q_Pos) |
                   ((PllSai1->PLLSAI1M - 1U) << RCC_PLLSAI1CFGR_PLLSAI1M_Pos));
#else
        /* Configure the PLLSAI1 Division factor Q and Multiplication factor N*/
        MODIFY_REG(RCC->PLLSAI1CFGR,
 8006daa:	4b27      	ldr	r3, [pc, #156]	; (8006e48 <RCCEx_PLLSAI1_Config+0x1dc>)
 8006dac:	691b      	ldr	r3, [r3, #16]
 8006dae:	f423 03c0 	bic.w	r3, r3, #6291456	; 0x600000
 8006db2:	f423 43fe 	bic.w	r3, r3, #32512	; 0x7f00
 8006db6:	687a      	ldr	r2, [r7, #4]
 8006db8:	6892      	ldr	r2, [r2, #8]
 8006dba:	0211      	lsls	r1, r2, #8
 8006dbc:	687a      	ldr	r2, [r7, #4]
 8006dbe:	6912      	ldr	r2, [r2, #16]
 8006dc0:	0852      	lsrs	r2, r2, #1
 8006dc2:	3a01      	subs	r2, #1
 8006dc4:	0552      	lsls	r2, r2, #21
 8006dc6:	430a      	orrs	r2, r1
 8006dc8:	491f      	ldr	r1, [pc, #124]	; (8006e48 <RCCEx_PLLSAI1_Config+0x1dc>)
 8006dca:	4313      	orrs	r3, r2
 8006dcc:	610b      	str	r3, [r1, #16]
 8006dce:	e011      	b.n	8006df4 <RCCEx_PLLSAI1_Config+0x188>
                   (PllSai1->PLLSAI1N << RCC_PLLSAI1CFGR_PLLSAI1N_Pos) |
                   (((PllSai1->PLLSAI1R >> 1U) - 1U) << RCC_PLLSAI1CFGR_PLLSAI1R_Pos) |
                   ((PllSai1->PLLSAI1M - 1U) << RCC_PLLSAI1CFGR_PLLSAI1M_Pos));
#else
        /* Configure the PLLSAI1 Division factor R and Multiplication factor N*/
        MODIFY_REG(RCC->PLLSAI1CFGR,
 8006dd0:	4b1d      	ldr	r3, [pc, #116]	; (8006e48 <RCCEx_PLLSAI1_Config+0x1dc>)
 8006dd2:	691b      	ldr	r3, [r3, #16]
 8006dd4:	f023 63c0 	bic.w	r3, r3, #100663296	; 0x6000000
 8006dd8:	f423 43fe 	bic.w	r3, r3, #32512	; 0x7f00
 8006ddc:	687a      	ldr	r2, [r7, #4]
 8006dde:	6892      	ldr	r2, [r2, #8]
 8006de0:	0211      	lsls	r1, r2, #8
 8006de2:	687a      	ldr	r2, [r7, #4]
 8006de4:	6952      	ldr	r2, [r2, #20]
 8006de6:	0852      	lsrs	r2, r2, #1
 8006de8:	3a01      	subs	r2, #1
 8006dea:	0652      	lsls	r2, r2, #25
 8006dec:	430a      	orrs	r2, r1
 8006dee:	4916      	ldr	r1, [pc, #88]	; (8006e48 <RCCEx_PLLSAI1_Config+0x1dc>)
 8006df0:	4313      	orrs	r3, r2
 8006df2:	610b      	str	r3, [r1, #16]
                   (((PllSai1->PLLSAI1R >> 1U) - 1U) << RCC_PLLSAI1CFGR_PLLSAI1R_Pos));
#endif /* RCC_PLLSAI1M_DIV_1_16_SUPPORT */
      }

      /* Enable the PLLSAI1 again by setting PLLSAI1ON to 1*/
      __HAL_RCC_PLLSAI1_ENABLE();
 8006df4:	4b14      	ldr	r3, [pc, #80]	; (8006e48 <RCCEx_PLLSAI1_Config+0x1dc>)
 8006df6:	681b      	ldr	r3, [r3, #0]
 8006df8:	4a13      	ldr	r2, [pc, #76]	; (8006e48 <RCCEx_PLLSAI1_Config+0x1dc>)
 8006dfa:	f043 6380 	orr.w	r3, r3, #67108864	; 0x4000000
 8006dfe:	6013      	str	r3, [r2, #0]

      /* Get Start Tick*/
      tickstart = HAL_GetTick();
 8006e00:	f7fc f9c6 	bl	8003190 <HAL_GetTick>
 8006e04:	60b8      	str	r0, [r7, #8]

      /* Wait till PLLSAI1 is ready */
      while(READ_BIT(RCC->CR, RCC_CR_PLLSAI1RDY) == 0U)
 8006e06:	e009      	b.n	8006e1c <RCCEx_PLLSAI1_Config+0x1b0>
      {
        if((HAL_GetTick() - tickstart) > PLLSAI1_TIMEOUT_VALUE)
 8006e08:	f7fc f9c2 	bl	8003190 <HAL_GetTick>
 8006e0c:	4602      	mov	r2, r0
 8006e0e:	68bb      	ldr	r3, [r7, #8]
 8006e10:	1ad3      	subs	r3, r2, r3
 8006e12:	2b02      	cmp	r3, #2
 8006e14:	d902      	bls.n	8006e1c <RCCEx_PLLSAI1_Config+0x1b0>
        {
          status = HAL_TIMEOUT;
 8006e16:	2303      	movs	r3, #3
 8006e18:	73fb      	strb	r3, [r7, #15]
          break;
 8006e1a:	e005      	b.n	8006e28 <RCCEx_PLLSAI1_Config+0x1bc>
      while(READ_BIT(RCC->CR, RCC_CR_PLLSAI1RDY) == 0U)
 8006e1c:	4b0a      	ldr	r3, [pc, #40]	; (8006e48 <RCCEx_PLLSAI1_Config+0x1dc>)
 8006e1e:	681b      	ldr	r3, [r3, #0]
 8006e20:	f003 6300 	and.w	r3, r3, #134217728	; 0x8000000
 8006e24:	2b00      	cmp	r3, #0
 8006e26:	d0ef      	beq.n	8006e08 <RCCEx_PLLSAI1_Config+0x19c>
        }
      }

      if(status == HAL_OK)
 8006e28:	7bfb      	ldrb	r3, [r7, #15]
 8006e2a:	2b00      	cmp	r3, #0
 8006e2c:	d106      	bne.n	8006e3c <RCCEx_PLLSAI1_Config+0x1d0>
      {
        /* Configure the PLLSAI1 Clock output(s) */
        __HAL_RCC_PLLSAI1CLKOUT_ENABLE(PllSai1->PLLSAI1ClockOut);
 8006e2e:	4b06      	ldr	r3, [pc, #24]	; (8006e48 <RCCEx_PLLSAI1_Config+0x1dc>)
 8006e30:	691a      	ldr	r2, [r3, #16]
 8006e32:	687b      	ldr	r3, [r7, #4]
 8006e34:	699b      	ldr	r3, [r3, #24]
 8006e36:	4904      	ldr	r1, [pc, #16]	; (8006e48 <RCCEx_PLLSAI1_Config+0x1dc>)
 8006e38:	4313      	orrs	r3, r2
 8006e3a:	610b      	str	r3, [r1, #16]
      }
    }
  }

  return status;
 8006e3c:	7bfb      	ldrb	r3, [r7, #15]
}
 8006e3e:	4618      	mov	r0, r3
 8006e40:	3710      	adds	r7, #16
 8006e42:	46bd      	mov	sp, r7
 8006e44:	bd80      	pop	{r7, pc}
 8006e46:	bf00      	nop
 8006e48:	40021000 	.word	0x40021000

08006e4c <HAL_TIM_Base_Init>:
  *         Ex: call @ref HAL_TIM_Base_DeInit() before HAL_TIM_Base_Init()
  * @param  htim TIM Base handle
  * @retval HAL status
  */
HAL_StatusTypeDef HAL_TIM_Base_Init(TIM_HandleTypeDef *htim)
{
 8006e4c:	b580      	push	{r7, lr}
 8006e4e:	b082      	sub	sp, #8
 8006e50:	af00      	add	r7, sp, #0
 8006e52:	6078      	str	r0, [r7, #4]
  /* Check the TIM handle allocation */
  if (htim == NULL)
 8006e54:	687b      	ldr	r3, [r7, #4]
 8006e56:	2b00      	cmp	r3, #0
 8006e58:	d101      	bne.n	8006e5e <HAL_TIM_Base_Init+0x12>
  {
    return HAL_ERROR;
 8006e5a:	2301      	movs	r3, #1
 8006e5c:	e049      	b.n	8006ef2 <HAL_TIM_Base_Init+0xa6>
  assert_param(IS_TIM_INSTANCE(htim->Instance));
  assert_param(IS_TIM_COUNTER_MODE(htim->Init.CounterMode));
  assert_param(IS_TIM_CLOCKDIVISION_DIV(htim->Init.ClockDivision));
  assert_param(IS_TIM_AUTORELOAD_PRELOAD(htim->Init.AutoReloadPreload));

  if (htim->State == HAL_TIM_STATE_RESET)
 8006e5e:	687b      	ldr	r3, [r7, #4]
 8006e60:	f893 303d 	ldrb.w	r3, [r3, #61]	; 0x3d
 8006e64:	b2db      	uxtb	r3, r3
 8006e66:	2b00      	cmp	r3, #0
 8006e68:	d106      	bne.n	8006e78 <HAL_TIM_Base_Init+0x2c>
  {
    /* Allocate lock resource and initialize it */
    htim->Lock = HAL_UNLOCKED;
 8006e6a:	687b      	ldr	r3, [r7, #4]
 8006e6c:	2200      	movs	r2, #0
 8006e6e:	f883 203c 	strb.w	r2, [r3, #60]	; 0x3c
    }
    /* Init the low level hardware : GPIO, CLOCK, NVIC */
    htim->Base_MspInitCallback(htim);
#else
    /* Init the low level hardware : GPIO, CLOCK, NVIC */
    HAL_TIM_Base_MspInit(htim);
 8006e72:	6878      	ldr	r0, [r7, #4]
 8006e74:	f7fc f858 	bl	8002f28 <HAL_TIM_Base_MspInit>
#endif /* USE_HAL_TIM_REGISTER_CALLBACKS */
  }

  /* Set the TIM state */
  htim->State = HAL_TIM_STATE_BUSY;
 8006e78:	687b      	ldr	r3, [r7, #4]
 8006e7a:	2202      	movs	r2, #2
 8006e7c:	f883 203d 	strb.w	r2, [r3, #61]	; 0x3d

  /* Set the Time Base configuration */
  TIM_Base_SetConfig(htim->Instance, &htim->Init);
 8006e80:	687b      	ldr	r3, [r7, #4]
 8006e82:	681a      	ldr	r2, [r3, #0]
 8006e84:	687b      	ldr	r3, [r7, #4]
 8006e86:	3304      	adds	r3, #4
 8006e88:	4619      	mov	r1, r3
 8006e8a:	4610      	mov	r0, r2
 8006e8c:	f000 f93c 	bl	8007108 <TIM_Base_SetConfig>

  /* Initialize the DMA burst operation state */
  htim->DMABurstState = HAL_DMA_BURST_STATE_READY;
 8006e90:	687b      	ldr	r3, [r7, #4]
 8006e92:	2201      	movs	r2, #1
 8006e94:	f883 2048 	strb.w	r2, [r3, #72]	; 0x48

  /* Initialize the TIM channels state */
  TIM_CHANNEL_STATE_SET_ALL(htim, HAL_TIM_CHANNEL_STATE_READY);
 8006e98:	687b      	ldr	r3, [r7, #4]
 8006e9a:	2201      	movs	r2, #1
 8006e9c:	f883 203e 	strb.w	r2, [r3, #62]	; 0x3e
 8006ea0:	687b      	ldr	r3, [r7, #4]
 8006ea2:	2201      	movs	r2, #1
 8006ea4:	f883 203f 	strb.w	r2, [r3, #63]	; 0x3f
 8006ea8:	687b      	ldr	r3, [r7, #4]
 8006eaa:	2201      	movs	r2, #1
 8006eac:	f883 2040 	strb.w	r2, [r3, #64]	; 0x40
 8006eb0:	687b      	ldr	r3, [r7, #4]
 8006eb2:	2201      	movs	r2, #1
 8006eb4:	f883 2041 	strb.w	r2, [r3, #65]	; 0x41
 8006eb8:	687b      	ldr	r3, [r7, #4]
 8006eba:	2201      	movs	r2, #1
 8006ebc:	f883 2042 	strb.w	r2, [r3, #66]	; 0x42
 8006ec0:	687b      	ldr	r3, [r7, #4]
 8006ec2:	2201      	movs	r2, #1
 8006ec4:	f883 2043 	strb.w	r2, [r3, #67]	; 0x43
  TIM_CHANNEL_N_STATE_SET_ALL(htim, HAL_TIM_CHANNEL_STATE_READY);
 8006ec8:	687b      	ldr	r3, [r7, #4]
 8006eca:	2201      	movs	r2, #1
 8006ecc:	f883 2044 	strb.w	r2, [r3, #68]	; 0x44
 8006ed0:	687b      	ldr	r3, [r7, #4]
 8006ed2:	2201      	movs	r2, #1
 8006ed4:	f883 2045 	strb.w	r2, [r3, #69]	; 0x45
 8006ed8:	687b      	ldr	r3, [r7, #4]
 8006eda:	2201      	movs	r2, #1
 8006edc:	f883 2046 	strb.w	r2, [r3, #70]	; 0x46
 8006ee0:	687b      	ldr	r3, [r7, #4]
 8006ee2:	2201      	movs	r2, #1
 8006ee4:	f883 2047 	strb.w	r2, [r3, #71]	; 0x47

  /* Initialize the TIM state*/
  htim->State = HAL_TIM_STATE_READY;
 8006ee8:	687b      	ldr	r3, [r7, #4]
 8006eea:	2201      	movs	r2, #1
 8006eec:	f883 203d 	strb.w	r2, [r3, #61]	; 0x3d

  return HAL_OK;
 8006ef0:	2300      	movs	r3, #0
}
 8006ef2:	4618      	mov	r0, r3
 8006ef4:	3708      	adds	r7, #8
 8006ef6:	46bd      	mov	sp, r7
 8006ef8:	bd80      	pop	{r7, pc}
	...

08006efc <HAL_TIM_Base_Start>:
  * @brief  Starts the TIM Base generation.
  * @param  htim TIM Base handle
  * @retval HAL status
  */
HAL_StatusTypeDef HAL_TIM_Base_Start(TIM_HandleTypeDef *htim)
{
 8006efc:	b480      	push	{r7}
 8006efe:	b085      	sub	sp, #20
 8006f00:	af00      	add	r7, sp, #0
 8006f02:	6078      	str	r0, [r7, #4]

  /* Check the parameters */
  assert_param(IS_TIM_INSTANCE(htim->Instance));

  /* Check the TIM state */
  if (htim->State != HAL_TIM_STATE_READY)
 8006f04:	687b      	ldr	r3, [r7, #4]
 8006f06:	f893 303d 	ldrb.w	r3, [r3, #61]	; 0x3d
 8006f0a:	b2db      	uxtb	r3, r3
 8006f0c:	2b01      	cmp	r3, #1
 8006f0e:	d001      	beq.n	8006f14 <HAL_TIM_Base_Start+0x18>
  {
    return HAL_ERROR;
 8006f10:	2301      	movs	r3, #1
 8006f12:	e033      	b.n	8006f7c <HAL_TIM_Base_Start+0x80>
  }

  /* Set the TIM state */
  htim->State = HAL_TIM_STATE_BUSY;
 8006f14:	687b      	ldr	r3, [r7, #4]
 8006f16:	2202      	movs	r2, #2
 8006f18:	f883 203d 	strb.w	r2, [r3, #61]	; 0x3d

  /* Enable the Peripheral, except in trigger mode where enable is automatically done with trigger */
  if (IS_TIM_SLAVE_INSTANCE(htim->Instance))
 8006f1c:	687b      	ldr	r3, [r7, #4]
 8006f1e:	681b      	ldr	r3, [r3, #0]
 8006f20:	4a19      	ldr	r2, [pc, #100]	; (8006f88 <HAL_TIM_Base_Start+0x8c>)
 8006f22:	4293      	cmp	r3, r2
 8006f24:	d009      	beq.n	8006f3a <HAL_TIM_Base_Start+0x3e>
 8006f26:	687b      	ldr	r3, [r7, #4]
 8006f28:	681b      	ldr	r3, [r3, #0]
 8006f2a:	f1b3 4f80 	cmp.w	r3, #1073741824	; 0x40000000
 8006f2e:	d004      	beq.n	8006f3a <HAL_TIM_Base_Start+0x3e>
 8006f30:	687b      	ldr	r3, [r7, #4]
 8006f32:	681b      	ldr	r3, [r3, #0]
 8006f34:	4a15      	ldr	r2, [pc, #84]	; (8006f8c <HAL_TIM_Base_Start+0x90>)
 8006f36:	4293      	cmp	r3, r2
 8006f38:	d115      	bne.n	8006f66 <HAL_TIM_Base_Start+0x6a>
  {
    tmpsmcr = htim->Instance->SMCR & TIM_SMCR_SMS;
 8006f3a:	687b      	ldr	r3, [r7, #4]
 8006f3c:	681b      	ldr	r3, [r3, #0]
 8006f3e:	689a      	ldr	r2, [r3, #8]
 8006f40:	4b13      	ldr	r3, [pc, #76]	; (8006f90 <HAL_TIM_Base_Start+0x94>)
 8006f42:	4013      	ands	r3, r2
 8006f44:	60fb      	str	r3, [r7, #12]
    if (!IS_TIM_SLAVEMODE_TRIGGER_ENABLED(tmpsmcr))
 8006f46:	68fb      	ldr	r3, [r7, #12]
 8006f48:	2b06      	cmp	r3, #6
 8006f4a:	d015      	beq.n	8006f78 <HAL_TIM_Base_Start+0x7c>
 8006f4c:	68fb      	ldr	r3, [r7, #12]
 8006f4e:	f5b3 3f80 	cmp.w	r3, #65536	; 0x10000
 8006f52:	d011      	beq.n	8006f78 <HAL_TIM_Base_Start+0x7c>
    {
      __HAL_TIM_ENABLE(htim);
 8006f54:	687b      	ldr	r3, [r7, #4]
 8006f56:	681b      	ldr	r3, [r3, #0]
 8006f58:	681a      	ldr	r2, [r3, #0]
 8006f5a:	687b      	ldr	r3, [r7, #4]
 8006f5c:	681b      	ldr	r3, [r3, #0]
 8006f5e:	f042 0201 	orr.w	r2, r2, #1
 8006f62:	601a      	str	r2, [r3, #0]
    if (!IS_TIM_SLAVEMODE_TRIGGER_ENABLED(tmpsmcr))
 8006f64:	e008      	b.n	8006f78 <HAL_TIM_Base_Start+0x7c>
    }
  }
  else
  {
    __HAL_TIM_ENABLE(htim);
 8006f66:	687b      	ldr	r3, [r7, #4]
 8006f68:	681b      	ldr	r3, [r3, #0]
 8006f6a:	681a      	ldr	r2, [r3, #0]
 8006f6c:	687b      	ldr	r3, [r7, #4]
 8006f6e:	681b      	ldr	r3, [r3, #0]
 8006f70:	f042 0201 	orr.w	r2, r2, #1
 8006f74:	601a      	str	r2, [r3, #0]
 8006f76:	e000      	b.n	8006f7a <HAL_TIM_Base_Start+0x7e>
    if (!IS_TIM_SLAVEMODE_TRIGGER_ENABLED(tmpsmcr))
 8006f78:	bf00      	nop
  }

  /* Return function status */
  return HAL_OK;
 8006f7a:	2300      	movs	r3, #0
}
 8006f7c:	4618      	mov	r0, r3
 8006f7e:	3714      	adds	r7, #20
 8006f80:	46bd      	mov	sp, r7
 8006f82:	f85d 7b04 	ldr.w	r7, [sp], #4
 8006f86:	4770      	bx	lr
 8006f88:	40012c00 	.word	0x40012c00
 8006f8c:	40014000 	.word	0x40014000
 8006f90:	00010007 	.word	0x00010007

08006f94 <HAL_TIM_ConfigClockSource>:
  * @param  sClockSourceConfig pointer to a TIM_ClockConfigTypeDef structure that
  *         contains the clock source information for the TIM peripheral.
  * @retval HAL status
  */
HAL_StatusTypeDef HAL_TIM_ConfigClockSource(TIM_HandleTypeDef *htim, TIM_ClockConfigTypeDef *sClockSourceConfig)
{
 8006f94:	b580      	push	{r7, lr}
 8006f96:	b084      	sub	sp, #16
 8006f98:	af00      	add	r7, sp, #0
 8006f9a:	6078      	str	r0, [r7, #4]
 8006f9c:	6039      	str	r1, [r7, #0]
  uint32_t tmpsmcr;

  /* Process Locked */
  __HAL_LOCK(htim);
 8006f9e:	687b      	ldr	r3, [r7, #4]
 8006fa0:	f893 303c 	ldrb.w	r3, [r3, #60]	; 0x3c
 8006fa4:	2b01      	cmp	r3, #1
 8006fa6:	d101      	bne.n	8006fac <HAL_TIM_ConfigClockSource+0x18>
 8006fa8:	2302      	movs	r3, #2
 8006faa:	e0a8      	b.n	80070fe <HAL_TIM_ConfigClockSource+0x16a>
 8006fac:	687b      	ldr	r3, [r7, #4]
 8006fae:	2201      	movs	r2, #1
 8006fb0:	f883 203c 	strb.w	r2, [r3, #60]	; 0x3c

  htim->State = HAL_TIM_STATE_BUSY;
 8006fb4:	687b      	ldr	r3, [r7, #4]
 8006fb6:	2202      	movs	r2, #2
 8006fb8:	f883 203d 	strb.w	r2, [r3, #61]	; 0x3d

  /* Check the parameters */
  assert_param(IS_TIM_CLOCKSOURCE(sClockSourceConfig->ClockSource));

  /* Reset the SMS, TS, ECE, ETPS and ETRF bits */
  tmpsmcr = htim->Instance->SMCR;
 8006fbc:	687b      	ldr	r3, [r7, #4]
 8006fbe:	681b      	ldr	r3, [r3, #0]
 8006fc0:	689b      	ldr	r3, [r3, #8]
 8006fc2:	60fb      	str	r3, [r7, #12]
  tmpsmcr &= ~(TIM_SMCR_SMS | TIM_SMCR_TS);
 8006fc4:	68fb      	ldr	r3, [r7, #12]
 8006fc6:	f423 3380 	bic.w	r3, r3, #65536	; 0x10000
 8006fca:	f023 0377 	bic.w	r3, r3, #119	; 0x77
 8006fce:	60fb      	str	r3, [r7, #12]
  tmpsmcr &= ~(TIM_SMCR_ETF | TIM_SMCR_ETPS | TIM_SMCR_ECE | TIM_SMCR_ETP);
 8006fd0:	68fb      	ldr	r3, [r7, #12]
 8006fd2:	f423 437f 	bic.w	r3, r3, #65280	; 0xff00
 8006fd6:	60fb      	str	r3, [r7, #12]
  htim->Instance->SMCR = tmpsmcr;
 8006fd8:	687b      	ldr	r3, [r7, #4]
 8006fda:	681b      	ldr	r3, [r3, #0]
 8006fdc:	68fa      	ldr	r2, [r7, #12]
 8006fde:	609a      	str	r2, [r3, #8]

  switch (sClockSourceConfig->ClockSource)
 8006fe0:	683b      	ldr	r3, [r7, #0]
 8006fe2:	681b      	ldr	r3, [r3, #0]
 8006fe4:	2b40      	cmp	r3, #64	; 0x40
 8006fe6:	d067      	beq.n	80070b8 <HAL_TIM_ConfigClockSource+0x124>
 8006fe8:	2b40      	cmp	r3, #64	; 0x40
 8006fea:	d80b      	bhi.n	8007004 <HAL_TIM_ConfigClockSource+0x70>
 8006fec:	2b10      	cmp	r3, #16
 8006fee:	d073      	beq.n	80070d8 <HAL_TIM_ConfigClockSource+0x144>
 8006ff0:	2b10      	cmp	r3, #16
 8006ff2:	d802      	bhi.n	8006ffa <HAL_TIM_ConfigClockSource+0x66>
 8006ff4:	2b00      	cmp	r3, #0
 8006ff6:	d06f      	beq.n	80070d8 <HAL_TIM_ConfigClockSource+0x144>
        TIM_ITRx_SetConfig(htim->Instance, sClockSourceConfig->ClockSource);
        break;
      }

    default:
      break;
 8006ff8:	e078      	b.n	80070ec <HAL_TIM_ConfigClockSource+0x158>
  switch (sClockSourceConfig->ClockSource)
 8006ffa:	2b20      	cmp	r3, #32
 8006ffc:	d06c      	beq.n	80070d8 <HAL_TIM_ConfigClockSource+0x144>
 8006ffe:	2b30      	cmp	r3, #48	; 0x30
 8007000:	d06a      	beq.n	80070d8 <HAL_TIM_ConfigClockSource+0x144>
      break;
 8007002:	e073      	b.n	80070ec <HAL_TIM_ConfigClockSource+0x158>
  switch (sClockSourceConfig->ClockSource)
 8007004:	2b70      	cmp	r3, #112	; 0x70
 8007006:	d00d      	beq.n	8007024 <HAL_TIM_ConfigClockSource+0x90>
 8007008:	2b70      	cmp	r3, #112	; 0x70
 800700a:	d804      	bhi.n	8007016 <HAL_TIM_ConfigClockSource+0x82>
 800700c:	2b50      	cmp	r3, #80	; 0x50
 800700e:	d033      	beq.n	8007078 <HAL_TIM_ConfigClockSource+0xe4>
 8007010:	2b60      	cmp	r3, #96	; 0x60
 8007012:	d041      	beq.n	8007098 <HAL_TIM_ConfigClockSource+0x104>
      break;
 8007014:	e06a      	b.n	80070ec <HAL_TIM_ConfigClockSource+0x158>
  switch (sClockSourceConfig->ClockSource)
 8007016:	f5b3 5f80 	cmp.w	r3, #4096	; 0x1000
 800701a:	d066      	beq.n	80070ea <HAL_TIM_ConfigClockSource+0x156>
 800701c:	f5b3 5f00 	cmp.w	r3, #8192	; 0x2000
 8007020:	d017      	beq.n	8007052 <HAL_TIM_ConfigClockSource+0xbe>
      break;
 8007022:	e063      	b.n	80070ec <HAL_TIM_ConfigClockSource+0x158>
      TIM_ETR_SetConfig(htim->Instance,
 8007024:	687b      	ldr	r3, [r7, #4]
 8007026:	6818      	ldr	r0, [r3, #0]
 8007028:	683b      	ldr	r3, [r7, #0]
 800702a:	6899      	ldr	r1, [r3, #8]
 800702c:	683b      	ldr	r3, [r7, #0]
 800702e:	685a      	ldr	r2, [r3, #4]
 8007030:	683b      	ldr	r3, [r7, #0]
 8007032:	68db      	ldr	r3, [r3, #12]
 8007034:	f000 f946 	bl	80072c4 <TIM_ETR_SetConfig>
      tmpsmcr = htim->Instance->SMCR;
 8007038:	687b      	ldr	r3, [r7, #4]
 800703a:	681b      	ldr	r3, [r3, #0]
 800703c:	689b      	ldr	r3, [r3, #8]
 800703e:	60fb      	str	r3, [r7, #12]
      tmpsmcr |= (TIM_SLAVEMODE_EXTERNAL1 | TIM_CLOCKSOURCE_ETRMODE1);
 8007040:	68fb      	ldr	r3, [r7, #12]
 8007042:	f043 0377 	orr.w	r3, r3, #119	; 0x77
 8007046:	60fb      	str	r3, [r7, #12]
      htim->Instance->SMCR = tmpsmcr;
 8007048:	687b      	ldr	r3, [r7, #4]
 800704a:	681b      	ldr	r3, [r3, #0]
 800704c:	68fa      	ldr	r2, [r7, #12]
 800704e:	609a      	str	r2, [r3, #8]
      break;
 8007050:	e04c      	b.n	80070ec <HAL_TIM_ConfigClockSource+0x158>
      TIM_ETR_SetConfig(htim->Instance,
 8007052:	687b      	ldr	r3, [r7, #4]
 8007054:	6818      	ldr	r0, [r3, #0]
 8007056:	683b      	ldr	r3, [r7, #0]
 8007058:	6899      	ldr	r1, [r3, #8]
 800705a:	683b      	ldr	r3, [r7, #0]
 800705c:	685a      	ldr	r2, [r3, #4]
 800705e:	683b      	ldr	r3, [r7, #0]
 8007060:	68db      	ldr	r3, [r3, #12]
 8007062:	f000 f92f 	bl	80072c4 <TIM_ETR_SetConfig>
      htim->Instance->SMCR |= TIM_SMCR_ECE;
 8007066:	687b      	ldr	r3, [r7, #4]
 8007068:	681b      	ldr	r3, [r3, #0]
 800706a:	689a      	ldr	r2, [r3, #8]
 800706c:	687b      	ldr	r3, [r7, #4]
 800706e:	681b      	ldr	r3, [r3, #0]
 8007070:	f442 4280 	orr.w	r2, r2, #16384	; 0x4000
 8007074:	609a      	str	r2, [r3, #8]
      break;
 8007076:	e039      	b.n	80070ec <HAL_TIM_ConfigClockSource+0x158>
      TIM_TI1_ConfigInputStage(htim->Instance,
 8007078:	687b      	ldr	r3, [r7, #4]
 800707a:	6818      	ldr	r0, [r3, #0]
 800707c:	683b      	ldr	r3, [r7, #0]
 800707e:	6859      	ldr	r1, [r3, #4]
 8007080:	683b      	ldr	r3, [r7, #0]
 8007082:	68db      	ldr	r3, [r3, #12]
 8007084:	461a      	mov	r2, r3
 8007086:	f000 f8a3 	bl	80071d0 <TIM_TI1_ConfigInputStage>
      TIM_ITRx_SetConfig(htim->Instance, TIM_CLOCKSOURCE_TI1);
 800708a:	687b      	ldr	r3, [r7, #4]
 800708c:	681b      	ldr	r3, [r3, #0]
 800708e:	2150      	movs	r1, #80	; 0x50
 8007090:	4618      	mov	r0, r3
 8007092:	f000 f8fc 	bl	800728e <TIM_ITRx_SetConfig>
      break;
 8007096:	e029      	b.n	80070ec <HAL_TIM_ConfigClockSource+0x158>
      TIM_TI2_ConfigInputStage(htim->Instance,
 8007098:	687b      	ldr	r3, [r7, #4]
 800709a:	6818      	ldr	r0, [r3, #0]
 800709c:	683b      	ldr	r3, [r7, #0]
 800709e:	6859      	ldr	r1, [r3, #4]
 80070a0:	683b      	ldr	r3, [r7, #0]
 80070a2:	68db      	ldr	r3, [r3, #12]
 80070a4:	461a      	mov	r2, r3
 80070a6:	f000 f8c2 	bl	800722e <TIM_TI2_ConfigInputStage>
      TIM_ITRx_SetConfig(htim->Instance, TIM_CLOCKSOURCE_TI2);
 80070aa:	687b      	ldr	r3, [r7, #4]
 80070ac:	681b      	ldr	r3, [r3, #0]
 80070ae:	2160      	movs	r1, #96	; 0x60
 80070b0:	4618      	mov	r0, r3
 80070b2:	f000 f8ec 	bl	800728e <TIM_ITRx_SetConfig>
      break;
 80070b6:	e019      	b.n	80070ec <HAL_TIM_ConfigClockSource+0x158>
      TIM_TI1_ConfigInputStage(htim->Instance,
 80070b8:	687b      	ldr	r3, [r7, #4]
 80070ba:	6818      	ldr	r0, [r3, #0]
 80070bc:	683b      	ldr	r3, [r7, #0]
 80070be:	6859      	ldr	r1, [r3, #4]
 80070c0:	683b      	ldr	r3, [r7, #0]
 80070c2:	68db      	ldr	r3, [r3, #12]
 80070c4:	461a      	mov	r2, r3
 80070c6:	f000 f883 	bl	80071d0 <TIM_TI1_ConfigInputStage>
      TIM_ITRx_SetConfig(htim->Instance, TIM_CLOCKSOURCE_TI1ED);
 80070ca:	687b      	ldr	r3, [r7, #4]
 80070cc:	681b      	ldr	r3, [r3, #0]
 80070ce:	2140      	movs	r1, #64	; 0x40
 80070d0:	4618      	mov	r0, r3
 80070d2:	f000 f8dc 	bl	800728e <TIM_ITRx_SetConfig>
      break;
 80070d6:	e009      	b.n	80070ec <HAL_TIM_ConfigClockSource+0x158>
        TIM_ITRx_SetConfig(htim->Instance, sClockSourceConfig->ClockSource);
 80070d8:	687b      	ldr	r3, [r7, #4]
 80070da:	681a      	ldr	r2, [r3, #0]
 80070dc:	683b      	ldr	r3, [r7, #0]
 80070de:	681b      	ldr	r3, [r3, #0]
 80070e0:	4619      	mov	r1, r3
 80070e2:	4610      	mov	r0, r2
 80070e4:	f000 f8d3 	bl	800728e <TIM_ITRx_SetConfig>
        break;
 80070e8:	e000      	b.n	80070ec <HAL_TIM_ConfigClockSource+0x158>
      break;
 80070ea:	bf00      	nop
  }
  htim->State = HAL_TIM_STATE_READY;
 80070ec:	687b      	ldr	r3, [r7, #4]
 80070ee:	2201      	movs	r2, #1
 80070f0:	f883 203d 	strb.w	r2, [r3, #61]	; 0x3d

  __HAL_UNLOCK(htim);
 80070f4:	687b      	ldr	r3, [r7, #4]
 80070f6:	2200      	movs	r2, #0
 80070f8:	f883 203c 	strb.w	r2, [r3, #60]	; 0x3c

  return HAL_OK;
 80070fc:	2300      	movs	r3, #0
}
 80070fe:	4618      	mov	r0, r3
 8007100:	3710      	adds	r7, #16
 8007102:	46bd      	mov	sp, r7
 8007104:	bd80      	pop	{r7, pc}
	...

08007108 <TIM_Base_SetConfig>:
  * @param  TIMx TIM peripheral
  * @param  Structure TIM Base configuration structure
  * @retval None
  */
void TIM_Base_SetConfig(TIM_TypeDef *TIMx, TIM_Base_InitTypeDef *Structure)
{
 8007108:	b480      	push	{r7}
 800710a:	b085      	sub	sp, #20
 800710c:	af00      	add	r7, sp, #0
 800710e:	6078      	str	r0, [r7, #4]
 8007110:	6039      	str	r1, [r7, #0]
  uint32_t tmpcr1;
  tmpcr1 = TIMx->CR1;
 8007112:	687b      	ldr	r3, [r7, #4]
 8007114:	681b      	ldr	r3, [r3, #0]
 8007116:	60fb      	str	r3, [r7, #12]

  /* Set TIM Time Base Unit parameters ---------------------------------------*/
  if (IS_TIM_COUNTER_MODE_SELECT_INSTANCE(TIMx))
 8007118:	687b      	ldr	r3, [r7, #4]
 800711a:	4a2a      	ldr	r2, [pc, #168]	; (80071c4 <TIM_Base_SetConfig+0xbc>)
 800711c:	4293      	cmp	r3, r2
 800711e:	d003      	beq.n	8007128 <TIM_Base_SetConfig+0x20>
 8007120:	687b      	ldr	r3, [r7, #4]
 8007122:	f1b3 4f80 	cmp.w	r3, #1073741824	; 0x40000000
 8007126:	d108      	bne.n	800713a <TIM_Base_SetConfig+0x32>
  {
    /* Select the Counter Mode */
    tmpcr1 &= ~(TIM_CR1_DIR | TIM_CR1_CMS);
 8007128:	68fb      	ldr	r3, [r7, #12]
 800712a:	f023 0370 	bic.w	r3, r3, #112	; 0x70
 800712e:	60fb      	str	r3, [r7, #12]
    tmpcr1 |= Structure->CounterMode;
 8007130:	683b      	ldr	r3, [r7, #0]
 8007132:	685b      	ldr	r3, [r3, #4]
 8007134:	68fa      	ldr	r2, [r7, #12]
 8007136:	4313      	orrs	r3, r2
 8007138:	60fb      	str	r3, [r7, #12]
  }

  if (IS_TIM_CLOCK_DIVISION_INSTANCE(TIMx))
 800713a:	687b      	ldr	r3, [r7, #4]
 800713c:	4a21      	ldr	r2, [pc, #132]	; (80071c4 <TIM_Base_SetConfig+0xbc>)
 800713e:	4293      	cmp	r3, r2
 8007140:	d00b      	beq.n	800715a <TIM_Base_SetConfig+0x52>
 8007142:	687b      	ldr	r3, [r7, #4]
 8007144:	f1b3 4f80 	cmp.w	r3, #1073741824	; 0x40000000
 8007148:	d007      	beq.n	800715a <TIM_Base_SetConfig+0x52>
 800714a:	687b      	ldr	r3, [r7, #4]
 800714c:	4a1e      	ldr	r2, [pc, #120]	; (80071c8 <TIM_Base_SetConfig+0xc0>)
 800714e:	4293      	cmp	r3, r2
 8007150:	d003      	beq.n	800715a <TIM_Base_SetConfig+0x52>
 8007152:	687b      	ldr	r3, [r7, #4]
 8007154:	4a1d      	ldr	r2, [pc, #116]	; (80071cc <TIM_Base_SetConfig+0xc4>)
 8007156:	4293      	cmp	r3, r2
 8007158:	d108      	bne.n	800716c <TIM_Base_SetConfig+0x64>
  {
    /* Set the clock division */
    tmpcr1 &= ~TIM_CR1_CKD;
 800715a:	68fb      	ldr	r3, [r7, #12]
 800715c:	f423 7340 	bic.w	r3, r3, #768	; 0x300
 8007160:	60fb      	str	r3, [r7, #12]
    tmpcr1 |= (uint32_t)Structure->ClockDivision;
 8007162:	683b      	ldr	r3, [r7, #0]
 8007164:	68db      	ldr	r3, [r3, #12]
 8007166:	68fa      	ldr	r2, [r7, #12]
 8007168:	4313      	orrs	r3, r2
 800716a:	60fb      	str	r3, [r7, #12]
  }

  /* Set the auto-reload preload */
  MODIFY_REG(tmpcr1, TIM_CR1_ARPE, Structure->AutoReloadPreload);
 800716c:	68fb      	ldr	r3, [r7, #12]
 800716e:	f023 0280 	bic.w	r2, r3, #128	; 0x80
 8007172:	683b      	ldr	r3, [r7, #0]
 8007174:	695b      	ldr	r3, [r3, #20]
 8007176:	4313      	orrs	r3, r2
 8007178:	60fb      	str	r3, [r7, #12]

  TIMx->CR1 = tmpcr1;
 800717a:	687b      	ldr	r3, [r7, #4]
 800717c:	68fa      	ldr	r2, [r7, #12]
 800717e:	601a      	str	r2, [r3, #0]

  /* Set the Autoreload value */
  TIMx->ARR = (uint32_t)Structure->Period ;
 8007180:	683b      	ldr	r3, [r7, #0]
 8007182:	689a      	ldr	r2, [r3, #8]
 8007184:	687b      	ldr	r3, [r7, #4]
 8007186:	62da      	str	r2, [r3, #44]	; 0x2c

  /* Set the Prescaler value */
  TIMx->PSC = Structure->Prescaler;
 8007188:	683b      	ldr	r3, [r7, #0]
 800718a:	681a      	ldr	r2, [r3, #0]
 800718c:	687b      	ldr	r3, [r7, #4]
 800718e:	629a      	str	r2, [r3, #40]	; 0x28

  if (IS_TIM_REPETITION_COUNTER_INSTANCE(TIMx))
 8007190:	687b      	ldr	r3, [r7, #4]
 8007192:	4a0c      	ldr	r2, [pc, #48]	; (80071c4 <TIM_Base_SetConfig+0xbc>)
 8007194:	4293      	cmp	r3, r2
 8007196:	d007      	beq.n	80071a8 <TIM_Base_SetConfig+0xa0>
 8007198:	687b      	ldr	r3, [r7, #4]
 800719a:	4a0b      	ldr	r2, [pc, #44]	; (80071c8 <TIM_Base_SetConfig+0xc0>)
 800719c:	4293      	cmp	r3, r2
 800719e:	d003      	beq.n	80071a8 <TIM_Base_SetConfig+0xa0>
 80071a0:	687b      	ldr	r3, [r7, #4]
 80071a2:	4a0a      	ldr	r2, [pc, #40]	; (80071cc <TIM_Base_SetConfig+0xc4>)
 80071a4:	4293      	cmp	r3, r2
 80071a6:	d103      	bne.n	80071b0 <TIM_Base_SetConfig+0xa8>
  {
    /* Set the Repetition Counter value */
    TIMx->RCR = Structure->RepetitionCounter;
 80071a8:	683b      	ldr	r3, [r7, #0]
 80071aa:	691a      	ldr	r2, [r3, #16]
 80071ac:	687b      	ldr	r3, [r7, #4]
 80071ae:	631a      	str	r2, [r3, #48]	; 0x30
  }

  /* Generate an update event to reload the Prescaler
     and the repetition counter (only for advanced timer) value immediately */
  TIMx->EGR = TIM_EGR_UG;
 80071b0:	687b      	ldr	r3, [r7, #4]
 80071b2:	2201      	movs	r2, #1
 80071b4:	615a      	str	r2, [r3, #20]
}
 80071b6:	bf00      	nop
 80071b8:	3714      	adds	r7, #20
 80071ba:	46bd      	mov	sp, r7
 80071bc:	f85d 7b04 	ldr.w	r7, [sp], #4
 80071c0:	4770      	bx	lr
 80071c2:	bf00      	nop
 80071c4:	40012c00 	.word	0x40012c00
 80071c8:	40014000 	.word	0x40014000
 80071cc:	40014400 	.word	0x40014400

080071d0 <TIM_TI1_ConfigInputStage>:
  * @param  TIM_ICFilter Specifies the Input Capture Filter.
  *          This parameter must be a value between 0x00 and 0x0F.
  * @retval None
  */
static void TIM_TI1_ConfigInputStage(TIM_TypeDef *TIMx, uint32_t TIM_ICPolarity, uint32_t TIM_ICFilter)
{
 80071d0:	b480      	push	{r7}
 80071d2:	b087      	sub	sp, #28
 80071d4:	af00      	add	r7, sp, #0
 80071d6:	60f8      	str	r0, [r7, #12]
 80071d8:	60b9      	str	r1, [r7, #8]
 80071da:	607a      	str	r2, [r7, #4]
  uint32_t tmpccmr1;
  uint32_t tmpccer;

  /* Disable the Channel 1: Reset the CC1E Bit */
  tmpccer = TIMx->CCER;
 80071dc:	68fb      	ldr	r3, [r7, #12]
 80071de:	6a1b      	ldr	r3, [r3, #32]
 80071e0:	617b      	str	r3, [r7, #20]
  TIMx->CCER &= ~TIM_CCER_CC1E;
 80071e2:	68fb      	ldr	r3, [r7, #12]
 80071e4:	6a1b      	ldr	r3, [r3, #32]
 80071e6:	f023 0201 	bic.w	r2, r3, #1
 80071ea:	68fb      	ldr	r3, [r7, #12]
 80071ec:	621a      	str	r2, [r3, #32]
  tmpccmr1 = TIMx->CCMR1;
 80071ee:	68fb      	ldr	r3, [r7, #12]
 80071f0:	699b      	ldr	r3, [r3, #24]
 80071f2:	613b      	str	r3, [r7, #16]

  /* Set the filter */
  tmpccmr1 &= ~TIM_CCMR1_IC1F;
 80071f4:	693b      	ldr	r3, [r7, #16]
 80071f6:	f023 03f0 	bic.w	r3, r3, #240	; 0xf0
 80071fa:	613b      	str	r3, [r7, #16]
  tmpccmr1 |= (TIM_ICFilter << 4U);
 80071fc:	687b      	ldr	r3, [r7, #4]
 80071fe:	011b      	lsls	r3, r3, #4
 8007200:	693a      	ldr	r2, [r7, #16]
 8007202:	4313      	orrs	r3, r2
 8007204:	613b      	str	r3, [r7, #16]

  /* Select the Polarity and set the CC1E Bit */
  tmpccer &= ~(TIM_CCER_CC1P | TIM_CCER_CC1NP);
 8007206:	697b      	ldr	r3, [r7, #20]
 8007208:	f023 030a 	bic.w	r3, r3, #10
 800720c:	617b      	str	r3, [r7, #20]
  tmpccer |= TIM_ICPolarity;
 800720e:	697a      	ldr	r2, [r7, #20]
 8007210:	68bb      	ldr	r3, [r7, #8]
 8007212:	4313      	orrs	r3, r2
 8007214:	617b      	str	r3, [r7, #20]

  /* Write to TIMx CCMR1 and CCER registers */
  TIMx->CCMR1 = tmpccmr1;
 8007216:	68fb      	ldr	r3, [r7, #12]
 8007218:	693a      	ldr	r2, [r7, #16]
 800721a:	619a      	str	r2, [r3, #24]
  TIMx->CCER = tmpccer;
 800721c:	68fb      	ldr	r3, [r7, #12]
 800721e:	697a      	ldr	r2, [r7, #20]
 8007220:	621a      	str	r2, [r3, #32]
}
 8007222:	bf00      	nop
 8007224:	371c      	adds	r7, #28
 8007226:	46bd      	mov	sp, r7
 8007228:	f85d 7b04 	ldr.w	r7, [sp], #4
 800722c:	4770      	bx	lr

0800722e <TIM_TI2_ConfigInputStage>:
  * @param  TIM_ICFilter Specifies the Input Capture Filter.
  *          This parameter must be a value between 0x00 and 0x0F.
  * @retval None
  */
static void TIM_TI2_ConfigInputStage(TIM_TypeDef *TIMx, uint32_t TIM_ICPolarity, uint32_t TIM_ICFilter)
{
 800722e:	b480      	push	{r7}
 8007230:	b087      	sub	sp, #28
 8007232:	af00      	add	r7, sp, #0
 8007234:	60f8      	str	r0, [r7, #12]
 8007236:	60b9      	str	r1, [r7, #8]
 8007238:	607a      	str	r2, [r7, #4]
  uint32_t tmpccmr1;
  uint32_t tmpccer;

  /* Disable the Channel 2: Reset the CC2E Bit */
  TIMx->CCER &= ~TIM_CCER_CC2E;
 800723a:	68fb      	ldr	r3, [r7, #12]
 800723c:	6a1b      	ldr	r3, [r3, #32]
 800723e:	f023 0210 	bic.w	r2, r3, #16
 8007242:	68fb      	ldr	r3, [r7, #12]
 8007244:	621a      	str	r2, [r3, #32]
  tmpccmr1 = TIMx->CCMR1;
 8007246:	68fb      	ldr	r3, [r7, #12]
 8007248:	699b      	ldr	r3, [r3, #24]
 800724a:	617b      	str	r3, [r7, #20]
  tmpccer = TIMx->CCER;
 800724c:	68fb      	ldr	r3, [r7, #12]
 800724e:	6a1b      	ldr	r3, [r3, #32]
 8007250:	613b      	str	r3, [r7, #16]

  /* Set the filter */
  tmpccmr1 &= ~TIM_CCMR1_IC2F;
 8007252:	697b      	ldr	r3, [r7, #20]
 8007254:	f423 4370 	bic.w	r3, r3, #61440	; 0xf000
 8007258:	617b      	str	r3, [r7, #20]
  tmpccmr1 |= (TIM_ICFilter << 12U);
 800725a:	687b      	ldr	r3, [r7, #4]
 800725c:	031b      	lsls	r3, r3, #12
 800725e:	697a      	ldr	r2, [r7, #20]
 8007260:	4313      	orrs	r3, r2
 8007262:	617b      	str	r3, [r7, #20]

  /* Select the Polarity and set the CC2E Bit */
  tmpccer &= ~(TIM_CCER_CC2P | TIM_CCER_CC2NP);
 8007264:	693b      	ldr	r3, [r7, #16]
 8007266:	f023 03a0 	bic.w	r3, r3, #160	; 0xa0
 800726a:	613b      	str	r3, [r7, #16]
  tmpccer |= (TIM_ICPolarity << 4U);
 800726c:	68bb      	ldr	r3, [r7, #8]
 800726e:	011b      	lsls	r3, r3, #4
 8007270:	693a      	ldr	r2, [r7, #16]
 8007272:	4313      	orrs	r3, r2
 8007274:	613b      	str	r3, [r7, #16]

  /* Write to TIMx CCMR1 and CCER registers */
  TIMx->CCMR1 = tmpccmr1 ;
 8007276:	68fb      	ldr	r3, [r7, #12]
 8007278:	697a      	ldr	r2, [r7, #20]
 800727a:	619a      	str	r2, [r3, #24]
  TIMx->CCER = tmpccer;
 800727c:	68fb      	ldr	r3, [r7, #12]
 800727e:	693a      	ldr	r2, [r7, #16]
 8007280:	621a      	str	r2, [r3, #32]
}
 8007282:	bf00      	nop
 8007284:	371c      	adds	r7, #28
 8007286:	46bd      	mov	sp, r7
 8007288:	f85d 7b04 	ldr.w	r7, [sp], #4
 800728c:	4770      	bx	lr

0800728e <TIM_ITRx_SetConfig>:
  *            @arg TIM_TS_TI2FP2: Filtered Timer Input 2
  *            @arg TIM_TS_ETRF: External Trigger input
  * @retval None
  */
static void TIM_ITRx_SetConfig(TIM_TypeDef *TIMx, uint32_t InputTriggerSource)
{
 800728e:	b480      	push	{r7}
 8007290:	b085      	sub	sp, #20
 8007292:	af00      	add	r7, sp, #0
 8007294:	6078      	str	r0, [r7, #4]
 8007296:	6039      	str	r1, [r7, #0]
  uint32_t tmpsmcr;

  /* Get the TIMx SMCR register value */
  tmpsmcr = TIMx->SMCR;
 8007298:	687b      	ldr	r3, [r7, #4]
 800729a:	689b      	ldr	r3, [r3, #8]
 800729c:	60fb      	str	r3, [r7, #12]
  /* Reset the TS Bits */
  tmpsmcr &= ~TIM_SMCR_TS;
 800729e:	68fb      	ldr	r3, [r7, #12]
 80072a0:	f023 0370 	bic.w	r3, r3, #112	; 0x70
 80072a4:	60fb      	str	r3, [r7, #12]
  /* Set the Input Trigger source and the slave mode*/
  tmpsmcr |= (InputTriggerSource | TIM_SLAVEMODE_EXTERNAL1);
 80072a6:	683a      	ldr	r2, [r7, #0]
 80072a8:	68fb      	ldr	r3, [r7, #12]
 80072aa:	4313      	orrs	r3, r2
 80072ac:	f043 0307 	orr.w	r3, r3, #7
 80072b0:	60fb      	str	r3, [r7, #12]
  /* Write to TIMx SMCR */
  TIMx->SMCR = tmpsmcr;
 80072b2:	687b      	ldr	r3, [r7, #4]
 80072b4:	68fa      	ldr	r2, [r7, #12]
 80072b6:	609a      	str	r2, [r3, #8]
}
 80072b8:	bf00      	nop
 80072ba:	3714      	adds	r7, #20
 80072bc:	46bd      	mov	sp, r7
 80072be:	f85d 7b04 	ldr.w	r7, [sp], #4
 80072c2:	4770      	bx	lr

080072c4 <TIM_ETR_SetConfig>:
  *          This parameter must be a value between 0x00 and 0x0F
  * @retval None
  */
void TIM_ETR_SetConfig(TIM_TypeDef *TIMx, uint32_t TIM_ExtTRGPrescaler,
                       uint32_t TIM_ExtTRGPolarity, uint32_t ExtTRGFilter)
{
 80072c4:	b480      	push	{r7}
 80072c6:	b087      	sub	sp, #28
 80072c8:	af00      	add	r7, sp, #0
 80072ca:	60f8      	str	r0, [r7, #12]
 80072cc:	60b9      	str	r1, [r7, #8]
 80072ce:	607a      	str	r2, [r7, #4]
 80072d0:	603b      	str	r3, [r7, #0]
  uint32_t tmpsmcr;

  tmpsmcr = TIMx->SMCR;
 80072d2:	68fb      	ldr	r3, [r7, #12]
 80072d4:	689b      	ldr	r3, [r3, #8]
 80072d6:	617b      	str	r3, [r7, #20]

  /* Reset the ETR Bits */
  tmpsmcr &= ~(TIM_SMCR_ETF | TIM_SMCR_ETPS | TIM_SMCR_ECE | TIM_SMCR_ETP);
 80072d8:	697b      	ldr	r3, [r7, #20]
 80072da:	f423 437f 	bic.w	r3, r3, #65280	; 0xff00
 80072de:	617b      	str	r3, [r7, #20]

  /* Set the Prescaler, the Filter value and the Polarity */
  tmpsmcr |= (uint32_t)(TIM_ExtTRGPrescaler | (TIM_ExtTRGPolarity | (ExtTRGFilter << 8U)));
 80072e0:	683b      	ldr	r3, [r7, #0]
 80072e2:	021a      	lsls	r2, r3, #8
 80072e4:	687b      	ldr	r3, [r7, #4]
 80072e6:	431a      	orrs	r2, r3
 80072e8:	68bb      	ldr	r3, [r7, #8]
 80072ea:	4313      	orrs	r3, r2
 80072ec:	697a      	ldr	r2, [r7, #20]
 80072ee:	4313      	orrs	r3, r2
 80072f0:	617b      	str	r3, [r7, #20]

  /* Write to TIMx SMCR */
  TIMx->SMCR = tmpsmcr;
 80072f2:	68fb      	ldr	r3, [r7, #12]
 80072f4:	697a      	ldr	r2, [r7, #20]
 80072f6:	609a      	str	r2, [r3, #8]
}
 80072f8:	bf00      	nop
 80072fa:	371c      	adds	r7, #28
 80072fc:	46bd      	mov	sp, r7
 80072fe:	f85d 7b04 	ldr.w	r7, [sp], #4
 8007302:	4770      	bx	lr

08007304 <HAL_TIMEx_MasterConfigSynchronization>:
  *         mode.
  * @retval HAL status
  */
HAL_StatusTypeDef HAL_TIMEx_MasterConfigSynchronization(TIM_HandleTypeDef *htim,
                                                        TIM_MasterConfigTypeDef *sMasterConfig)
{
 8007304:	b480      	push	{r7}
 8007306:	b085      	sub	sp, #20
 8007308:	af00      	add	r7, sp, #0
 800730a:	6078      	str	r0, [r7, #4]
 800730c:	6039      	str	r1, [r7, #0]
  assert_param(IS_TIM_MASTER_INSTANCE(htim->Instance));
  assert_param(IS_TIM_TRGO_SOURCE(sMasterConfig->MasterOutputTrigger));
  assert_param(IS_TIM_MSM_STATE(sMasterConfig->MasterSlaveMode));

  /* Check input state */
  __HAL_LOCK(htim);
 800730e:	687b      	ldr	r3, [r7, #4]
 8007310:	f893 303c 	ldrb.w	r3, [r3, #60]	; 0x3c
 8007314:	2b01      	cmp	r3, #1
 8007316:	d101      	bne.n	800731c <HAL_TIMEx_MasterConfigSynchronization+0x18>
 8007318:	2302      	movs	r3, #2
 800731a:	e04f      	b.n	80073bc <HAL_TIMEx_MasterConfigSynchronization+0xb8>
 800731c:	687b      	ldr	r3, [r7, #4]
 800731e:	2201      	movs	r2, #1
 8007320:	f883 203c 	strb.w	r2, [r3, #60]	; 0x3c

  /* Change the handler state */
  htim->State = HAL_TIM_STATE_BUSY;
 8007324:	687b      	ldr	r3, [r7, #4]
 8007326:	2202      	movs	r2, #2
 8007328:	f883 203d 	strb.w	r2, [r3, #61]	; 0x3d

  /* Get the TIMx CR2 register value */
  tmpcr2 = htim->Instance->CR2;
 800732c:	687b      	ldr	r3, [r7, #4]
 800732e:	681b      	ldr	r3, [r3, #0]
 8007330:	685b      	ldr	r3, [r3, #4]
 8007332:	60fb      	str	r3, [r7, #12]

  /* Get the TIMx SMCR register value */
  tmpsmcr = htim->Instance->SMCR;
 8007334:	687b      	ldr	r3, [r7, #4]
 8007336:	681b      	ldr	r3, [r3, #0]
 8007338:	689b      	ldr	r3, [r3, #8]
 800733a:	60bb      	str	r3, [r7, #8]

  /* If the timer supports ADC synchronization through TRGO2, set the master mode selection 2 */
  if (IS_TIM_TRGO2_INSTANCE(htim->Instance))
 800733c:	687b      	ldr	r3, [r7, #4]
 800733e:	681b      	ldr	r3, [r3, #0]
 8007340:	4a21      	ldr	r2, [pc, #132]	; (80073c8 <HAL_TIMEx_MasterConfigSynchronization+0xc4>)
 8007342:	4293      	cmp	r3, r2
 8007344:	d108      	bne.n	8007358 <HAL_TIMEx_MasterConfigSynchronization+0x54>
  {
    /* Check the parameters */
    assert_param(IS_TIM_TRGO2_SOURCE(sMasterConfig->MasterOutputTrigger2));

    /* Clear the MMS2 bits */
    tmpcr2 &= ~TIM_CR2_MMS2;
 8007346:	68fb      	ldr	r3, [r7, #12]
 8007348:	f423 0370 	bic.w	r3, r3, #15728640	; 0xf00000
 800734c:	60fb      	str	r3, [r7, #12]
    /* Select the TRGO2 source*/
    tmpcr2 |= sMasterConfig->MasterOutputTrigger2;
 800734e:	683b      	ldr	r3, [r7, #0]
 8007350:	685b      	ldr	r3, [r3, #4]
 8007352:	68fa      	ldr	r2, [r7, #12]
 8007354:	4313      	orrs	r3, r2
 8007356:	60fb      	str	r3, [r7, #12]
  }

  /* Reset the MMS Bits */
  tmpcr2 &= ~TIM_CR2_MMS;
 8007358:	68fb      	ldr	r3, [r7, #12]
 800735a:	f023 0370 	bic.w	r3, r3, #112	; 0x70
 800735e:	60fb      	str	r3, [r7, #12]
  /* Select the TRGO source */
  tmpcr2 |=  sMasterConfig->MasterOutputTrigger;
 8007360:	683b      	ldr	r3, [r7, #0]
 8007362:	681b      	ldr	r3, [r3, #0]
 8007364:	68fa      	ldr	r2, [r7, #12]
 8007366:	4313      	orrs	r3, r2
 8007368:	60fb      	str	r3, [r7, #12]

  /* Update TIMx CR2 */
  htim->Instance->CR2 = tmpcr2;
 800736a:	687b      	ldr	r3, [r7, #4]
 800736c:	681b      	ldr	r3, [r3, #0]
 800736e:	68fa      	ldr	r2, [r7, #12]
 8007370:	605a      	str	r2, [r3, #4]

  if (IS_TIM_SLAVE_INSTANCE(htim->Instance))
 8007372:	687b      	ldr	r3, [r7, #4]
 8007374:	681b      	ldr	r3, [r3, #0]
 8007376:	4a14      	ldr	r2, [pc, #80]	; (80073c8 <HAL_TIMEx_MasterConfigSynchronization+0xc4>)
 8007378:	4293      	cmp	r3, r2
 800737a:	d009      	beq.n	8007390 <HAL_TIMEx_MasterConfigSynchronization+0x8c>
 800737c:	687b      	ldr	r3, [r7, #4]
 800737e:	681b      	ldr	r3, [r3, #0]
 8007380:	f1b3 4f80 	cmp.w	r3, #1073741824	; 0x40000000
 8007384:	d004      	beq.n	8007390 <HAL_TIMEx_MasterConfigSynchronization+0x8c>
 8007386:	687b      	ldr	r3, [r7, #4]
 8007388:	681b      	ldr	r3, [r3, #0]
 800738a:	4a10      	ldr	r2, [pc, #64]	; (80073cc <HAL_TIMEx_MasterConfigSynchronization+0xc8>)
 800738c:	4293      	cmp	r3, r2
 800738e:	d10c      	bne.n	80073aa <HAL_TIMEx_MasterConfigSynchronization+0xa6>
  {
    /* Reset the MSM Bit */
    tmpsmcr &= ~TIM_SMCR_MSM;
 8007390:	68bb      	ldr	r3, [r7, #8]
 8007392:	f023 0380 	bic.w	r3, r3, #128	; 0x80
 8007396:	60bb      	str	r3, [r7, #8]
    /* Set master mode */
    tmpsmcr |= sMasterConfig->MasterSlaveMode;
 8007398:	683b      	ldr	r3, [r7, #0]
 800739a:	689b      	ldr	r3, [r3, #8]
 800739c:	68ba      	ldr	r2, [r7, #8]
 800739e:	4313      	orrs	r3, r2
 80073a0:	60bb      	str	r3, [r7, #8]

    /* Update TIMx SMCR */
    htim->Instance->SMCR = tmpsmcr;
 80073a2:	687b      	ldr	r3, [r7, #4]
 80073a4:	681b      	ldr	r3, [r3, #0]
 80073a6:	68ba      	ldr	r2, [r7, #8]
 80073a8:	609a      	str	r2, [r3, #8]
  }

  /* Change the htim state */
  htim->State = HAL_TIM_STATE_READY;
 80073aa:	687b      	ldr	r3, [r7, #4]
 80073ac:	2201      	movs	r2, #1
 80073ae:	f883 203d 	strb.w	r2, [r3, #61]	; 0x3d

  __HAL_UNLOCK(htim);
 80073b2:	687b      	ldr	r3, [r7, #4]
 80073b4:	2200      	movs	r2, #0
 80073b6:	f883 203c 	strb.w	r2, [r3, #60]	; 0x3c

  return HAL_OK;
 80073ba:	2300      	movs	r3, #0
}
 80073bc:	4618      	mov	r0, r3
 80073be:	3714      	adds	r7, #20
 80073c0:	46bd      	mov	sp, r7
 80073c2:	f85d 7b04 	ldr.w	r7, [sp], #4
 80073c6:	4770      	bx	lr
 80073c8:	40012c00 	.word	0x40012c00
 80073cc:	40014000 	.word	0x40014000

080073d0 <HAL_UART_Init>:
  *        parameters in the UART_InitTypeDef and initialize the associated handle.
  * @param huart UART handle.
  * @retval HAL status
  */
HAL_StatusTypeDef HAL_UART_Init(UART_HandleTypeDef *huart)
{
 80073d0:	b580      	push	{r7, lr}
 80073d2:	b082      	sub	sp, #8
 80073d4:	af00      	add	r7, sp, #0
 80073d6:	6078      	str	r0, [r7, #4]
  /* Check the UART handle allocation */
  if (huart == NULL)
 80073d8:	687b      	ldr	r3, [r7, #4]
 80073da:	2b00      	cmp	r3, #0
 80073dc:	d101      	bne.n	80073e2 <HAL_UART_Init+0x12>
  {
    return HAL_ERROR;
 80073de:	2301      	movs	r3, #1
 80073e0:	e040      	b.n	8007464 <HAL_UART_Init+0x94>
  {
    /* Check the parameters */
    assert_param((IS_UART_INSTANCE(huart->Instance)) || (IS_LPUART_INSTANCE(huart->Instance)));
  }

  if (huart->gState == HAL_UART_STATE_RESET)
 80073e2:	687b      	ldr	r3, [r7, #4]
 80073e4:	6f5b      	ldr	r3, [r3, #116]	; 0x74
 80073e6:	2b00      	cmp	r3, #0
 80073e8:	d106      	bne.n	80073f8 <HAL_UART_Init+0x28>
  {
    /* Allocate lock resource and initialize it */
    huart->Lock = HAL_UNLOCKED;
 80073ea:	687b      	ldr	r3, [r7, #4]
 80073ec:	2200      	movs	r2, #0
 80073ee:	f883 2070 	strb.w	r2, [r3, #112]	; 0x70

    /* Init the low level hardware */
    huart->MspInitCallback(huart);
#else
    /* Init the low level hardware : GPIO, CLOCK */
    HAL_UART_MspInit(huart);
 80073f2:	6878      	ldr	r0, [r7, #4]
 80073f4:	f7fb fde6 	bl	8002fc4 <HAL_UART_MspInit>
#endif /* (USE_HAL_UART_REGISTER_CALLBACKS) */
  }

  huart->gState = HAL_UART_STATE_BUSY;
 80073f8:	687b      	ldr	r3, [r7, #4]
 80073fa:	2224      	movs	r2, #36	; 0x24
 80073fc:	675a      	str	r2, [r3, #116]	; 0x74

  __HAL_UART_DISABLE(huart);
 80073fe:	687b      	ldr	r3, [r7, #4]
 8007400:	681b      	ldr	r3, [r3, #0]
 8007402:	681a      	ldr	r2, [r3, #0]
 8007404:	687b      	ldr	r3, [r7, #4]
 8007406:	681b      	ldr	r3, [r3, #0]
 8007408:	f022 0201 	bic.w	r2, r2, #1
 800740c:	601a      	str	r2, [r3, #0]

  /* Set the UART Communication parameters */
  if (UART_SetConfig(huart) == HAL_ERROR)
 800740e:	6878      	ldr	r0, [r7, #4]
 8007410:	f000 f8c0 	bl	8007594 <UART_SetConfig>
 8007414:	4603      	mov	r3, r0
 8007416:	2b01      	cmp	r3, #1
 8007418:	d101      	bne.n	800741e <HAL_UART_Init+0x4e>
  {
    return HAL_ERROR;
 800741a:	2301      	movs	r3, #1
 800741c:	e022      	b.n	8007464 <HAL_UART_Init+0x94>
  }

  if (huart->AdvancedInit.AdvFeatureInit != UART_ADVFEATURE_NO_INIT)
 800741e:	687b      	ldr	r3, [r7, #4]
 8007420:	6a5b      	ldr	r3, [r3, #36]	; 0x24
 8007422:	2b00      	cmp	r3, #0
 8007424:	d002      	beq.n	800742c <HAL_UART_Init+0x5c>
  {
    UART_AdvFeatureConfig(huart);
 8007426:	6878      	ldr	r0, [r7, #4]
 8007428:	f000 fac4 	bl	80079b4 <UART_AdvFeatureConfig>
  }

  /* In asynchronous mode, the following bits must be kept cleared:
  - LINEN and CLKEN bits in the USART_CR2 register,
  - SCEN, HDSEL and IREN  bits in the USART_CR3 register.*/
  CLEAR_BIT(huart->Instance->CR2, (USART_CR2_LINEN | USART_CR2_CLKEN));
 800742c:	687b      	ldr	r3, [r7, #4]
 800742e:	681b      	ldr	r3, [r3, #0]
 8007430:	685a      	ldr	r2, [r3, #4]
 8007432:	687b      	ldr	r3, [r7, #4]
 8007434:	681b      	ldr	r3, [r3, #0]
 8007436:	f422 4290 	bic.w	r2, r2, #18432	; 0x4800
 800743a:	605a      	str	r2, [r3, #4]
  CLEAR_BIT(huart->Instance->CR3, (USART_CR3_SCEN | USART_CR3_HDSEL | USART_CR3_IREN));
 800743c:	687b      	ldr	r3, [r7, #4]
 800743e:	681b      	ldr	r3, [r3, #0]
 8007440:	689a      	ldr	r2, [r3, #8]
 8007442:	687b      	ldr	r3, [r7, #4]
 8007444:	681b      	ldr	r3, [r3, #0]
 8007446:	f022 022a 	bic.w	r2, r2, #42	; 0x2a
 800744a:	609a      	str	r2, [r3, #8]

  __HAL_UART_ENABLE(huart);
 800744c:	687b      	ldr	r3, [r7, #4]
 800744e:	681b      	ldr	r3, [r3, #0]
 8007450:	681a      	ldr	r2, [r3, #0]
 8007452:	687b      	ldr	r3, [r7, #4]
 8007454:	681b      	ldr	r3, [r3, #0]
 8007456:	f042 0201 	orr.w	r2, r2, #1
 800745a:	601a      	str	r2, [r3, #0]

  /* TEACK and/or REACK to check before moving huart->gState and huart->RxState to Ready */
  return (UART_CheckIdleState(huart));
 800745c:	6878      	ldr	r0, [r7, #4]
 800745e:	f000 fb4b 	bl	8007af8 <UART_CheckIdleState>
 8007462:	4603      	mov	r3, r0
}
 8007464:	4618      	mov	r0, r3
 8007466:	3708      	adds	r7, #8
 8007468:	46bd      	mov	sp, r7
 800746a:	bd80      	pop	{r7, pc}

0800746c <HAL_UART_Transmit>:
  * @param Size    Amount of data elements (u8 or u16) to be sent.
  * @param Timeout Timeout duration.
  * @retval HAL status
  */
HAL_StatusTypeDef HAL_UART_Transmit(UART_HandleTypeDef *huart, uint8_t *pData, uint16_t Size, uint32_t Timeout)
{
 800746c:	b580      	push	{r7, lr}
 800746e:	b08a      	sub	sp, #40	; 0x28
 8007470:	af02      	add	r7, sp, #8
 8007472:	60f8      	str	r0, [r7, #12]
 8007474:	60b9      	str	r1, [r7, #8]
 8007476:	603b      	str	r3, [r7, #0]
 8007478:	4613      	mov	r3, r2
 800747a:	80fb      	strh	r3, [r7, #6]
  uint8_t  *pdata8bits;
  uint16_t *pdata16bits;
  uint32_t tickstart;

  /* Check that a Tx process is not already ongoing */
  if (huart->gState == HAL_UART_STATE_READY)
 800747c:	68fb      	ldr	r3, [r7, #12]
 800747e:	6f5b      	ldr	r3, [r3, #116]	; 0x74
 8007480:	2b20      	cmp	r3, #32
 8007482:	f040 8081 	bne.w	8007588 <HAL_UART_Transmit+0x11c>
  {
    if ((pData == NULL) || (Size == 0U))
 8007486:	68bb      	ldr	r3, [r7, #8]
 8007488:	2b00      	cmp	r3, #0
 800748a:	d002      	beq.n	8007492 <HAL_UART_Transmit+0x26>
 800748c:	88fb      	ldrh	r3, [r7, #6]
 800748e:	2b00      	cmp	r3, #0
 8007490:	d101      	bne.n	8007496 <HAL_UART_Transmit+0x2a>
    {
      return  HAL_ERROR;
 8007492:	2301      	movs	r3, #1
 8007494:	e079      	b.n	800758a <HAL_UART_Transmit+0x11e>
    }

    __HAL_LOCK(huart);
 8007496:	68fb      	ldr	r3, [r7, #12]
 8007498:	f893 3070 	ldrb.w	r3, [r3, #112]	; 0x70
 800749c:	2b01      	cmp	r3, #1
 800749e:	d101      	bne.n	80074a4 <HAL_UART_Transmit+0x38>
 80074a0:	2302      	movs	r3, #2
 80074a2:	e072      	b.n	800758a <HAL_UART_Transmit+0x11e>
 80074a4:	68fb      	ldr	r3, [r7, #12]
 80074a6:	2201      	movs	r2, #1
 80074a8:	f883 2070 	strb.w	r2, [r3, #112]	; 0x70

    huart->ErrorCode = HAL_UART_ERROR_NONE;
 80074ac:	68fb      	ldr	r3, [r7, #12]
 80074ae:	2200      	movs	r2, #0
 80074b0:	67da      	str	r2, [r3, #124]	; 0x7c
    huart->gState = HAL_UART_STATE_BUSY_TX;
 80074b2:	68fb      	ldr	r3, [r7, #12]
 80074b4:	2221      	movs	r2, #33	; 0x21
 80074b6:	675a      	str	r2, [r3, #116]	; 0x74

    /* Init tickstart for timeout managment*/
    tickstart = HAL_GetTick();
 80074b8:	f7fb fe6a 	bl	8003190 <HAL_GetTick>
 80074bc:	6178      	str	r0, [r7, #20]

    huart->TxXferSize  = Size;
 80074be:	68fb      	ldr	r3, [r7, #12]
 80074c0:	88fa      	ldrh	r2, [r7, #6]
 80074c2:	f8a3 2050 	strh.w	r2, [r3, #80]	; 0x50
    huart->TxXferCount = Size;
 80074c6:	68fb      	ldr	r3, [r7, #12]
 80074c8:	88fa      	ldrh	r2, [r7, #6]
 80074ca:	f8a3 2052 	strh.w	r2, [r3, #82]	; 0x52

    /* In case of 9bits/No Parity transfer, pData needs to be handled as a uint16_t pointer */
    if ((huart->Init.WordLength == UART_WORDLENGTH_9B) && (huart->Init.Parity == UART_PARITY_NONE))
 80074ce:	68fb      	ldr	r3, [r7, #12]
 80074d0:	689b      	ldr	r3, [r3, #8]
 80074d2:	f5b3 5f80 	cmp.w	r3, #4096	; 0x1000
 80074d6:	d108      	bne.n	80074ea <HAL_UART_Transmit+0x7e>
 80074d8:	68fb      	ldr	r3, [r7, #12]
 80074da:	691b      	ldr	r3, [r3, #16]
 80074dc:	2b00      	cmp	r3, #0
 80074de:	d104      	bne.n	80074ea <HAL_UART_Transmit+0x7e>
    {
      pdata8bits  = NULL;
 80074e0:	2300      	movs	r3, #0
 80074e2:	61fb      	str	r3, [r7, #28]
      pdata16bits = (uint16_t *) pData;
 80074e4:	68bb      	ldr	r3, [r7, #8]
 80074e6:	61bb      	str	r3, [r7, #24]
 80074e8:	e003      	b.n	80074f2 <HAL_UART_Transmit+0x86>
    }
    else
    {
      pdata8bits  = pData;
 80074ea:	68bb      	ldr	r3, [r7, #8]
 80074ec:	61fb      	str	r3, [r7, #28]
      pdata16bits = NULL;
 80074ee:	2300      	movs	r3, #0
 80074f0:	61bb      	str	r3, [r7, #24]
    }

    __HAL_UNLOCK(huart);
 80074f2:	68fb      	ldr	r3, [r7, #12]
 80074f4:	2200      	movs	r2, #0
 80074f6:	f883 2070 	strb.w	r2, [r3, #112]	; 0x70

    while (huart->TxXferCount > 0U)
 80074fa:	e02d      	b.n	8007558 <HAL_UART_Transmit+0xec>
    {
      if (UART_WaitOnFlagUntilTimeout(huart, UART_FLAG_TXE, RESET, tickstart, Timeout) != HAL_OK)
 80074fc:	683b      	ldr	r3, [r7, #0]
 80074fe:	9300      	str	r3, [sp, #0]
 8007500:	697b      	ldr	r3, [r7, #20]
 8007502:	2200      	movs	r2, #0
 8007504:	2180      	movs	r1, #128	; 0x80
 8007506:	68f8      	ldr	r0, [r7, #12]
 8007508:	f000 fb3b 	bl	8007b82 <UART_WaitOnFlagUntilTimeout>
 800750c:	4603      	mov	r3, r0
 800750e:	2b00      	cmp	r3, #0
 8007510:	d001      	beq.n	8007516 <HAL_UART_Transmit+0xaa>
      {
        return HAL_TIMEOUT;
 8007512:	2303      	movs	r3, #3
 8007514:	e039      	b.n	800758a <HAL_UART_Transmit+0x11e>
      }
      if (pdata8bits == NULL)
 8007516:	69fb      	ldr	r3, [r7, #28]
 8007518:	2b00      	cmp	r3, #0
 800751a:	d10b      	bne.n	8007534 <HAL_UART_Transmit+0xc8>
      {
        huart->Instance->TDR = (uint16_t)(*pdata16bits & 0x01FFU);
 800751c:	69bb      	ldr	r3, [r7, #24]
 800751e:	881a      	ldrh	r2, [r3, #0]
 8007520:	68fb      	ldr	r3, [r7, #12]
 8007522:	681b      	ldr	r3, [r3, #0]
 8007524:	f3c2 0208 	ubfx	r2, r2, #0, #9
 8007528:	b292      	uxth	r2, r2
 800752a:	851a      	strh	r2, [r3, #40]	; 0x28
        pdata16bits++;
 800752c:	69bb      	ldr	r3, [r7, #24]
 800752e:	3302      	adds	r3, #2
 8007530:	61bb      	str	r3, [r7, #24]
 8007532:	e008      	b.n	8007546 <HAL_UART_Transmit+0xda>
      }
      else
      {
        huart->Instance->TDR = (uint8_t)(*pdata8bits & 0xFFU);
 8007534:	69fb      	ldr	r3, [r7, #28]
 8007536:	781a      	ldrb	r2, [r3, #0]
 8007538:	68fb      	ldr	r3, [r7, #12]
 800753a:	681b      	ldr	r3, [r3, #0]
 800753c:	b292      	uxth	r2, r2
 800753e:	851a      	strh	r2, [r3, #40]	; 0x28
        pdata8bits++;
 8007540:	69fb      	ldr	r3, [r7, #28]
 8007542:	3301      	adds	r3, #1
 8007544:	61fb      	str	r3, [r7, #28]
      }
      huart->TxXferCount--;
 8007546:	68fb      	ldr	r3, [r7, #12]
 8007548:	f8b3 3052 	ldrh.w	r3, [r3, #82]	; 0x52
 800754c:	b29b      	uxth	r3, r3
 800754e:	3b01      	subs	r3, #1
 8007550:	b29a      	uxth	r2, r3
 8007552:	68fb      	ldr	r3, [r7, #12]
 8007554:	f8a3 2052 	strh.w	r2, [r3, #82]	; 0x52
    while (huart->TxXferCount > 0U)
 8007558:	68fb      	ldr	r3, [r7, #12]
 800755a:	f8b3 3052 	ldrh.w	r3, [r3, #82]	; 0x52
 800755e:	b29b      	uxth	r3, r3
 8007560:	2b00      	cmp	r3, #0
 8007562:	d1cb      	bne.n	80074fc <HAL_UART_Transmit+0x90>
    }

    if (UART_WaitOnFlagUntilTimeout(huart, UART_FLAG_TC, RESET, tickstart, Timeout) != HAL_OK)
 8007564:	683b      	ldr	r3, [r7, #0]
 8007566:	9300      	str	r3, [sp, #0]
 8007568:	697b      	ldr	r3, [r7, #20]
 800756a:	2200      	movs	r2, #0
 800756c:	2140      	movs	r1, #64	; 0x40
 800756e:	68f8      	ldr	r0, [r7, #12]
 8007570:	f000 fb07 	bl	8007b82 <UART_WaitOnFlagUntilTimeout>
 8007574:	4603      	mov	r3, r0
 8007576:	2b00      	cmp	r3, #0
 8007578:	d001      	beq.n	800757e <HAL_UART_Transmit+0x112>
    {
      return HAL_TIMEOUT;
 800757a:	2303      	movs	r3, #3
 800757c:	e005      	b.n	800758a <HAL_UART_Transmit+0x11e>
    }

    /* At end of Tx process, restore huart->gState to Ready */
    huart->gState = HAL_UART_STATE_READY;
 800757e:	68fb      	ldr	r3, [r7, #12]
 8007580:	2220      	movs	r2, #32
 8007582:	675a      	str	r2, [r3, #116]	; 0x74

    return HAL_OK;
 8007584:	2300      	movs	r3, #0
 8007586:	e000      	b.n	800758a <HAL_UART_Transmit+0x11e>
  }
  else
  {
    return HAL_BUSY;
 8007588:	2302      	movs	r3, #2
  }
}
 800758a:	4618      	mov	r0, r3
 800758c:	3720      	adds	r7, #32
 800758e:	46bd      	mov	sp, r7
 8007590:	bd80      	pop	{r7, pc}
	...

08007594 <UART_SetConfig>:
  * @brief Configure the UART peripheral.
  * @param huart UART handle.
  * @retval HAL status
  */
HAL_StatusTypeDef UART_SetConfig(UART_HandleTypeDef *huart)
{
 8007594:	e92d 4890 	stmdb	sp!, {r4, r7, fp, lr}
 8007598:	b088      	sub	sp, #32
 800759a:	af00      	add	r7, sp, #0
 800759c:	6078      	str	r0, [r7, #4]
  uint32_t tmpreg;
  uint16_t brrtemp;
  UART_ClockSourceTypeDef clocksource;
  uint32_t usartdiv;
  HAL_StatusTypeDef ret               = HAL_OK;
 800759e:	2300      	movs	r3, #0
 80075a0:	76bb      	strb	r3, [r7, #26]
  *  the UART Word Length, Parity, Mode and oversampling:
  *  set the M bits according to huart->Init.WordLength value
  *  set PCE and PS bits according to huart->Init.Parity value
  *  set TE and RE bits according to huart->Init.Mode value
  *  set OVER8 bit according to huart->Init.OverSampling value */
  tmpreg = (uint32_t)huart->Init.WordLength | huart->Init.Parity | huart->Init.Mode | huart->Init.OverSampling ;
 80075a2:	687b      	ldr	r3, [r7, #4]
 80075a4:	689a      	ldr	r2, [r3, #8]
 80075a6:	687b      	ldr	r3, [r7, #4]
 80075a8:	691b      	ldr	r3, [r3, #16]
 80075aa:	431a      	orrs	r2, r3
 80075ac:	687b      	ldr	r3, [r7, #4]
 80075ae:	695b      	ldr	r3, [r3, #20]
 80075b0:	431a      	orrs	r2, r3
 80075b2:	687b      	ldr	r3, [r7, #4]
 80075b4:	69db      	ldr	r3, [r3, #28]
 80075b6:	4313      	orrs	r3, r2
 80075b8:	61fb      	str	r3, [r7, #28]
#if defined(USART_CR1_FIFOEN)
  tmpreg |= (uint32_t)huart->FifoMode;
#endif /* USART_CR1_FIFOEN */
  MODIFY_REG(huart->Instance->CR1, USART_CR1_FIELDS, tmpreg);
 80075ba:	687b      	ldr	r3, [r7, #4]
 80075bc:	681b      	ldr	r3, [r3, #0]
 80075be:	681a      	ldr	r2, [r3, #0]
 80075c0:	4bb0      	ldr	r3, [pc, #704]	; (8007884 <UART_SetConfig+0x2f0>)
 80075c2:	4013      	ands	r3, r2
 80075c4:	687a      	ldr	r2, [r7, #4]
 80075c6:	6812      	ldr	r2, [r2, #0]
 80075c8:	69f9      	ldr	r1, [r7, #28]
 80075ca:	430b      	orrs	r3, r1
 80075cc:	6013      	str	r3, [r2, #0]

  /*-------------------------- USART CR2 Configuration -----------------------*/
  /* Configure the UART Stop Bits: Set STOP[13:12] bits according
  * to huart->Init.StopBits value */
  MODIFY_REG(huart->Instance->CR2, USART_CR2_STOP, huart->Init.StopBits);
 80075ce:	687b      	ldr	r3, [r7, #4]
 80075d0:	681b      	ldr	r3, [r3, #0]
 80075d2:	685b      	ldr	r3, [r3, #4]
 80075d4:	f423 5140 	bic.w	r1, r3, #12288	; 0x3000
 80075d8:	687b      	ldr	r3, [r7, #4]
 80075da:	68da      	ldr	r2, [r3, #12]
 80075dc:	687b      	ldr	r3, [r7, #4]
 80075de:	681b      	ldr	r3, [r3, #0]
 80075e0:	430a      	orrs	r2, r1
 80075e2:	605a      	str	r2, [r3, #4]
  /* Configure
  * - UART HardWare Flow Control: set CTSE and RTSE bits according
  *   to huart->Init.HwFlowCtl value
  * - one-bit sampling method versus three samples' majority rule according
  *   to huart->Init.OneBitSampling (not applicable to LPUART) */
  tmpreg = (uint32_t)huart->Init.HwFlowCtl;
 80075e4:	687b      	ldr	r3, [r7, #4]
 80075e6:	699b      	ldr	r3, [r3, #24]
 80075e8:	61fb      	str	r3, [r7, #28]

  if (!(UART_INSTANCE_LOWPOWER(huart)))
 80075ea:	687b      	ldr	r3, [r7, #4]
 80075ec:	681b      	ldr	r3, [r3, #0]
 80075ee:	4aa6      	ldr	r2, [pc, #664]	; (8007888 <UART_SetConfig+0x2f4>)
 80075f0:	4293      	cmp	r3, r2
 80075f2:	d004      	beq.n	80075fe <UART_SetConfig+0x6a>
  {
    tmpreg |= huart->Init.OneBitSampling;
 80075f4:	687b      	ldr	r3, [r7, #4]
 80075f6:	6a1b      	ldr	r3, [r3, #32]
 80075f8:	69fa      	ldr	r2, [r7, #28]
 80075fa:	4313      	orrs	r3, r2
 80075fc:	61fb      	str	r3, [r7, #28]
  }
  MODIFY_REG(huart->Instance->CR3, USART_CR3_FIELDS, tmpreg);
 80075fe:	687b      	ldr	r3, [r7, #4]
 8007600:	681b      	ldr	r3, [r3, #0]
 8007602:	689b      	ldr	r3, [r3, #8]
 8007604:	f423 6130 	bic.w	r1, r3, #2816	; 0xb00
 8007608:	687b      	ldr	r3, [r7, #4]
 800760a:	681b      	ldr	r3, [r3, #0]
 800760c:	69fa      	ldr	r2, [r7, #28]
 800760e:	430a      	orrs	r2, r1
 8007610:	609a      	str	r2, [r3, #8]
  * - UART Clock Prescaler : set PRESCALER according to huart->Init.ClockPrescaler value */
  MODIFY_REG(huart->Instance->PRESC, USART_PRESC_PRESCALER, huart->Init.ClockPrescaler);
#endif /* USART_PRESC_PRESCALER */

  /*-------------------------- USART BRR Configuration -----------------------*/
  UART_GETCLOCKSOURCE(huart, clocksource);
 8007612:	687b      	ldr	r3, [r7, #4]
 8007614:	681b      	ldr	r3, [r3, #0]
 8007616:	4a9d      	ldr	r2, [pc, #628]	; (800788c <UART_SetConfig+0x2f8>)
 8007618:	4293      	cmp	r3, r2
 800761a:	d121      	bne.n	8007660 <UART_SetConfig+0xcc>
 800761c:	4b9c      	ldr	r3, [pc, #624]	; (8007890 <UART_SetConfig+0x2fc>)
 800761e:	f8d3 3088 	ldr.w	r3, [r3, #136]	; 0x88
 8007622:	f003 0303 	and.w	r3, r3, #3
 8007626:	2b03      	cmp	r3, #3
 8007628:	d816      	bhi.n	8007658 <UART_SetConfig+0xc4>
 800762a:	a201      	add	r2, pc, #4	; (adr r2, 8007630 <UART_SetConfig+0x9c>)
 800762c:	f852 f023 	ldr.w	pc, [r2, r3, lsl #2]
 8007630:	08007641 	.word	0x08007641
 8007634:	0800764d 	.word	0x0800764d
 8007638:	08007647 	.word	0x08007647
 800763c:	08007653 	.word	0x08007653
 8007640:	2301      	movs	r3, #1
 8007642:	76fb      	strb	r3, [r7, #27]
 8007644:	e072      	b.n	800772c <UART_SetConfig+0x198>
 8007646:	2302      	movs	r3, #2
 8007648:	76fb      	strb	r3, [r7, #27]
 800764a:	e06f      	b.n	800772c <UART_SetConfig+0x198>
 800764c:	2304      	movs	r3, #4
 800764e:	76fb      	strb	r3, [r7, #27]
 8007650:	e06c      	b.n	800772c <UART_SetConfig+0x198>
 8007652:	2308      	movs	r3, #8
 8007654:	76fb      	strb	r3, [r7, #27]
 8007656:	e069      	b.n	800772c <UART_SetConfig+0x198>
 8007658:	2310      	movs	r3, #16
 800765a:	76fb      	strb	r3, [r7, #27]
 800765c:	bf00      	nop
 800765e:	e065      	b.n	800772c <UART_SetConfig+0x198>
 8007660:	687b      	ldr	r3, [r7, #4]
 8007662:	681b      	ldr	r3, [r3, #0]
 8007664:	4a8b      	ldr	r2, [pc, #556]	; (8007894 <UART_SetConfig+0x300>)
 8007666:	4293      	cmp	r3, r2
 8007668:	d134      	bne.n	80076d4 <UART_SetConfig+0x140>
 800766a:	4b89      	ldr	r3, [pc, #548]	; (8007890 <UART_SetConfig+0x2fc>)
 800766c:	f8d3 3088 	ldr.w	r3, [r3, #136]	; 0x88
 8007670:	f003 030c 	and.w	r3, r3, #12
 8007674:	2b0c      	cmp	r3, #12
 8007676:	d829      	bhi.n	80076cc <UART_SetConfig+0x138>
 8007678:	a201      	add	r2, pc, #4	; (adr r2, 8007680 <UART_SetConfig+0xec>)
 800767a:	f852 f023 	ldr.w	pc, [r2, r3, lsl #2]
 800767e:	bf00      	nop
 8007680:	080076b5 	.word	0x080076b5
 8007684:	080076cd 	.word	0x080076cd
 8007688:	080076cd 	.word	0x080076cd
 800768c:	080076cd 	.word	0x080076cd
 8007690:	080076c1 	.word	0x080076c1
 8007694:	080076cd 	.word	0x080076cd
 8007698:	080076cd 	.word	0x080076cd
 800769c:	080076cd 	.word	0x080076cd
 80076a0:	080076bb 	.word	0x080076bb
 80076a4:	080076cd 	.word	0x080076cd
 80076a8:	080076cd 	.word	0x080076cd
 80076ac:	080076cd 	.word	0x080076cd
 80076b0:	080076c7 	.word	0x080076c7
 80076b4:	2300      	movs	r3, #0
 80076b6:	76fb      	strb	r3, [r7, #27]
 80076b8:	e038      	b.n	800772c <UART_SetConfig+0x198>
 80076ba:	2302      	movs	r3, #2
 80076bc:	76fb      	strb	r3, [r7, #27]
 80076be:	e035      	b.n	800772c <UART_SetConfig+0x198>
 80076c0:	2304      	movs	r3, #4
 80076c2:	76fb      	strb	r3, [r7, #27]
 80076c4:	e032      	b.n	800772c <UART_SetConfig+0x198>
 80076c6:	2308      	movs	r3, #8
 80076c8:	76fb      	strb	r3, [r7, #27]
 80076ca:	e02f      	b.n	800772c <UART_SetConfig+0x198>
 80076cc:	2310      	movs	r3, #16
 80076ce:	76fb      	strb	r3, [r7, #27]
 80076d0:	bf00      	nop
 80076d2:	e02b      	b.n	800772c <UART_SetConfig+0x198>
 80076d4:	687b      	ldr	r3, [r7, #4]
 80076d6:	681b      	ldr	r3, [r3, #0]
 80076d8:	4a6b      	ldr	r2, [pc, #428]	; (8007888 <UART_SetConfig+0x2f4>)
 80076da:	4293      	cmp	r3, r2
 80076dc:	d124      	bne.n	8007728 <UART_SetConfig+0x194>
 80076de:	4b6c      	ldr	r3, [pc, #432]	; (8007890 <UART_SetConfig+0x2fc>)
 80076e0:	f8d3 3088 	ldr.w	r3, [r3, #136]	; 0x88
 80076e4:	f403 6340 	and.w	r3, r3, #3072	; 0xc00
 80076e8:	f5b3 6f80 	cmp.w	r3, #1024	; 0x400
 80076ec:	d012      	beq.n	8007714 <UART_SetConfig+0x180>
 80076ee:	f5b3 6f80 	cmp.w	r3, #1024	; 0x400
 80076f2:	d802      	bhi.n	80076fa <UART_SetConfig+0x166>
 80076f4:	2b00      	cmp	r3, #0
 80076f6:	d007      	beq.n	8007708 <UART_SetConfig+0x174>
 80076f8:	e012      	b.n	8007720 <UART_SetConfig+0x18c>
 80076fa:	f5b3 6f00 	cmp.w	r3, #2048	; 0x800
 80076fe:	d006      	beq.n	800770e <UART_SetConfig+0x17a>
 8007700:	f5b3 6f40 	cmp.w	r3, #3072	; 0xc00
 8007704:	d009      	beq.n	800771a <UART_SetConfig+0x186>
 8007706:	e00b      	b.n	8007720 <UART_SetConfig+0x18c>
 8007708:	2300      	movs	r3, #0
 800770a:	76fb      	strb	r3, [r7, #27]
 800770c:	e00e      	b.n	800772c <UART_SetConfig+0x198>
 800770e:	2302      	movs	r3, #2
 8007710:	76fb      	strb	r3, [r7, #27]
 8007712:	e00b      	b.n	800772c <UART_SetConfig+0x198>
 8007714:	2304      	movs	r3, #4
 8007716:	76fb      	strb	r3, [r7, #27]
 8007718:	e008      	b.n	800772c <UART_SetConfig+0x198>
 800771a:	2308      	movs	r3, #8
 800771c:	76fb      	strb	r3, [r7, #27]
 800771e:	e005      	b.n	800772c <UART_SetConfig+0x198>
 8007720:	2310      	movs	r3, #16
 8007722:	76fb      	strb	r3, [r7, #27]
 8007724:	bf00      	nop
 8007726:	e001      	b.n	800772c <UART_SetConfig+0x198>
 8007728:	2310      	movs	r3, #16
 800772a:	76fb      	strb	r3, [r7, #27]

  /* Check LPUART instance */
  if (UART_INSTANCE_LOWPOWER(huart))
 800772c:	687b      	ldr	r3, [r7, #4]
 800772e:	681b      	ldr	r3, [r3, #0]
 8007730:	4a55      	ldr	r2, [pc, #340]	; (8007888 <UART_SetConfig+0x2f4>)
 8007732:	4293      	cmp	r3, r2
 8007734:	d174      	bne.n	8007820 <UART_SetConfig+0x28c>
  {
    /* Retrieve frequency clock */
    switch (clocksource)
 8007736:	7efb      	ldrb	r3, [r7, #27]
 8007738:	2b08      	cmp	r3, #8
 800773a:	d824      	bhi.n	8007786 <UART_SetConfig+0x1f2>
 800773c:	a201      	add	r2, pc, #4	; (adr r2, 8007744 <UART_SetConfig+0x1b0>)
 800773e:	f852 f023 	ldr.w	pc, [r2, r3, lsl #2]
 8007742:	bf00      	nop
 8007744:	08007769 	.word	0x08007769
 8007748:	08007787 	.word	0x08007787
 800774c:	08007771 	.word	0x08007771
 8007750:	08007787 	.word	0x08007787
 8007754:	08007777 	.word	0x08007777
 8007758:	08007787 	.word	0x08007787
 800775c:	08007787 	.word	0x08007787
 8007760:	08007787 	.word	0x08007787
 8007764:	0800777f 	.word	0x0800777f
    {
      case UART_CLOCKSOURCE_PCLK1:
        pclk = HAL_RCC_GetPCLK1Freq();
 8007768:	f7fe fff2 	bl	8006750 <HAL_RCC_GetPCLK1Freq>
 800776c:	6178      	str	r0, [r7, #20]
        break;
 800776e:	e00f      	b.n	8007790 <UART_SetConfig+0x1fc>
      case UART_CLOCKSOURCE_HSI:
        pclk = (uint32_t) HSI_VALUE;
 8007770:	4b49      	ldr	r3, [pc, #292]	; (8007898 <UART_SetConfig+0x304>)
 8007772:	617b      	str	r3, [r7, #20]
        break;
 8007774:	e00c      	b.n	8007790 <UART_SetConfig+0x1fc>
      case UART_CLOCKSOURCE_SYSCLK:
        pclk = HAL_RCC_GetSysClockFreq();
 8007776:	f7fe ff55 	bl	8006624 <HAL_RCC_GetSysClockFreq>
 800777a:	6178      	str	r0, [r7, #20]
        break;
 800777c:	e008      	b.n	8007790 <UART_SetConfig+0x1fc>
      case UART_CLOCKSOURCE_LSE:
        pclk = (uint32_t) LSE_VALUE;
 800777e:	f44f 4300 	mov.w	r3, #32768	; 0x8000
 8007782:	617b      	str	r3, [r7, #20]
        break;
 8007784:	e004      	b.n	8007790 <UART_SetConfig+0x1fc>
      default:
        pclk = 0U;
 8007786:	2300      	movs	r3, #0
 8007788:	617b      	str	r3, [r7, #20]
        ret = HAL_ERROR;
 800778a:	2301      	movs	r3, #1
 800778c:	76bb      	strb	r3, [r7, #26]
        break;
 800778e:	bf00      	nop
    }

    /* If proper clock source reported */
    if (pclk != 0U)
 8007790:	697b      	ldr	r3, [r7, #20]
 8007792:	2b00      	cmp	r3, #0
 8007794:	f000 8100 	beq.w	8007998 <UART_SetConfig+0x404>
        }
      } /* if ( (lpuart_ker_ck_pres < (3 * huart->Init.BaudRate) ) || (lpuart_ker_ck_pres > (4096 * huart->Init.BaudRate) )) */
#else
      /* No Prescaler applicable */
      /* Ensure that Frequency clock is in the range [3 * baudrate, 4096 * baudrate] */
      if ((pclk < (3U * huart->Init.BaudRate)) ||
 8007798:	687b      	ldr	r3, [r7, #4]
 800779a:	685a      	ldr	r2, [r3, #4]
 800779c:	4613      	mov	r3, r2
 800779e:	005b      	lsls	r3, r3, #1
 80077a0:	4413      	add	r3, r2
 80077a2:	697a      	ldr	r2, [r7, #20]
 80077a4:	429a      	cmp	r2, r3
 80077a6:	d305      	bcc.n	80077b4 <UART_SetConfig+0x220>
          (pclk > (4096U * huart->Init.BaudRate)))
 80077a8:	687b      	ldr	r3, [r7, #4]
 80077aa:	685b      	ldr	r3, [r3, #4]
 80077ac:	031b      	lsls	r3, r3, #12
      if ((pclk < (3U * huart->Init.BaudRate)) ||
 80077ae:	697a      	ldr	r2, [r7, #20]
 80077b0:	429a      	cmp	r2, r3
 80077b2:	d902      	bls.n	80077ba <UART_SetConfig+0x226>
      {
        ret = HAL_ERROR;
 80077b4:	2301      	movs	r3, #1
 80077b6:	76bb      	strb	r3, [r7, #26]
 80077b8:	e0ee      	b.n	8007998 <UART_SetConfig+0x404>
      }
      else
      {
        usartdiv = (uint32_t)(UART_DIV_LPUART(pclk, (uint64_t)huart->Init.BaudRate));
 80077ba:	697b      	ldr	r3, [r7, #20]
 80077bc:	4619      	mov	r1, r3
 80077be:	f04f 0200 	mov.w	r2, #0
 80077c2:	f04f 0300 	mov.w	r3, #0
 80077c6:	f04f 0400 	mov.w	r4, #0
 80077ca:	0214      	lsls	r4, r2, #8
 80077cc:	ea44 6411 	orr.w	r4, r4, r1, lsr #24
 80077d0:	020b      	lsls	r3, r1, #8
 80077d2:	687a      	ldr	r2, [r7, #4]
 80077d4:	6852      	ldr	r2, [r2, #4]
 80077d6:	0852      	lsrs	r2, r2, #1
 80077d8:	4611      	mov	r1, r2
 80077da:	f04f 0200 	mov.w	r2, #0
 80077de:	eb13 0b01 	adds.w	fp, r3, r1
 80077e2:	eb44 0c02 	adc.w	ip, r4, r2
 80077e6:	4658      	mov	r0, fp
 80077e8:	4661      	mov	r1, ip
 80077ea:	687b      	ldr	r3, [r7, #4]
 80077ec:	685b      	ldr	r3, [r3, #4]
 80077ee:	f04f 0400 	mov.w	r4, #0
 80077f2:	461a      	mov	r2, r3
 80077f4:	4623      	mov	r3, r4
 80077f6:	f7f9 f9d7 	bl	8000ba8 <__aeabi_uldivmod>
 80077fa:	4603      	mov	r3, r0
 80077fc:	460c      	mov	r4, r1
 80077fe:	613b      	str	r3, [r7, #16]
        if ((usartdiv >= LPUART_BRR_MIN) && (usartdiv <= LPUART_BRR_MAX))
 8007800:	693b      	ldr	r3, [r7, #16]
 8007802:	f5b3 7f40 	cmp.w	r3, #768	; 0x300
 8007806:	d308      	bcc.n	800781a <UART_SetConfig+0x286>
 8007808:	693b      	ldr	r3, [r7, #16]
 800780a:	f5b3 1f80 	cmp.w	r3, #1048576	; 0x100000
 800780e:	d204      	bcs.n	800781a <UART_SetConfig+0x286>
        {
          huart->Instance->BRR = usartdiv;
 8007810:	687b      	ldr	r3, [r7, #4]
 8007812:	681b      	ldr	r3, [r3, #0]
 8007814:	693a      	ldr	r2, [r7, #16]
 8007816:	60da      	str	r2, [r3, #12]
 8007818:	e0be      	b.n	8007998 <UART_SetConfig+0x404>
        }
        else
        {
          ret = HAL_ERROR;
 800781a:	2301      	movs	r3, #1
 800781c:	76bb      	strb	r3, [r7, #26]
 800781e:	e0bb      	b.n	8007998 <UART_SetConfig+0x404>
      } /* if ( (pclk < (3 * huart->Init.BaudRate) ) || (pclk > (4096 * huart->Init.BaudRate) )) */
#endif /* USART_PRESC_PRESCALER */
    } /* if (pclk != 0) */
  }
  /* Check UART Over Sampling to set Baud Rate Register */
  else if (huart->Init.OverSampling == UART_OVERSAMPLING_8)
 8007820:	687b      	ldr	r3, [r7, #4]
 8007822:	69db      	ldr	r3, [r3, #28]
 8007824:	f5b3 4f00 	cmp.w	r3, #32768	; 0x8000
 8007828:	d169      	bne.n	80078fe <UART_SetConfig+0x36a>
  {
    switch (clocksource)
 800782a:	7efb      	ldrb	r3, [r7, #27]
 800782c:	2b08      	cmp	r3, #8
 800782e:	d835      	bhi.n	800789c <UART_SetConfig+0x308>
 8007830:	a201      	add	r2, pc, #4	; (adr r2, 8007838 <UART_SetConfig+0x2a4>)
 8007832:	f852 f023 	ldr.w	pc, [r2, r3, lsl #2]
 8007836:	bf00      	nop
 8007838:	0800785d 	.word	0x0800785d
 800783c:	08007865 	.word	0x08007865
 8007840:	0800786d 	.word	0x0800786d
 8007844:	0800789d 	.word	0x0800789d
 8007848:	08007873 	.word	0x08007873
 800784c:	0800789d 	.word	0x0800789d
 8007850:	0800789d 	.word	0x0800789d
 8007854:	0800789d 	.word	0x0800789d
 8007858:	0800787b 	.word	0x0800787b
    {
      case UART_CLOCKSOURCE_PCLK1:
        pclk = HAL_RCC_GetPCLK1Freq();
 800785c:	f7fe ff78 	bl	8006750 <HAL_RCC_GetPCLK1Freq>
 8007860:	6178      	str	r0, [r7, #20]
        break;
 8007862:	e020      	b.n	80078a6 <UART_SetConfig+0x312>
      case UART_CLOCKSOURCE_PCLK2:
        pclk = HAL_RCC_GetPCLK2Freq();
 8007864:	f7fe ff8a 	bl	800677c <HAL_RCC_GetPCLK2Freq>
 8007868:	6178      	str	r0, [r7, #20]
        break;
 800786a:	e01c      	b.n	80078a6 <UART_SetConfig+0x312>
      case UART_CLOCKSOURCE_HSI:
        pclk = (uint32_t) HSI_VALUE;
 800786c:	4b0a      	ldr	r3, [pc, #40]	; (8007898 <UART_SetConfig+0x304>)
 800786e:	617b      	str	r3, [r7, #20]
        break;
 8007870:	e019      	b.n	80078a6 <UART_SetConfig+0x312>
      case UART_CLOCKSOURCE_SYSCLK:
        pclk = HAL_RCC_GetSysClockFreq();
 8007872:	f7fe fed7 	bl	8006624 <HAL_RCC_GetSysClockFreq>
 8007876:	6178      	str	r0, [r7, #20]
        break;
 8007878:	e015      	b.n	80078a6 <UART_SetConfig+0x312>
      case UART_CLOCKSOURCE_LSE:
        pclk = (uint32_t) LSE_VALUE;
 800787a:	f44f 4300 	mov.w	r3, #32768	; 0x8000
 800787e:	617b      	str	r3, [r7, #20]
        break;
 8007880:	e011      	b.n	80078a6 <UART_SetConfig+0x312>
 8007882:	bf00      	nop
 8007884:	efff69f3 	.word	0xefff69f3
 8007888:	40008000 	.word	0x40008000
 800788c:	40013800 	.word	0x40013800
 8007890:	40021000 	.word	0x40021000
 8007894:	40004400 	.word	0x40004400
 8007898:	00f42400 	.word	0x00f42400
      default:
        pclk = 0U;
 800789c:	2300      	movs	r3, #0
 800789e:	617b      	str	r3, [r7, #20]
        ret = HAL_ERROR;
 80078a0:	2301      	movs	r3, #1
 80078a2:	76bb      	strb	r3, [r7, #26]
        break;
 80078a4:	bf00      	nop
    }

    /* USARTDIV must be greater than or equal to 0d16 */
    if (pclk != 0U)
 80078a6:	697b      	ldr	r3, [r7, #20]
 80078a8:	2b00      	cmp	r3, #0
 80078aa:	d075      	beq.n	8007998 <UART_SetConfig+0x404>
    {
#if defined(USART_PRESC_PRESCALER)
      usartdiv = (uint16_t)(UART_DIV_SAMPLING8(pclk, huart->Init.BaudRate, huart->Init.ClockPrescaler));
#else
      usartdiv = (uint16_t)(UART_DIV_SAMPLING8(pclk, huart->Init.BaudRate));
 80078ac:	697b      	ldr	r3, [r7, #20]
 80078ae:	005a      	lsls	r2, r3, #1
 80078b0:	687b      	ldr	r3, [r7, #4]
 80078b2:	685b      	ldr	r3, [r3, #4]
 80078b4:	085b      	lsrs	r3, r3, #1
 80078b6:	441a      	add	r2, r3
 80078b8:	687b      	ldr	r3, [r7, #4]
 80078ba:	685b      	ldr	r3, [r3, #4]
 80078bc:	fbb2 f3f3 	udiv	r3, r2, r3
 80078c0:	b29b      	uxth	r3, r3
 80078c2:	613b      	str	r3, [r7, #16]
#endif /* USART_PRESC_PRESCALER */
      if ((usartdiv >= UART_BRR_MIN) && (usartdiv <= UART_BRR_MAX))
 80078c4:	693b      	ldr	r3, [r7, #16]
 80078c6:	2b0f      	cmp	r3, #15
 80078c8:	d916      	bls.n	80078f8 <UART_SetConfig+0x364>
 80078ca:	693b      	ldr	r3, [r7, #16]
 80078cc:	f5b3 3f80 	cmp.w	r3, #65536	; 0x10000
 80078d0:	d212      	bcs.n	80078f8 <UART_SetConfig+0x364>
      {
        brrtemp = (uint16_t)(usartdiv & 0xFFF0U);
 80078d2:	693b      	ldr	r3, [r7, #16]
 80078d4:	b29b      	uxth	r3, r3
 80078d6:	f023 030f 	bic.w	r3, r3, #15
 80078da:	81fb      	strh	r3, [r7, #14]
        brrtemp |= (uint16_t)((usartdiv & (uint16_t)0x000FU) >> 1U);
 80078dc:	693b      	ldr	r3, [r7, #16]
 80078de:	085b      	lsrs	r3, r3, #1
 80078e0:	b29b      	uxth	r3, r3
 80078e2:	f003 0307 	and.w	r3, r3, #7
 80078e6:	b29a      	uxth	r2, r3
 80078e8:	89fb      	ldrh	r3, [r7, #14]
 80078ea:	4313      	orrs	r3, r2
 80078ec:	81fb      	strh	r3, [r7, #14]
        huart->Instance->BRR = brrtemp;
 80078ee:	687b      	ldr	r3, [r7, #4]
 80078f0:	681b      	ldr	r3, [r3, #0]
 80078f2:	89fa      	ldrh	r2, [r7, #14]
 80078f4:	60da      	str	r2, [r3, #12]
 80078f6:	e04f      	b.n	8007998 <UART_SetConfig+0x404>
      }
      else
      {
        ret = HAL_ERROR;
 80078f8:	2301      	movs	r3, #1
 80078fa:	76bb      	strb	r3, [r7, #26]
 80078fc:	e04c      	b.n	8007998 <UART_SetConfig+0x404>
      }
    }
  }
  else
  {
    switch (clocksource)
 80078fe:	7efb      	ldrb	r3, [r7, #27]
 8007900:	2b08      	cmp	r3, #8
 8007902:	d828      	bhi.n	8007956 <UART_SetConfig+0x3c2>
 8007904:	a201      	add	r2, pc, #4	; (adr r2, 800790c <UART_SetConfig+0x378>)
 8007906:	f852 f023 	ldr.w	pc, [r2, r3, lsl #2]
 800790a:	bf00      	nop
 800790c:	08007931 	.word	0x08007931
 8007910:	08007939 	.word	0x08007939
 8007914:	08007941 	.word	0x08007941
 8007918:	08007957 	.word	0x08007957
 800791c:	08007947 	.word	0x08007947
 8007920:	08007957 	.word	0x08007957
 8007924:	08007957 	.word	0x08007957
 8007928:	08007957 	.word	0x08007957
 800792c:	0800794f 	.word	0x0800794f
    {
      case UART_CLOCKSOURCE_PCLK1:
        pclk = HAL_RCC_GetPCLK1Freq();
 8007930:	f7fe ff0e 	bl	8006750 <HAL_RCC_GetPCLK1Freq>
 8007934:	6178      	str	r0, [r7, #20]
        break;
 8007936:	e013      	b.n	8007960 <UART_SetConfig+0x3cc>
      case UART_CLOCKSOURCE_PCLK2:
        pclk = HAL_RCC_GetPCLK2Freq();
 8007938:	f7fe ff20 	bl	800677c <HAL_RCC_GetPCLK2Freq>
 800793c:	6178      	str	r0, [r7, #20]
        break;
 800793e:	e00f      	b.n	8007960 <UART_SetConfig+0x3cc>
      case UART_CLOCKSOURCE_HSI:
        pclk = (uint32_t) HSI_VALUE;
 8007940:	4b1b      	ldr	r3, [pc, #108]	; (80079b0 <UART_SetConfig+0x41c>)
 8007942:	617b      	str	r3, [r7, #20]
        break;
 8007944:	e00c      	b.n	8007960 <UART_SetConfig+0x3cc>
      case UART_CLOCKSOURCE_SYSCLK:
        pclk = HAL_RCC_GetSysClockFreq();
 8007946:	f7fe fe6d 	bl	8006624 <HAL_RCC_GetSysClockFreq>
 800794a:	6178      	str	r0, [r7, #20]
        break;
 800794c:	e008      	b.n	8007960 <UART_SetConfig+0x3cc>
      case UART_CLOCKSOURCE_LSE:
        pclk = (uint32_t) LSE_VALUE;
 800794e:	f44f 4300 	mov.w	r3, #32768	; 0x8000
 8007952:	617b      	str	r3, [r7, #20]
        break;
 8007954:	e004      	b.n	8007960 <UART_SetConfig+0x3cc>
      default:
        pclk = 0U;
 8007956:	2300      	movs	r3, #0
 8007958:	617b      	str	r3, [r7, #20]
        ret = HAL_ERROR;
 800795a:	2301      	movs	r3, #1
 800795c:	76bb      	strb	r3, [r7, #26]
        break;
 800795e:	bf00      	nop
    }

    if (pclk != 0U)
 8007960:	697b      	ldr	r3, [r7, #20]
 8007962:	2b00      	cmp	r3, #0
 8007964:	d018      	beq.n	8007998 <UART_SetConfig+0x404>
    {
      /* USARTDIV must be greater than or equal to 0d16 */
#if defined(USART_PRESC_PRESCALER)
      usartdiv = (uint16_t)(UART_DIV_SAMPLING16(pclk, huart->Init.BaudRate, huart->Init.ClockPrescaler));
#else
      usartdiv = (uint16_t)(UART_DIV_SAMPLING16(pclk, huart->Init.BaudRate));
 8007966:	687b      	ldr	r3, [r7, #4]
 8007968:	685b      	ldr	r3, [r3, #4]
 800796a:	085a      	lsrs	r2, r3, #1
 800796c:	697b      	ldr	r3, [r7, #20]
 800796e:	441a      	add	r2, r3
 8007970:	687b      	ldr	r3, [r7, #4]
 8007972:	685b      	ldr	r3, [r3, #4]
 8007974:	fbb2 f3f3 	udiv	r3, r2, r3
 8007978:	b29b      	uxth	r3, r3
 800797a:	613b      	str	r3, [r7, #16]
#endif /* USART_PRESC_PRESCALER */
      if ((usartdiv >= UART_BRR_MIN) && (usartdiv <= UART_BRR_MAX))
 800797c:	693b      	ldr	r3, [r7, #16]
 800797e:	2b0f      	cmp	r3, #15
 8007980:	d908      	bls.n	8007994 <UART_SetConfig+0x400>
 8007982:	693b      	ldr	r3, [r7, #16]
 8007984:	f5b3 3f80 	cmp.w	r3, #65536	; 0x10000
 8007988:	d204      	bcs.n	8007994 <UART_SetConfig+0x400>
      {
        huart->Instance->BRR = usartdiv;
 800798a:	687b      	ldr	r3, [r7, #4]
 800798c:	681b      	ldr	r3, [r3, #0]
 800798e:	693a      	ldr	r2, [r7, #16]
 8007990:	60da      	str	r2, [r3, #12]
 8007992:	e001      	b.n	8007998 <UART_SetConfig+0x404>
      }
      else
      {
        ret = HAL_ERROR;
 8007994:	2301      	movs	r3, #1
 8007996:	76bb      	strb	r3, [r7, #26]
  huart->NbTxDataToProcess = 1;
  huart->NbRxDataToProcess = 1;
#endif /* USART_CR1_FIFOEN */

  /* Clear ISR function pointers */
  huart->RxISR = NULL;
 8007998:	687b      	ldr	r3, [r7, #4]
 800799a:	2200      	movs	r2, #0
 800799c:	661a      	str	r2, [r3, #96]	; 0x60
  huart->TxISR = NULL;
 800799e:	687b      	ldr	r3, [r7, #4]
 80079a0:	2200      	movs	r2, #0
 80079a2:	665a      	str	r2, [r3, #100]	; 0x64

  return ret;
 80079a4:	7ebb      	ldrb	r3, [r7, #26]
}
 80079a6:	4618      	mov	r0, r3
 80079a8:	3720      	adds	r7, #32
 80079aa:	46bd      	mov	sp, r7
 80079ac:	e8bd 8890 	ldmia.w	sp!, {r4, r7, fp, pc}
 80079b0:	00f42400 	.word	0x00f42400

080079b4 <UART_AdvFeatureConfig>:
  * @brief Configure the UART peripheral advanced features.
  * @param huart UART handle.
  * @retval None
  */
void UART_AdvFeatureConfig(UART_HandleTypeDef *huart)
{
 80079b4:	b480      	push	{r7}
 80079b6:	b083      	sub	sp, #12
 80079b8:	af00      	add	r7, sp, #0
 80079ba:	6078      	str	r0, [r7, #4]
  /* Check whether the set of advanced features to configure is properly set */
  assert_param(IS_UART_ADVFEATURE_INIT(huart->AdvancedInit.AdvFeatureInit));

  /* if required, configure TX pin active level inversion */
  if (HAL_IS_BIT_SET(huart->AdvancedInit.AdvFeatureInit, UART_ADVFEATURE_TXINVERT_INIT))
 80079bc:	687b      	ldr	r3, [r7, #4]
 80079be:	6a5b      	ldr	r3, [r3, #36]	; 0x24
 80079c0:	f003 0301 	and.w	r3, r3, #1
 80079c4:	2b00      	cmp	r3, #0
 80079c6:	d00a      	beq.n	80079de <UART_AdvFeatureConfig+0x2a>
  {
    assert_param(IS_UART_ADVFEATURE_TXINV(huart->AdvancedInit.TxPinLevelInvert));
    MODIFY_REG(huart->Instance->CR2, USART_CR2_TXINV, huart->AdvancedInit.TxPinLevelInvert);
 80079c8:	687b      	ldr	r3, [r7, #4]
 80079ca:	681b      	ldr	r3, [r3, #0]
 80079cc:	685b      	ldr	r3, [r3, #4]
 80079ce:	f423 3100 	bic.w	r1, r3, #131072	; 0x20000
 80079d2:	687b      	ldr	r3, [r7, #4]
 80079d4:	6a9a      	ldr	r2, [r3, #40]	; 0x28
 80079d6:	687b      	ldr	r3, [r7, #4]
 80079d8:	681b      	ldr	r3, [r3, #0]
 80079da:	430a      	orrs	r2, r1
 80079dc:	605a      	str	r2, [r3, #4]
  }

  /* if required, configure RX pin active level inversion */
  if (HAL_IS_BIT_SET(huart->AdvancedInit.AdvFeatureInit, UART_ADVFEATURE_RXINVERT_INIT))
 80079de:	687b      	ldr	r3, [r7, #4]
 80079e0:	6a5b      	ldr	r3, [r3, #36]	; 0x24
 80079e2:	f003 0302 	and.w	r3, r3, #2
 80079e6:	2b00      	cmp	r3, #0
 80079e8:	d00a      	beq.n	8007a00 <UART_AdvFeatureConfig+0x4c>
  {
    assert_param(IS_UART_ADVFEATURE_RXINV(huart->AdvancedInit.RxPinLevelInvert));
    MODIFY_REG(huart->Instance->CR2, USART_CR2_RXINV, huart->AdvancedInit.RxPinLevelInvert);
 80079ea:	687b      	ldr	r3, [r7, #4]
 80079ec:	681b      	ldr	r3, [r3, #0]
 80079ee:	685b      	ldr	r3, [r3, #4]
 80079f0:	f423 3180 	bic.w	r1, r3, #65536	; 0x10000
 80079f4:	687b      	ldr	r3, [r7, #4]
 80079f6:	6ada      	ldr	r2, [r3, #44]	; 0x2c
 80079f8:	687b      	ldr	r3, [r7, #4]
 80079fa:	681b      	ldr	r3, [r3, #0]
 80079fc:	430a      	orrs	r2, r1
 80079fe:	605a      	str	r2, [r3, #4]
  }

  /* if required, configure data inversion */
  if (HAL_IS_BIT_SET(huart->AdvancedInit.AdvFeatureInit, UART_ADVFEATURE_DATAINVERT_INIT))
 8007a00:	687b      	ldr	r3, [r7, #4]
 8007a02:	6a5b      	ldr	r3, [r3, #36]	; 0x24
 8007a04:	f003 0304 	and.w	r3, r3, #4
 8007a08:	2b00      	cmp	r3, #0
 8007a0a:	d00a      	beq.n	8007a22 <UART_AdvFeatureConfig+0x6e>
  {
    assert_param(IS_UART_ADVFEATURE_DATAINV(huart->AdvancedInit.DataInvert));
    MODIFY_REG(huart->Instance->CR2, USART_CR2_DATAINV, huart->AdvancedInit.DataInvert);
 8007a0c:	687b      	ldr	r3, [r7, #4]
 8007a0e:	681b      	ldr	r3, [r3, #0]
 8007a10:	685b      	ldr	r3, [r3, #4]
 8007a12:	f423 2180 	bic.w	r1, r3, #262144	; 0x40000
 8007a16:	687b      	ldr	r3, [r7, #4]
 8007a18:	6b1a      	ldr	r2, [r3, #48]	; 0x30
 8007a1a:	687b      	ldr	r3, [r7, #4]
 8007a1c:	681b      	ldr	r3, [r3, #0]
 8007a1e:	430a      	orrs	r2, r1
 8007a20:	605a      	str	r2, [r3, #4]
  }

  /* if required, configure RX/TX pins swap */
  if (HAL_IS_BIT_SET(huart->AdvancedInit.AdvFeatureInit, UART_ADVFEATURE_SWAP_INIT))
 8007a22:	687b      	ldr	r3, [r7, #4]
 8007a24:	6a5b      	ldr	r3, [r3, #36]	; 0x24
 8007a26:	f003 0308 	and.w	r3, r3, #8
 8007a2a:	2b00      	cmp	r3, #0
 8007a2c:	d00a      	beq.n	8007a44 <UART_AdvFeatureConfig+0x90>
  {
    assert_param(IS_UART_ADVFEATURE_SWAP(huart->AdvancedInit.Swap));
    MODIFY_REG(huart->Instance->CR2, USART_CR2_SWAP, huart->AdvancedInit.Swap);
 8007a2e:	687b      	ldr	r3, [r7, #4]
 8007a30:	681b      	ldr	r3, [r3, #0]
 8007a32:	685b      	ldr	r3, [r3, #4]
 8007a34:	f423 4100 	bic.w	r1, r3, #32768	; 0x8000
 8007a38:	687b      	ldr	r3, [r7, #4]
 8007a3a:	6b5a      	ldr	r2, [r3, #52]	; 0x34
 8007a3c:	687b      	ldr	r3, [r7, #4]
 8007a3e:	681b      	ldr	r3, [r3, #0]
 8007a40:	430a      	orrs	r2, r1
 8007a42:	605a      	str	r2, [r3, #4]
  }

  /* if required, configure RX overrun detection disabling */
  if (HAL_IS_BIT_SET(huart->AdvancedInit.AdvFeatureInit, UART_ADVFEATURE_RXOVERRUNDISABLE_INIT))
 8007a44:	687b      	ldr	r3, [r7, #4]
 8007a46:	6a5b      	ldr	r3, [r3, #36]	; 0x24
 8007a48:	f003 0310 	and.w	r3, r3, #16
 8007a4c:	2b00      	cmp	r3, #0
 8007a4e:	d00a      	beq.n	8007a66 <UART_AdvFeatureConfig+0xb2>
  {
    assert_param(IS_UART_OVERRUN(huart->AdvancedInit.OverrunDisable));
    MODIFY_REG(huart->Instance->CR3, USART_CR3_OVRDIS, huart->AdvancedInit.OverrunDisable);
 8007a50:	687b      	ldr	r3, [r7, #4]
 8007a52:	681b      	ldr	r3, [r3, #0]
 8007a54:	689b      	ldr	r3, [r3, #8]
 8007a56:	f423 5180 	bic.w	r1, r3, #4096	; 0x1000
 8007a5a:	687b      	ldr	r3, [r7, #4]
 8007a5c:	6b9a      	ldr	r2, [r3, #56]	; 0x38
 8007a5e:	687b      	ldr	r3, [r7, #4]
 8007a60:	681b      	ldr	r3, [r3, #0]
 8007a62:	430a      	orrs	r2, r1
 8007a64:	609a      	str	r2, [r3, #8]
  }

  /* if required, configure DMA disabling on reception error */
  if (HAL_IS_BIT_SET(huart->AdvancedInit.AdvFeatureInit, UART_ADVFEATURE_DMADISABLEONERROR_INIT))
 8007a66:	687b      	ldr	r3, [r7, #4]
 8007a68:	6a5b      	ldr	r3, [r3, #36]	; 0x24
 8007a6a:	f003 0320 	and.w	r3, r3, #32
 8007a6e:	2b00      	cmp	r3, #0
 8007a70:	d00a      	beq.n	8007a88 <UART_AdvFeatureConfig+0xd4>
  {
    assert_param(IS_UART_ADVFEATURE_DMAONRXERROR(huart->AdvancedInit.DMADisableonRxError));
    MODIFY_REG(huart->Instance->CR3, USART_CR3_DDRE, huart->AdvancedInit.DMADisableonRxError);
 8007a72:	687b      	ldr	r3, [r7, #4]
 8007a74:	681b      	ldr	r3, [r3, #0]
 8007a76:	689b      	ldr	r3, [r3, #8]
 8007a78:	f423 5100 	bic.w	r1, r3, #8192	; 0x2000
 8007a7c:	687b      	ldr	r3, [r7, #4]
 8007a7e:	6bda      	ldr	r2, [r3, #60]	; 0x3c
 8007a80:	687b      	ldr	r3, [r7, #4]
 8007a82:	681b      	ldr	r3, [r3, #0]
 8007a84:	430a      	orrs	r2, r1
 8007a86:	609a      	str	r2, [r3, #8]
  }

  /* if required, configure auto Baud rate detection scheme */
  if (HAL_IS_BIT_SET(huart->AdvancedInit.AdvFeatureInit, UART_ADVFEATURE_AUTOBAUDRATE_INIT))
 8007a88:	687b      	ldr	r3, [r7, #4]
 8007a8a:	6a5b      	ldr	r3, [r3, #36]	; 0x24
 8007a8c:	f003 0340 	and.w	r3, r3, #64	; 0x40
 8007a90:	2b00      	cmp	r3, #0
 8007a92:	d01a      	beq.n	8007aca <UART_AdvFeatureConfig+0x116>
  {
    assert_param(IS_USART_AUTOBAUDRATE_DETECTION_INSTANCE(huart->Instance));
    assert_param(IS_UART_ADVFEATURE_AUTOBAUDRATE(huart->AdvancedInit.AutoBaudRateEnable));
    MODIFY_REG(huart->Instance->CR2, USART_CR2_ABREN, huart->AdvancedInit.AutoBaudRateEnable);
 8007a94:	687b      	ldr	r3, [r7, #4]
 8007a96:	681b      	ldr	r3, [r3, #0]
 8007a98:	685b      	ldr	r3, [r3, #4]
 8007a9a:	f423 1180 	bic.w	r1, r3, #1048576	; 0x100000
 8007a9e:	687b      	ldr	r3, [r7, #4]
 8007aa0:	6c1a      	ldr	r2, [r3, #64]	; 0x40
 8007aa2:	687b      	ldr	r3, [r7, #4]
 8007aa4:	681b      	ldr	r3, [r3, #0]
 8007aa6:	430a      	orrs	r2, r1
 8007aa8:	605a      	str	r2, [r3, #4]
    /* set auto Baudrate detection parameters if detection is enabled */
    if (huart->AdvancedInit.AutoBaudRateEnable == UART_ADVFEATURE_AUTOBAUDRATE_ENABLE)
 8007aaa:	687b      	ldr	r3, [r7, #4]
 8007aac:	6c1b      	ldr	r3, [r3, #64]	; 0x40
 8007aae:	f5b3 1f80 	cmp.w	r3, #1048576	; 0x100000
 8007ab2:	d10a      	bne.n	8007aca <UART_AdvFeatureConfig+0x116>
    {
      assert_param(IS_UART_ADVFEATURE_AUTOBAUDRATEMODE(huart->AdvancedInit.AutoBaudRateMode));
      MODIFY_REG(huart->Instance->CR2, USART_CR2_ABRMODE, huart->AdvancedInit.AutoBaudRateMode);
 8007ab4:	687b      	ldr	r3, [r7, #4]
 8007ab6:	681b      	ldr	r3, [r3, #0]
 8007ab8:	685b      	ldr	r3, [r3, #4]
 8007aba:	f423 01c0 	bic.w	r1, r3, #6291456	; 0x600000
 8007abe:	687b      	ldr	r3, [r7, #4]
 8007ac0:	6c5a      	ldr	r2, [r3, #68]	; 0x44
 8007ac2:	687b      	ldr	r3, [r7, #4]
 8007ac4:	681b      	ldr	r3, [r3, #0]
 8007ac6:	430a      	orrs	r2, r1
 8007ac8:	605a      	str	r2, [r3, #4]
    }
  }

  /* if required, configure MSB first on communication line */
  if (HAL_IS_BIT_SET(huart->AdvancedInit.AdvFeatureInit, UART_ADVFEATURE_MSBFIRST_INIT))
 8007aca:	687b      	ldr	r3, [r7, #4]
 8007acc:	6a5b      	ldr	r3, [r3, #36]	; 0x24
 8007ace:	f003 0380 	and.w	r3, r3, #128	; 0x80
 8007ad2:	2b00      	cmp	r3, #0
 8007ad4:	d00a      	beq.n	8007aec <UART_AdvFeatureConfig+0x138>
  {
    assert_param(IS_UART_ADVFEATURE_MSBFIRST(huart->AdvancedInit.MSBFirst));
    MODIFY_REG(huart->Instance->CR2, USART_CR2_MSBFIRST, huart->AdvancedInit.MSBFirst);
 8007ad6:	687b      	ldr	r3, [r7, #4]
 8007ad8:	681b      	ldr	r3, [r3, #0]
 8007ada:	685b      	ldr	r3, [r3, #4]
 8007adc:	f423 2100 	bic.w	r1, r3, #524288	; 0x80000
 8007ae0:	687b      	ldr	r3, [r7, #4]
 8007ae2:	6c9a      	ldr	r2, [r3, #72]	; 0x48
 8007ae4:	687b      	ldr	r3, [r7, #4]
 8007ae6:	681b      	ldr	r3, [r3, #0]
 8007ae8:	430a      	orrs	r2, r1
 8007aea:	605a      	str	r2, [r3, #4]
  }
}
 8007aec:	bf00      	nop
 8007aee:	370c      	adds	r7, #12
 8007af0:	46bd      	mov	sp, r7
 8007af2:	f85d 7b04 	ldr.w	r7, [sp], #4
 8007af6:	4770      	bx	lr

08007af8 <UART_CheckIdleState>:
  * @brief Check the UART Idle State.
  * @param huart UART handle.
  * @retval HAL status
  */
HAL_StatusTypeDef UART_CheckIdleState(UART_HandleTypeDef *huart)
{
 8007af8:	b580      	push	{r7, lr}
 8007afa:	b086      	sub	sp, #24
 8007afc:	af02      	add	r7, sp, #8
 8007afe:	6078      	str	r0, [r7, #4]
  uint32_t tickstart;

  /* Initialize the UART ErrorCode */
  huart->ErrorCode = HAL_UART_ERROR_NONE;
 8007b00:	687b      	ldr	r3, [r7, #4]
 8007b02:	2200      	movs	r2, #0
 8007b04:	67da      	str	r2, [r3, #124]	; 0x7c

  /* Init tickstart for timeout managment*/
  tickstart = HAL_GetTick();
 8007b06:	f7fb fb43 	bl	8003190 <HAL_GetTick>
 8007b0a:	60f8      	str	r0, [r7, #12]

  /* Check if the Transmitter is enabled */
  if ((huart->Instance->CR1 & USART_CR1_TE) == USART_CR1_TE)
 8007b0c:	687b      	ldr	r3, [r7, #4]
 8007b0e:	681b      	ldr	r3, [r3, #0]
 8007b10:	681b      	ldr	r3, [r3, #0]
 8007b12:	f003 0308 	and.w	r3, r3, #8
 8007b16:	2b08      	cmp	r3, #8
 8007b18:	d10e      	bne.n	8007b38 <UART_CheckIdleState+0x40>
  {
    /* Wait until TEACK flag is set */
    if (UART_WaitOnFlagUntilTimeout(huart, USART_ISR_TEACK, RESET, tickstart, HAL_UART_TIMEOUT_VALUE) != HAL_OK)
 8007b1a:	f06f 437e 	mvn.w	r3, #4261412864	; 0xfe000000
 8007b1e:	9300      	str	r3, [sp, #0]
 8007b20:	68fb      	ldr	r3, [r7, #12]
 8007b22:	2200      	movs	r2, #0
 8007b24:	f44f 1100 	mov.w	r1, #2097152	; 0x200000
 8007b28:	6878      	ldr	r0, [r7, #4]
 8007b2a:	f000 f82a 	bl	8007b82 <UART_WaitOnFlagUntilTimeout>
 8007b2e:	4603      	mov	r3, r0
 8007b30:	2b00      	cmp	r3, #0
 8007b32:	d001      	beq.n	8007b38 <UART_CheckIdleState+0x40>
    {
      /* Timeout occurred */
      return HAL_TIMEOUT;
 8007b34:	2303      	movs	r3, #3
 8007b36:	e020      	b.n	8007b7a <UART_CheckIdleState+0x82>
    }
  }

  /* Check if the Receiver is enabled */
  if ((huart->Instance->CR1 & USART_CR1_RE) == USART_CR1_RE)
 8007b38:	687b      	ldr	r3, [r7, #4]
 8007b3a:	681b      	ldr	r3, [r3, #0]
 8007b3c:	681b      	ldr	r3, [r3, #0]
 8007b3e:	f003 0304 	and.w	r3, r3, #4
 8007b42:	2b04      	cmp	r3, #4
 8007b44:	d10e      	bne.n	8007b64 <UART_CheckIdleState+0x6c>
  {
    /* Wait until REACK flag is set */
    if (UART_WaitOnFlagUntilTimeout(huart, USART_ISR_REACK, RESET, tickstart, HAL_UART_TIMEOUT_VALUE) != HAL_OK)
 8007b46:	f06f 437e 	mvn.w	r3, #4261412864	; 0xfe000000
 8007b4a:	9300      	str	r3, [sp, #0]
 8007b4c:	68fb      	ldr	r3, [r7, #12]
 8007b4e:	2200      	movs	r2, #0
 8007b50:	f44f 0180 	mov.w	r1, #4194304	; 0x400000
 8007b54:	6878      	ldr	r0, [r7, #4]
 8007b56:	f000 f814 	bl	8007b82 <UART_WaitOnFlagUntilTimeout>
 8007b5a:	4603      	mov	r3, r0
 8007b5c:	2b00      	cmp	r3, #0
 8007b5e:	d001      	beq.n	8007b64 <UART_CheckIdleState+0x6c>
    {
      /* Timeout occurred */
      return HAL_TIMEOUT;
 8007b60:	2303      	movs	r3, #3
 8007b62:	e00a      	b.n	8007b7a <UART_CheckIdleState+0x82>
    }
  }

  /* Initialize the UART State */
  huart->gState = HAL_UART_STATE_READY;
 8007b64:	687b      	ldr	r3, [r7, #4]
 8007b66:	2220      	movs	r2, #32
 8007b68:	675a      	str	r2, [r3, #116]	; 0x74
  huart->RxState = HAL_UART_STATE_READY;
 8007b6a:	687b      	ldr	r3, [r7, #4]
 8007b6c:	2220      	movs	r2, #32
 8007b6e:	679a      	str	r2, [r3, #120]	; 0x78

  __HAL_UNLOCK(huart);
 8007b70:	687b      	ldr	r3, [r7, #4]
 8007b72:	2200      	movs	r2, #0
 8007b74:	f883 2070 	strb.w	r2, [r3, #112]	; 0x70

  return HAL_OK;
 8007b78:	2300      	movs	r3, #0
}
 8007b7a:	4618      	mov	r0, r3
 8007b7c:	3710      	adds	r7, #16
 8007b7e:	46bd      	mov	sp, r7
 8007b80:	bd80      	pop	{r7, pc}

08007b82 <UART_WaitOnFlagUntilTimeout>:
  * @param Timeout   Timeout duration
  * @retval HAL status
  */
HAL_StatusTypeDef UART_WaitOnFlagUntilTimeout(UART_HandleTypeDef *huart, uint32_t Flag, FlagStatus Status,
                                              uint32_t Tickstart, uint32_t Timeout)
{
 8007b82:	b580      	push	{r7, lr}
 8007b84:	b084      	sub	sp, #16
 8007b86:	af00      	add	r7, sp, #0
 8007b88:	60f8      	str	r0, [r7, #12]
 8007b8a:	60b9      	str	r1, [r7, #8]
 8007b8c:	603b      	str	r3, [r7, #0]
 8007b8e:	4613      	mov	r3, r2
 8007b90:	71fb      	strb	r3, [r7, #7]
  /* Wait until flag is set */
  while ((__HAL_UART_GET_FLAG(huart, Flag) ? SET : RESET) == Status)
 8007b92:	e05d      	b.n	8007c50 <UART_WaitOnFlagUntilTimeout+0xce>
  {
    /* Check for the Timeout */
    if (Timeout != HAL_MAX_DELAY)
 8007b94:	69bb      	ldr	r3, [r7, #24]
 8007b96:	f1b3 3fff 	cmp.w	r3, #4294967295	; 0xffffffff
 8007b9a:	d059      	beq.n	8007c50 <UART_WaitOnFlagUntilTimeout+0xce>
    {
      if (((HAL_GetTick() - Tickstart) > Timeout) || (Timeout == 0U))
 8007b9c:	f7fb faf8 	bl	8003190 <HAL_GetTick>
 8007ba0:	4602      	mov	r2, r0
 8007ba2:	683b      	ldr	r3, [r7, #0]
 8007ba4:	1ad3      	subs	r3, r2, r3
 8007ba6:	69ba      	ldr	r2, [r7, #24]
 8007ba8:	429a      	cmp	r2, r3
 8007baa:	d302      	bcc.n	8007bb2 <UART_WaitOnFlagUntilTimeout+0x30>
 8007bac:	69bb      	ldr	r3, [r7, #24]
 8007bae:	2b00      	cmp	r3, #0
 8007bb0:	d11b      	bne.n	8007bea <UART_WaitOnFlagUntilTimeout+0x68>
      {
        /* Disable TXE, RXNE, PE and ERR (Frame error, noise error, overrun error) interrupts for the interrupt process */
#if defined(USART_CR1_FIFOEN)
        CLEAR_BIT(huart->Instance->CR1, (USART_CR1_RXNEIE_RXFNEIE | USART_CR1_PEIE | USART_CR1_TXEIE_TXFNFIE));
#else
        CLEAR_BIT(huart->Instance->CR1, (USART_CR1_RXNEIE | USART_CR1_PEIE | USART_CR1_TXEIE));
 8007bb2:	68fb      	ldr	r3, [r7, #12]
 8007bb4:	681b      	ldr	r3, [r3, #0]
 8007bb6:	681a      	ldr	r2, [r3, #0]
 8007bb8:	68fb      	ldr	r3, [r7, #12]
 8007bba:	681b      	ldr	r3, [r3, #0]
 8007bbc:	f422 72d0 	bic.w	r2, r2, #416	; 0x1a0
 8007bc0:	601a      	str	r2, [r3, #0]
#endif /* USART_CR1_FIFOEN */
        CLEAR_BIT(huart->Instance->CR3, USART_CR3_EIE);
 8007bc2:	68fb      	ldr	r3, [r7, #12]
 8007bc4:	681b      	ldr	r3, [r3, #0]
 8007bc6:	689a      	ldr	r2, [r3, #8]
 8007bc8:	68fb      	ldr	r3, [r7, #12]
 8007bca:	681b      	ldr	r3, [r3, #0]
 8007bcc:	f022 0201 	bic.w	r2, r2, #1
 8007bd0:	609a      	str	r2, [r3, #8]

        huart->gState = HAL_UART_STATE_READY;
 8007bd2:	68fb      	ldr	r3, [r7, #12]
 8007bd4:	2220      	movs	r2, #32
 8007bd6:	675a      	str	r2, [r3, #116]	; 0x74
        huart->RxState = HAL_UART_STATE_READY;
 8007bd8:	68fb      	ldr	r3, [r7, #12]
 8007bda:	2220      	movs	r2, #32
 8007bdc:	679a      	str	r2, [r3, #120]	; 0x78

        __HAL_UNLOCK(huart);
 8007bde:	68fb      	ldr	r3, [r7, #12]
 8007be0:	2200      	movs	r2, #0
 8007be2:	f883 2070 	strb.w	r2, [r3, #112]	; 0x70

        return HAL_TIMEOUT;
 8007be6:	2303      	movs	r3, #3
 8007be8:	e042      	b.n	8007c70 <UART_WaitOnFlagUntilTimeout+0xee>
      }

      if (READ_BIT(huart->Instance->CR1, USART_CR1_RE) != 0U)
 8007bea:	68fb      	ldr	r3, [r7, #12]
 8007bec:	681b      	ldr	r3, [r3, #0]
 8007bee:	681b      	ldr	r3, [r3, #0]
 8007bf0:	f003 0304 	and.w	r3, r3, #4
 8007bf4:	2b00      	cmp	r3, #0
 8007bf6:	d02b      	beq.n	8007c50 <UART_WaitOnFlagUntilTimeout+0xce>
      {
        if (__HAL_UART_GET_FLAG(huart, UART_FLAG_RTOF) == SET)
 8007bf8:	68fb      	ldr	r3, [r7, #12]
 8007bfa:	681b      	ldr	r3, [r3, #0]
 8007bfc:	69db      	ldr	r3, [r3, #28]
 8007bfe:	f403 6300 	and.w	r3, r3, #2048	; 0x800
 8007c02:	f5b3 6f00 	cmp.w	r3, #2048	; 0x800
 8007c06:	d123      	bne.n	8007c50 <UART_WaitOnFlagUntilTimeout+0xce>
        {
          /* Clear Receiver Timeout flag*/
          __HAL_UART_CLEAR_FLAG(huart, UART_CLEAR_RTOF);
 8007c08:	68fb      	ldr	r3, [r7, #12]
 8007c0a:	681b      	ldr	r3, [r3, #0]
 8007c0c:	f44f 6200 	mov.w	r2, #2048	; 0x800
 8007c10:	621a      	str	r2, [r3, #32]

          /* Disable TXE, RXNE, PE and ERR (Frame error, noise error, overrun error) interrupts for the interrupt process */
#if defined(USART_CR1_FIFOEN)
          CLEAR_BIT(huart->Instance->CR1, (USART_CR1_RXNEIE_RXFNEIE | USART_CR1_PEIE | USART_CR1_TXEIE_TXFNFIE));
#else
          CLEAR_BIT(huart->Instance->CR1, (USART_CR1_RXNEIE | USART_CR1_PEIE | USART_CR1_TXEIE));
 8007c12:	68fb      	ldr	r3, [r7, #12]
 8007c14:	681b      	ldr	r3, [r3, #0]
 8007c16:	681a      	ldr	r2, [r3, #0]
 8007c18:	68fb      	ldr	r3, [r7, #12]
 8007c1a:	681b      	ldr	r3, [r3, #0]
 8007c1c:	f422 72d0 	bic.w	r2, r2, #416	; 0x1a0
 8007c20:	601a      	str	r2, [r3, #0]
#endif
          CLEAR_BIT(huart->Instance->CR3, USART_CR3_EIE);
 8007c22:	68fb      	ldr	r3, [r7, #12]
 8007c24:	681b      	ldr	r3, [r3, #0]
 8007c26:	689a      	ldr	r2, [r3, #8]
 8007c28:	68fb      	ldr	r3, [r7, #12]
 8007c2a:	681b      	ldr	r3, [r3, #0]
 8007c2c:	f022 0201 	bic.w	r2, r2, #1
 8007c30:	609a      	str	r2, [r3, #8]

          huart->gState = HAL_UART_STATE_READY;
 8007c32:	68fb      	ldr	r3, [r7, #12]
 8007c34:	2220      	movs	r2, #32
 8007c36:	675a      	str	r2, [r3, #116]	; 0x74
          huart->RxState = HAL_UART_STATE_READY;
 8007c38:	68fb      	ldr	r3, [r7, #12]
 8007c3a:	2220      	movs	r2, #32
 8007c3c:	679a      	str	r2, [r3, #120]	; 0x78
          huart->ErrorCode = HAL_UART_ERROR_RTO;
 8007c3e:	68fb      	ldr	r3, [r7, #12]
 8007c40:	2220      	movs	r2, #32
 8007c42:	67da      	str	r2, [r3, #124]	; 0x7c

          /* Process Unlocked */
          __HAL_UNLOCK(huart);
 8007c44:	68fb      	ldr	r3, [r7, #12]
 8007c46:	2200      	movs	r2, #0
 8007c48:	f883 2070 	strb.w	r2, [r3, #112]	; 0x70

          return HAL_TIMEOUT;
 8007c4c:	2303      	movs	r3, #3
 8007c4e:	e00f      	b.n	8007c70 <UART_WaitOnFlagUntilTimeout+0xee>
  while ((__HAL_UART_GET_FLAG(huart, Flag) ? SET : RESET) == Status)
 8007c50:	68fb      	ldr	r3, [r7, #12]
 8007c52:	681b      	ldr	r3, [r3, #0]
 8007c54:	69da      	ldr	r2, [r3, #28]
 8007c56:	68bb      	ldr	r3, [r7, #8]
 8007c58:	4013      	ands	r3, r2
 8007c5a:	68ba      	ldr	r2, [r7, #8]
 8007c5c:	429a      	cmp	r2, r3
 8007c5e:	bf0c      	ite	eq
 8007c60:	2301      	moveq	r3, #1
 8007c62:	2300      	movne	r3, #0
 8007c64:	b2db      	uxtb	r3, r3
 8007c66:	461a      	mov	r2, r3
 8007c68:	79fb      	ldrb	r3, [r7, #7]
 8007c6a:	429a      	cmp	r2, r3
 8007c6c:	d092      	beq.n	8007b94 <UART_WaitOnFlagUntilTimeout+0x12>
        }
      }
    }
  }
  return HAL_OK;
 8007c6e:	2300      	movs	r3, #0
}
 8007c70:	4618      	mov	r0, r3
 8007c72:	3710      	adds	r7, #16
 8007c74:	46bd      	mov	sp, r7
 8007c76:	bd80      	pop	{r7, pc}

08007c78 <__errno>:
 8007c78:	4b01      	ldr	r3, [pc, #4]	; (8007c80 <__errno+0x8>)
 8007c7a:	6818      	ldr	r0, [r3, #0]
 8007c7c:	4770      	bx	lr
 8007c7e:	bf00      	nop
 8007c80:	200007e4 	.word	0x200007e4

08007c84 <__libc_init_array>:
 8007c84:	b570      	push	{r4, r5, r6, lr}
 8007c86:	4e0d      	ldr	r6, [pc, #52]	; (8007cbc <__libc_init_array+0x38>)
 8007c88:	4c0d      	ldr	r4, [pc, #52]	; (8007cc0 <__libc_init_array+0x3c>)
 8007c8a:	1ba4      	subs	r4, r4, r6
 8007c8c:	10a4      	asrs	r4, r4, #2
 8007c8e:	2500      	movs	r5, #0
 8007c90:	42a5      	cmp	r5, r4
 8007c92:	d109      	bne.n	8007ca8 <__libc_init_array+0x24>
 8007c94:	4e0b      	ldr	r6, [pc, #44]	; (8007cc4 <__libc_init_array+0x40>)
 8007c96:	4c0c      	ldr	r4, [pc, #48]	; (8007cc8 <__libc_init_array+0x44>)
 8007c98:	f002 fd6e 	bl	800a778 <_init>
 8007c9c:	1ba4      	subs	r4, r4, r6
 8007c9e:	10a4      	asrs	r4, r4, #2
 8007ca0:	2500      	movs	r5, #0
 8007ca2:	42a5      	cmp	r5, r4
 8007ca4:	d105      	bne.n	8007cb2 <__libc_init_array+0x2e>
 8007ca6:	bd70      	pop	{r4, r5, r6, pc}
 8007ca8:	f856 3025 	ldr.w	r3, [r6, r5, lsl #2]
 8007cac:	4798      	blx	r3
 8007cae:	3501      	adds	r5, #1
 8007cb0:	e7ee      	b.n	8007c90 <__libc_init_array+0xc>
 8007cb2:	f856 3025 	ldr.w	r3, [r6, r5, lsl #2]
 8007cb6:	4798      	blx	r3
 8007cb8:	3501      	adds	r5, #1
 8007cba:	e7f2      	b.n	8007ca2 <__libc_init_array+0x1e>
 8007cbc:	0800bb48 	.word	0x0800bb48
 8007cc0:	0800bb48 	.word	0x0800bb48
 8007cc4:	0800bb48 	.word	0x0800bb48
 8007cc8:	0800bb4c 	.word	0x0800bb4c

08007ccc <memset>:
 8007ccc:	4402      	add	r2, r0
 8007cce:	4603      	mov	r3, r0
 8007cd0:	4293      	cmp	r3, r2
 8007cd2:	d100      	bne.n	8007cd6 <memset+0xa>
 8007cd4:	4770      	bx	lr
 8007cd6:	f803 1b01 	strb.w	r1, [r3], #1
 8007cda:	e7f9      	b.n	8007cd0 <memset+0x4>

08007cdc <__cvt>:
 8007cdc:	e92d 47ff 	stmdb	sp!, {r0, r1, r2, r3, r4, r5, r6, r7, r8, r9, sl, lr}
 8007ce0:	ec55 4b10 	vmov	r4, r5, d0
 8007ce4:	9f0d      	ldr	r7, [sp, #52]	; 0x34
 8007ce6:	f8dd a030 	ldr.w	sl, [sp, #48]	; 0x30
 8007cea:	2d00      	cmp	r5, #0
 8007cec:	460e      	mov	r6, r1
 8007cee:	4691      	mov	r9, r2
 8007cf0:	4619      	mov	r1, r3
 8007cf2:	bfb8      	it	lt
 8007cf4:	4622      	movlt	r2, r4
 8007cf6:	462b      	mov	r3, r5
 8007cf8:	f027 0720 	bic.w	r7, r7, #32
 8007cfc:	bfbb      	ittet	lt
 8007cfe:	f105 4300 	addlt.w	r3, r5, #2147483648	; 0x80000000
 8007d02:	461d      	movlt	r5, r3
 8007d04:	2300      	movge	r3, #0
 8007d06:	232d      	movlt	r3, #45	; 0x2d
 8007d08:	bfb8      	it	lt
 8007d0a:	4614      	movlt	r4, r2
 8007d0c:	2f46      	cmp	r7, #70	; 0x46
 8007d0e:	700b      	strb	r3, [r1, #0]
 8007d10:	d004      	beq.n	8007d1c <__cvt+0x40>
 8007d12:	2f45      	cmp	r7, #69	; 0x45
 8007d14:	d100      	bne.n	8007d18 <__cvt+0x3c>
 8007d16:	3601      	adds	r6, #1
 8007d18:	2102      	movs	r1, #2
 8007d1a:	e000      	b.n	8007d1e <__cvt+0x42>
 8007d1c:	2103      	movs	r1, #3
 8007d1e:	ab03      	add	r3, sp, #12
 8007d20:	9301      	str	r3, [sp, #4]
 8007d22:	ab02      	add	r3, sp, #8
 8007d24:	9300      	str	r3, [sp, #0]
 8007d26:	4632      	mov	r2, r6
 8007d28:	4653      	mov	r3, sl
 8007d2a:	ec45 4b10 	vmov	d0, r4, r5
 8007d2e:	f000 fe23 	bl	8008978 <_dtoa_r>
 8007d32:	2f47      	cmp	r7, #71	; 0x47
 8007d34:	4680      	mov	r8, r0
 8007d36:	d102      	bne.n	8007d3e <__cvt+0x62>
 8007d38:	f019 0f01 	tst.w	r9, #1
 8007d3c:	d026      	beq.n	8007d8c <__cvt+0xb0>
 8007d3e:	2f46      	cmp	r7, #70	; 0x46
 8007d40:	eb08 0906 	add.w	r9, r8, r6
 8007d44:	d111      	bne.n	8007d6a <__cvt+0x8e>
 8007d46:	f898 3000 	ldrb.w	r3, [r8]
 8007d4a:	2b30      	cmp	r3, #48	; 0x30
 8007d4c:	d10a      	bne.n	8007d64 <__cvt+0x88>
 8007d4e:	2200      	movs	r2, #0
 8007d50:	2300      	movs	r3, #0
 8007d52:	4620      	mov	r0, r4
 8007d54:	4629      	mov	r1, r5
 8007d56:	f7f8 feb7 	bl	8000ac8 <__aeabi_dcmpeq>
 8007d5a:	b918      	cbnz	r0, 8007d64 <__cvt+0x88>
 8007d5c:	f1c6 0601 	rsb	r6, r6, #1
 8007d60:	f8ca 6000 	str.w	r6, [sl]
 8007d64:	f8da 3000 	ldr.w	r3, [sl]
 8007d68:	4499      	add	r9, r3
 8007d6a:	2200      	movs	r2, #0
 8007d6c:	2300      	movs	r3, #0
 8007d6e:	4620      	mov	r0, r4
 8007d70:	4629      	mov	r1, r5
 8007d72:	f7f8 fea9 	bl	8000ac8 <__aeabi_dcmpeq>
 8007d76:	b938      	cbnz	r0, 8007d88 <__cvt+0xac>
 8007d78:	2230      	movs	r2, #48	; 0x30
 8007d7a:	9b03      	ldr	r3, [sp, #12]
 8007d7c:	454b      	cmp	r3, r9
 8007d7e:	d205      	bcs.n	8007d8c <__cvt+0xb0>
 8007d80:	1c59      	adds	r1, r3, #1
 8007d82:	9103      	str	r1, [sp, #12]
 8007d84:	701a      	strb	r2, [r3, #0]
 8007d86:	e7f8      	b.n	8007d7a <__cvt+0x9e>
 8007d88:	f8cd 900c 	str.w	r9, [sp, #12]
 8007d8c:	9b03      	ldr	r3, [sp, #12]
 8007d8e:	9a0e      	ldr	r2, [sp, #56]	; 0x38
 8007d90:	eba3 0308 	sub.w	r3, r3, r8
 8007d94:	4640      	mov	r0, r8
 8007d96:	6013      	str	r3, [r2, #0]
 8007d98:	b004      	add	sp, #16
 8007d9a:	e8bd 87f0 	ldmia.w	sp!, {r4, r5, r6, r7, r8, r9, sl, pc}

08007d9e <__exponent>:
 8007d9e:	b5f7      	push	{r0, r1, r2, r4, r5, r6, r7, lr}
 8007da0:	2900      	cmp	r1, #0
 8007da2:	4604      	mov	r4, r0
 8007da4:	bfba      	itte	lt
 8007da6:	4249      	neglt	r1, r1
 8007da8:	232d      	movlt	r3, #45	; 0x2d
 8007daa:	232b      	movge	r3, #43	; 0x2b
 8007dac:	2909      	cmp	r1, #9
 8007dae:	f804 2b02 	strb.w	r2, [r4], #2
 8007db2:	7043      	strb	r3, [r0, #1]
 8007db4:	dd20      	ble.n	8007df8 <__exponent+0x5a>
 8007db6:	f10d 0307 	add.w	r3, sp, #7
 8007dba:	461f      	mov	r7, r3
 8007dbc:	260a      	movs	r6, #10
 8007dbe:	fb91 f5f6 	sdiv	r5, r1, r6
 8007dc2:	fb06 1115 	mls	r1, r6, r5, r1
 8007dc6:	3130      	adds	r1, #48	; 0x30
 8007dc8:	2d09      	cmp	r5, #9
 8007dca:	f803 1c01 	strb.w	r1, [r3, #-1]
 8007dce:	f103 32ff 	add.w	r2, r3, #4294967295	; 0xffffffff
 8007dd2:	4629      	mov	r1, r5
 8007dd4:	dc09      	bgt.n	8007dea <__exponent+0x4c>
 8007dd6:	3130      	adds	r1, #48	; 0x30
 8007dd8:	3b02      	subs	r3, #2
 8007dda:	f802 1c01 	strb.w	r1, [r2, #-1]
 8007dde:	42bb      	cmp	r3, r7
 8007de0:	4622      	mov	r2, r4
 8007de2:	d304      	bcc.n	8007dee <__exponent+0x50>
 8007de4:	1a10      	subs	r0, r2, r0
 8007de6:	b003      	add	sp, #12
 8007de8:	bdf0      	pop	{r4, r5, r6, r7, pc}
 8007dea:	4613      	mov	r3, r2
 8007dec:	e7e7      	b.n	8007dbe <__exponent+0x20>
 8007dee:	f813 2b01 	ldrb.w	r2, [r3], #1
 8007df2:	f804 2b01 	strb.w	r2, [r4], #1
 8007df6:	e7f2      	b.n	8007dde <__exponent+0x40>
 8007df8:	2330      	movs	r3, #48	; 0x30
 8007dfa:	4419      	add	r1, r3
 8007dfc:	7083      	strb	r3, [r0, #2]
 8007dfe:	1d02      	adds	r2, r0, #4
 8007e00:	70c1      	strb	r1, [r0, #3]
 8007e02:	e7ef      	b.n	8007de4 <__exponent+0x46>

08007e04 <_printf_float>:
 8007e04:	e92d 4ff0 	stmdb	sp!, {r4, r5, r6, r7, r8, r9, sl, fp, lr}
 8007e08:	b08d      	sub	sp, #52	; 0x34
 8007e0a:	460c      	mov	r4, r1
 8007e0c:	f8dd 8058 	ldr.w	r8, [sp, #88]	; 0x58
 8007e10:	4616      	mov	r6, r2
 8007e12:	461f      	mov	r7, r3
 8007e14:	4605      	mov	r5, r0
 8007e16:	f001 fce1 	bl	80097dc <_localeconv_r>
 8007e1a:	6803      	ldr	r3, [r0, #0]
 8007e1c:	9304      	str	r3, [sp, #16]
 8007e1e:	4618      	mov	r0, r3
 8007e20:	f7f8 f9d6 	bl	80001d0 <strlen>
 8007e24:	2300      	movs	r3, #0
 8007e26:	930a      	str	r3, [sp, #40]	; 0x28
 8007e28:	f8d8 3000 	ldr.w	r3, [r8]
 8007e2c:	9005      	str	r0, [sp, #20]
 8007e2e:	3307      	adds	r3, #7
 8007e30:	f023 0307 	bic.w	r3, r3, #7
 8007e34:	f103 0208 	add.w	r2, r3, #8
 8007e38:	f894 a018 	ldrb.w	sl, [r4, #24]
 8007e3c:	f8d4 b000 	ldr.w	fp, [r4]
 8007e40:	f8c8 2000 	str.w	r2, [r8]
 8007e44:	e9d3 2300 	ldrd	r2, r3, [r3]
 8007e48:	e9c4 2312 	strd	r2, r3, [r4, #72]	; 0x48
 8007e4c:	e9d4 8912 	ldrd	r8, r9, [r4, #72]	; 0x48
 8007e50:	f029 4300 	bic.w	r3, r9, #2147483648	; 0x80000000
 8007e54:	9307      	str	r3, [sp, #28]
 8007e56:	f8cd 8018 	str.w	r8, [sp, #24]
 8007e5a:	f04f 32ff 	mov.w	r2, #4294967295	; 0xffffffff
 8007e5e:	4ba7      	ldr	r3, [pc, #668]	; (80080fc <_printf_float+0x2f8>)
 8007e60:	e9dd 0106 	ldrd	r0, r1, [sp, #24]
 8007e64:	f7f8 fe62 	bl	8000b2c <__aeabi_dcmpun>
 8007e68:	bb70      	cbnz	r0, 8007ec8 <_printf_float+0xc4>
 8007e6a:	f04f 32ff 	mov.w	r2, #4294967295	; 0xffffffff
 8007e6e:	4ba3      	ldr	r3, [pc, #652]	; (80080fc <_printf_float+0x2f8>)
 8007e70:	e9dd 0106 	ldrd	r0, r1, [sp, #24]
 8007e74:	f7f8 fe3c 	bl	8000af0 <__aeabi_dcmple>
 8007e78:	bb30      	cbnz	r0, 8007ec8 <_printf_float+0xc4>
 8007e7a:	2200      	movs	r2, #0
 8007e7c:	2300      	movs	r3, #0
 8007e7e:	4640      	mov	r0, r8
 8007e80:	4649      	mov	r1, r9
 8007e82:	f7f8 fe2b 	bl	8000adc <__aeabi_dcmplt>
 8007e86:	b110      	cbz	r0, 8007e8e <_printf_float+0x8a>
 8007e88:	232d      	movs	r3, #45	; 0x2d
 8007e8a:	f884 3043 	strb.w	r3, [r4, #67]	; 0x43
 8007e8e:	4a9c      	ldr	r2, [pc, #624]	; (8008100 <_printf_float+0x2fc>)
 8007e90:	4b9c      	ldr	r3, [pc, #624]	; (8008104 <_printf_float+0x300>)
 8007e92:	f1ba 0f47 	cmp.w	sl, #71	; 0x47
 8007e96:	bf8c      	ite	hi
 8007e98:	4690      	movhi	r8, r2
 8007e9a:	4698      	movls	r8, r3
 8007e9c:	2303      	movs	r3, #3
 8007e9e:	f02b 0204 	bic.w	r2, fp, #4
 8007ea2:	6123      	str	r3, [r4, #16]
 8007ea4:	6022      	str	r2, [r4, #0]
 8007ea6:	f04f 0900 	mov.w	r9, #0
 8007eaa:	9700      	str	r7, [sp, #0]
 8007eac:	4633      	mov	r3, r6
 8007eae:	aa0b      	add	r2, sp, #44	; 0x2c
 8007eb0:	4621      	mov	r1, r4
 8007eb2:	4628      	mov	r0, r5
 8007eb4:	f000 f9e6 	bl	8008284 <_printf_common>
 8007eb8:	3001      	adds	r0, #1
 8007eba:	f040 808d 	bne.w	8007fd8 <_printf_float+0x1d4>
 8007ebe:	f04f 30ff 	mov.w	r0, #4294967295	; 0xffffffff
 8007ec2:	b00d      	add	sp, #52	; 0x34
 8007ec4:	e8bd 8ff0 	ldmia.w	sp!, {r4, r5, r6, r7, r8, r9, sl, fp, pc}
 8007ec8:	4642      	mov	r2, r8
 8007eca:	464b      	mov	r3, r9
 8007ecc:	4640      	mov	r0, r8
 8007ece:	4649      	mov	r1, r9
 8007ed0:	f7f8 fe2c 	bl	8000b2c <__aeabi_dcmpun>
 8007ed4:	b110      	cbz	r0, 8007edc <_printf_float+0xd8>
 8007ed6:	4a8c      	ldr	r2, [pc, #560]	; (8008108 <_printf_float+0x304>)
 8007ed8:	4b8c      	ldr	r3, [pc, #560]	; (800810c <_printf_float+0x308>)
 8007eda:	e7da      	b.n	8007e92 <_printf_float+0x8e>
 8007edc:	6861      	ldr	r1, [r4, #4]
 8007ede:	1c4b      	adds	r3, r1, #1
 8007ee0:	f44b 6280 	orr.w	r2, fp, #1024	; 0x400
 8007ee4:	a80a      	add	r0, sp, #40	; 0x28
 8007ee6:	d13e      	bne.n	8007f66 <_printf_float+0x162>
 8007ee8:	2306      	movs	r3, #6
 8007eea:	6063      	str	r3, [r4, #4]
 8007eec:	2300      	movs	r3, #0
 8007eee:	e9cd 0302 	strd	r0, r3, [sp, #8]
 8007ef2:	ab09      	add	r3, sp, #36	; 0x24
 8007ef4:	9300      	str	r3, [sp, #0]
 8007ef6:	ec49 8b10 	vmov	d0, r8, r9
 8007efa:	f10d 0323 	add.w	r3, sp, #35	; 0x23
 8007efe:	6022      	str	r2, [r4, #0]
 8007f00:	f8cd a004 	str.w	sl, [sp, #4]
 8007f04:	6861      	ldr	r1, [r4, #4]
 8007f06:	4628      	mov	r0, r5
 8007f08:	f7ff fee8 	bl	8007cdc <__cvt>
 8007f0c:	f00a 03df 	and.w	r3, sl, #223	; 0xdf
 8007f10:	2b47      	cmp	r3, #71	; 0x47
 8007f12:	4680      	mov	r8, r0
 8007f14:	d109      	bne.n	8007f2a <_printf_float+0x126>
 8007f16:	9b09      	ldr	r3, [sp, #36]	; 0x24
 8007f18:	1cd8      	adds	r0, r3, #3
 8007f1a:	db02      	blt.n	8007f22 <_printf_float+0x11e>
 8007f1c:	6862      	ldr	r2, [r4, #4]
 8007f1e:	4293      	cmp	r3, r2
 8007f20:	dd47      	ble.n	8007fb2 <_printf_float+0x1ae>
 8007f22:	f1aa 0a02 	sub.w	sl, sl, #2
 8007f26:	fa5f fa8a 	uxtb.w	sl, sl
 8007f2a:	f1ba 0f65 	cmp.w	sl, #101	; 0x65
 8007f2e:	9909      	ldr	r1, [sp, #36]	; 0x24
 8007f30:	d824      	bhi.n	8007f7c <_printf_float+0x178>
 8007f32:	3901      	subs	r1, #1
 8007f34:	4652      	mov	r2, sl
 8007f36:	f104 0050 	add.w	r0, r4, #80	; 0x50
 8007f3a:	9109      	str	r1, [sp, #36]	; 0x24
 8007f3c:	f7ff ff2f 	bl	8007d9e <__exponent>
 8007f40:	9a0a      	ldr	r2, [sp, #40]	; 0x28
 8007f42:	1813      	adds	r3, r2, r0
 8007f44:	2a01      	cmp	r2, #1
 8007f46:	4681      	mov	r9, r0
 8007f48:	6123      	str	r3, [r4, #16]
 8007f4a:	dc02      	bgt.n	8007f52 <_printf_float+0x14e>
 8007f4c:	6822      	ldr	r2, [r4, #0]
 8007f4e:	07d1      	lsls	r1, r2, #31
 8007f50:	d501      	bpl.n	8007f56 <_printf_float+0x152>
 8007f52:	3301      	adds	r3, #1
 8007f54:	6123      	str	r3, [r4, #16]
 8007f56:	f89d 3023 	ldrb.w	r3, [sp, #35]	; 0x23
 8007f5a:	2b00      	cmp	r3, #0
 8007f5c:	d0a5      	beq.n	8007eaa <_printf_float+0xa6>
 8007f5e:	232d      	movs	r3, #45	; 0x2d
 8007f60:	f884 3043 	strb.w	r3, [r4, #67]	; 0x43
 8007f64:	e7a1      	b.n	8007eaa <_printf_float+0xa6>
 8007f66:	f1ba 0f67 	cmp.w	sl, #103	; 0x67
 8007f6a:	f000 8177 	beq.w	800825c <_printf_float+0x458>
 8007f6e:	f1ba 0f47 	cmp.w	sl, #71	; 0x47
 8007f72:	d1bb      	bne.n	8007eec <_printf_float+0xe8>
 8007f74:	2900      	cmp	r1, #0
 8007f76:	d1b9      	bne.n	8007eec <_printf_float+0xe8>
 8007f78:	2301      	movs	r3, #1
 8007f7a:	e7b6      	b.n	8007eea <_printf_float+0xe6>
 8007f7c:	f1ba 0f66 	cmp.w	sl, #102	; 0x66
 8007f80:	d119      	bne.n	8007fb6 <_printf_float+0x1b2>
 8007f82:	2900      	cmp	r1, #0
 8007f84:	6863      	ldr	r3, [r4, #4]
 8007f86:	dd0c      	ble.n	8007fa2 <_printf_float+0x19e>
 8007f88:	6121      	str	r1, [r4, #16]
 8007f8a:	b913      	cbnz	r3, 8007f92 <_printf_float+0x18e>
 8007f8c:	6822      	ldr	r2, [r4, #0]
 8007f8e:	07d2      	lsls	r2, r2, #31
 8007f90:	d502      	bpl.n	8007f98 <_printf_float+0x194>
 8007f92:	3301      	adds	r3, #1
 8007f94:	440b      	add	r3, r1
 8007f96:	6123      	str	r3, [r4, #16]
 8007f98:	9b09      	ldr	r3, [sp, #36]	; 0x24
 8007f9a:	65a3      	str	r3, [r4, #88]	; 0x58
 8007f9c:	f04f 0900 	mov.w	r9, #0
 8007fa0:	e7d9      	b.n	8007f56 <_printf_float+0x152>
 8007fa2:	b913      	cbnz	r3, 8007faa <_printf_float+0x1a6>
 8007fa4:	6822      	ldr	r2, [r4, #0]
 8007fa6:	07d0      	lsls	r0, r2, #31
 8007fa8:	d501      	bpl.n	8007fae <_printf_float+0x1aa>
 8007faa:	3302      	adds	r3, #2
 8007fac:	e7f3      	b.n	8007f96 <_printf_float+0x192>
 8007fae:	2301      	movs	r3, #1
 8007fb0:	e7f1      	b.n	8007f96 <_printf_float+0x192>
 8007fb2:	f04f 0a67 	mov.w	sl, #103	; 0x67
 8007fb6:	e9dd 3209 	ldrd	r3, r2, [sp, #36]	; 0x24
 8007fba:	4293      	cmp	r3, r2
 8007fbc:	db05      	blt.n	8007fca <_printf_float+0x1c6>
 8007fbe:	6822      	ldr	r2, [r4, #0]
 8007fc0:	6123      	str	r3, [r4, #16]
 8007fc2:	07d1      	lsls	r1, r2, #31
 8007fc4:	d5e8      	bpl.n	8007f98 <_printf_float+0x194>
 8007fc6:	3301      	adds	r3, #1
 8007fc8:	e7e5      	b.n	8007f96 <_printf_float+0x192>
 8007fca:	2b00      	cmp	r3, #0
 8007fcc:	bfd4      	ite	le
 8007fce:	f1c3 0302 	rsble	r3, r3, #2
 8007fd2:	2301      	movgt	r3, #1
 8007fd4:	4413      	add	r3, r2
 8007fd6:	e7de      	b.n	8007f96 <_printf_float+0x192>
 8007fd8:	6823      	ldr	r3, [r4, #0]
 8007fda:	055a      	lsls	r2, r3, #21
 8007fdc:	d407      	bmi.n	8007fee <_printf_float+0x1ea>
 8007fde:	6923      	ldr	r3, [r4, #16]
 8007fe0:	4642      	mov	r2, r8
 8007fe2:	4631      	mov	r1, r6
 8007fe4:	4628      	mov	r0, r5
 8007fe6:	47b8      	blx	r7
 8007fe8:	3001      	adds	r0, #1
 8007fea:	d12b      	bne.n	8008044 <_printf_float+0x240>
 8007fec:	e767      	b.n	8007ebe <_printf_float+0xba>
 8007fee:	f1ba 0f65 	cmp.w	sl, #101	; 0x65
 8007ff2:	f240 80dc 	bls.w	80081ae <_printf_float+0x3aa>
 8007ff6:	2200      	movs	r2, #0
 8007ff8:	2300      	movs	r3, #0
 8007ffa:	e9d4 0112 	ldrd	r0, r1, [r4, #72]	; 0x48
 8007ffe:	f7f8 fd63 	bl	8000ac8 <__aeabi_dcmpeq>
 8008002:	2800      	cmp	r0, #0
 8008004:	d033      	beq.n	800806e <_printf_float+0x26a>
 8008006:	2301      	movs	r3, #1
 8008008:	4a41      	ldr	r2, [pc, #260]	; (8008110 <_printf_float+0x30c>)
 800800a:	4631      	mov	r1, r6
 800800c:	4628      	mov	r0, r5
 800800e:	47b8      	blx	r7
 8008010:	3001      	adds	r0, #1
 8008012:	f43f af54 	beq.w	8007ebe <_printf_float+0xba>
 8008016:	e9dd 2309 	ldrd	r2, r3, [sp, #36]	; 0x24
 800801a:	429a      	cmp	r2, r3
 800801c:	db02      	blt.n	8008024 <_printf_float+0x220>
 800801e:	6823      	ldr	r3, [r4, #0]
 8008020:	07d8      	lsls	r0, r3, #31
 8008022:	d50f      	bpl.n	8008044 <_printf_float+0x240>
 8008024:	e9dd 2304 	ldrd	r2, r3, [sp, #16]
 8008028:	4631      	mov	r1, r6
 800802a:	4628      	mov	r0, r5
 800802c:	47b8      	blx	r7
 800802e:	3001      	adds	r0, #1
 8008030:	f43f af45 	beq.w	8007ebe <_printf_float+0xba>
 8008034:	f04f 0800 	mov.w	r8, #0
 8008038:	f104 091a 	add.w	r9, r4, #26
 800803c:	9b0a      	ldr	r3, [sp, #40]	; 0x28
 800803e:	3b01      	subs	r3, #1
 8008040:	4543      	cmp	r3, r8
 8008042:	dc09      	bgt.n	8008058 <_printf_float+0x254>
 8008044:	6823      	ldr	r3, [r4, #0]
 8008046:	079b      	lsls	r3, r3, #30
 8008048:	f100 8103 	bmi.w	8008252 <_printf_float+0x44e>
 800804c:	68e0      	ldr	r0, [r4, #12]
 800804e:	9b0b      	ldr	r3, [sp, #44]	; 0x2c
 8008050:	4298      	cmp	r0, r3
 8008052:	bfb8      	it	lt
 8008054:	4618      	movlt	r0, r3
 8008056:	e734      	b.n	8007ec2 <_printf_float+0xbe>
 8008058:	2301      	movs	r3, #1
 800805a:	464a      	mov	r2, r9
 800805c:	4631      	mov	r1, r6
 800805e:	4628      	mov	r0, r5
 8008060:	47b8      	blx	r7
 8008062:	3001      	adds	r0, #1
 8008064:	f43f af2b 	beq.w	8007ebe <_printf_float+0xba>
 8008068:	f108 0801 	add.w	r8, r8, #1
 800806c:	e7e6      	b.n	800803c <_printf_float+0x238>
 800806e:	9b09      	ldr	r3, [sp, #36]	; 0x24
 8008070:	2b00      	cmp	r3, #0
 8008072:	dc2b      	bgt.n	80080cc <_printf_float+0x2c8>
 8008074:	2301      	movs	r3, #1
 8008076:	4a26      	ldr	r2, [pc, #152]	; (8008110 <_printf_float+0x30c>)
 8008078:	4631      	mov	r1, r6
 800807a:	4628      	mov	r0, r5
 800807c:	47b8      	blx	r7
 800807e:	3001      	adds	r0, #1
 8008080:	f43f af1d 	beq.w	8007ebe <_printf_float+0xba>
 8008084:	9b09      	ldr	r3, [sp, #36]	; 0x24
 8008086:	b923      	cbnz	r3, 8008092 <_printf_float+0x28e>
 8008088:	9b0a      	ldr	r3, [sp, #40]	; 0x28
 800808a:	b913      	cbnz	r3, 8008092 <_printf_float+0x28e>
 800808c:	6823      	ldr	r3, [r4, #0]
 800808e:	07d9      	lsls	r1, r3, #31
 8008090:	d5d8      	bpl.n	8008044 <_printf_float+0x240>
 8008092:	e9dd 2304 	ldrd	r2, r3, [sp, #16]
 8008096:	4631      	mov	r1, r6
 8008098:	4628      	mov	r0, r5
 800809a:	47b8      	blx	r7
 800809c:	3001      	adds	r0, #1
 800809e:	f43f af0e 	beq.w	8007ebe <_printf_float+0xba>
 80080a2:	f04f 0900 	mov.w	r9, #0
 80080a6:	f104 0a1a 	add.w	sl, r4, #26
 80080aa:	9b09      	ldr	r3, [sp, #36]	; 0x24
 80080ac:	425b      	negs	r3, r3
 80080ae:	454b      	cmp	r3, r9
 80080b0:	dc01      	bgt.n	80080b6 <_printf_float+0x2b2>
 80080b2:	9b0a      	ldr	r3, [sp, #40]	; 0x28
 80080b4:	e794      	b.n	8007fe0 <_printf_float+0x1dc>
 80080b6:	2301      	movs	r3, #1
 80080b8:	4652      	mov	r2, sl
 80080ba:	4631      	mov	r1, r6
 80080bc:	4628      	mov	r0, r5
 80080be:	47b8      	blx	r7
 80080c0:	3001      	adds	r0, #1
 80080c2:	f43f aefc 	beq.w	8007ebe <_printf_float+0xba>
 80080c6:	f109 0901 	add.w	r9, r9, #1
 80080ca:	e7ee      	b.n	80080aa <_printf_float+0x2a6>
 80080cc:	9a0a      	ldr	r2, [sp, #40]	; 0x28
 80080ce:	6da3      	ldr	r3, [r4, #88]	; 0x58
 80080d0:	429a      	cmp	r2, r3
 80080d2:	bfa8      	it	ge
 80080d4:	461a      	movge	r2, r3
 80080d6:	2a00      	cmp	r2, #0
 80080d8:	4691      	mov	r9, r2
 80080da:	dd07      	ble.n	80080ec <_printf_float+0x2e8>
 80080dc:	4613      	mov	r3, r2
 80080de:	4631      	mov	r1, r6
 80080e0:	4642      	mov	r2, r8
 80080e2:	4628      	mov	r0, r5
 80080e4:	47b8      	blx	r7
 80080e6:	3001      	adds	r0, #1
 80080e8:	f43f aee9 	beq.w	8007ebe <_printf_float+0xba>
 80080ec:	f104 031a 	add.w	r3, r4, #26
 80080f0:	f04f 0b00 	mov.w	fp, #0
 80080f4:	ea29 79e9 	bic.w	r9, r9, r9, asr #31
 80080f8:	9306      	str	r3, [sp, #24]
 80080fa:	e015      	b.n	8008128 <_printf_float+0x324>
 80080fc:	7fefffff 	.word	0x7fefffff
 8008100:	0800b888 	.word	0x0800b888
 8008104:	0800b884 	.word	0x0800b884
 8008108:	0800b890 	.word	0x0800b890
 800810c:	0800b88c 	.word	0x0800b88c
 8008110:	0800b894 	.word	0x0800b894
 8008114:	2301      	movs	r3, #1
 8008116:	9a06      	ldr	r2, [sp, #24]
 8008118:	4631      	mov	r1, r6
 800811a:	4628      	mov	r0, r5
 800811c:	47b8      	blx	r7
 800811e:	3001      	adds	r0, #1
 8008120:	f43f aecd 	beq.w	8007ebe <_printf_float+0xba>
 8008124:	f10b 0b01 	add.w	fp, fp, #1
 8008128:	f8d4 a058 	ldr.w	sl, [r4, #88]	; 0x58
 800812c:	ebaa 0309 	sub.w	r3, sl, r9
 8008130:	455b      	cmp	r3, fp
 8008132:	dcef      	bgt.n	8008114 <_printf_float+0x310>
 8008134:	e9dd 2309 	ldrd	r2, r3, [sp, #36]	; 0x24
 8008138:	429a      	cmp	r2, r3
 800813a:	44d0      	add	r8, sl
 800813c:	db15      	blt.n	800816a <_printf_float+0x366>
 800813e:	6823      	ldr	r3, [r4, #0]
 8008140:	07da      	lsls	r2, r3, #31
 8008142:	d412      	bmi.n	800816a <_printf_float+0x366>
 8008144:	9b0a      	ldr	r3, [sp, #40]	; 0x28
 8008146:	9909      	ldr	r1, [sp, #36]	; 0x24
 8008148:	eba3 020a 	sub.w	r2, r3, sl
 800814c:	eba3 0a01 	sub.w	sl, r3, r1
 8008150:	4592      	cmp	sl, r2
 8008152:	bfa8      	it	ge
 8008154:	4692      	movge	sl, r2
 8008156:	f1ba 0f00 	cmp.w	sl, #0
 800815a:	dc0e      	bgt.n	800817a <_printf_float+0x376>
 800815c:	f04f 0800 	mov.w	r8, #0
 8008160:	ea2a 7aea 	bic.w	sl, sl, sl, asr #31
 8008164:	f104 091a 	add.w	r9, r4, #26
 8008168:	e019      	b.n	800819e <_printf_float+0x39a>
 800816a:	e9dd 2304 	ldrd	r2, r3, [sp, #16]
 800816e:	4631      	mov	r1, r6
 8008170:	4628      	mov	r0, r5
 8008172:	47b8      	blx	r7
 8008174:	3001      	adds	r0, #1
 8008176:	d1e5      	bne.n	8008144 <_printf_float+0x340>
 8008178:	e6a1      	b.n	8007ebe <_printf_float+0xba>
 800817a:	4653      	mov	r3, sl
 800817c:	4642      	mov	r2, r8
 800817e:	4631      	mov	r1, r6
 8008180:	4628      	mov	r0, r5
 8008182:	47b8      	blx	r7
 8008184:	3001      	adds	r0, #1
 8008186:	d1e9      	bne.n	800815c <_printf_float+0x358>
 8008188:	e699      	b.n	8007ebe <_printf_float+0xba>
 800818a:	2301      	movs	r3, #1
 800818c:	464a      	mov	r2, r9
 800818e:	4631      	mov	r1, r6
 8008190:	4628      	mov	r0, r5
 8008192:	47b8      	blx	r7
 8008194:	3001      	adds	r0, #1
 8008196:	f43f ae92 	beq.w	8007ebe <_printf_float+0xba>
 800819a:	f108 0801 	add.w	r8, r8, #1
 800819e:	e9dd 2309 	ldrd	r2, r3, [sp, #36]	; 0x24
 80081a2:	1a9b      	subs	r3, r3, r2
 80081a4:	eba3 030a 	sub.w	r3, r3, sl
 80081a8:	4543      	cmp	r3, r8
 80081aa:	dcee      	bgt.n	800818a <_printf_float+0x386>
 80081ac:	e74a      	b.n	8008044 <_printf_float+0x240>
 80081ae:	9a0a      	ldr	r2, [sp, #40]	; 0x28
 80081b0:	2a01      	cmp	r2, #1
 80081b2:	dc01      	bgt.n	80081b8 <_printf_float+0x3b4>
 80081b4:	07db      	lsls	r3, r3, #31
 80081b6:	d53a      	bpl.n	800822e <_printf_float+0x42a>
 80081b8:	2301      	movs	r3, #1
 80081ba:	4642      	mov	r2, r8
 80081bc:	4631      	mov	r1, r6
 80081be:	4628      	mov	r0, r5
 80081c0:	47b8      	blx	r7
 80081c2:	3001      	adds	r0, #1
 80081c4:	f43f ae7b 	beq.w	8007ebe <_printf_float+0xba>
 80081c8:	e9dd 2304 	ldrd	r2, r3, [sp, #16]
 80081cc:	4631      	mov	r1, r6
 80081ce:	4628      	mov	r0, r5
 80081d0:	47b8      	blx	r7
 80081d2:	3001      	adds	r0, #1
 80081d4:	f108 0801 	add.w	r8, r8, #1
 80081d8:	f43f ae71 	beq.w	8007ebe <_printf_float+0xba>
 80081dc:	9b0a      	ldr	r3, [sp, #40]	; 0x28
 80081de:	2200      	movs	r2, #0
 80081e0:	f103 3aff 	add.w	sl, r3, #4294967295	; 0xffffffff
 80081e4:	e9d4 0112 	ldrd	r0, r1, [r4, #72]	; 0x48
 80081e8:	2300      	movs	r3, #0
 80081ea:	f7f8 fc6d 	bl	8000ac8 <__aeabi_dcmpeq>
 80081ee:	b9c8      	cbnz	r0, 8008224 <_printf_float+0x420>
 80081f0:	4653      	mov	r3, sl
 80081f2:	4642      	mov	r2, r8
 80081f4:	4631      	mov	r1, r6
 80081f6:	4628      	mov	r0, r5
 80081f8:	47b8      	blx	r7
 80081fa:	3001      	adds	r0, #1
 80081fc:	d10e      	bne.n	800821c <_printf_float+0x418>
 80081fe:	e65e      	b.n	8007ebe <_printf_float+0xba>
 8008200:	2301      	movs	r3, #1
 8008202:	4652      	mov	r2, sl
 8008204:	4631      	mov	r1, r6
 8008206:	4628      	mov	r0, r5
 8008208:	47b8      	blx	r7
 800820a:	3001      	adds	r0, #1
 800820c:	f43f ae57 	beq.w	8007ebe <_printf_float+0xba>
 8008210:	f108 0801 	add.w	r8, r8, #1
 8008214:	9b0a      	ldr	r3, [sp, #40]	; 0x28
 8008216:	3b01      	subs	r3, #1
 8008218:	4543      	cmp	r3, r8
 800821a:	dcf1      	bgt.n	8008200 <_printf_float+0x3fc>
 800821c:	464b      	mov	r3, r9
 800821e:	f104 0250 	add.w	r2, r4, #80	; 0x50
 8008222:	e6de      	b.n	8007fe2 <_printf_float+0x1de>
 8008224:	f04f 0800 	mov.w	r8, #0
 8008228:	f104 0a1a 	add.w	sl, r4, #26
 800822c:	e7f2      	b.n	8008214 <_printf_float+0x410>
 800822e:	2301      	movs	r3, #1
 8008230:	e7df      	b.n	80081f2 <_printf_float+0x3ee>
 8008232:	2301      	movs	r3, #1
 8008234:	464a      	mov	r2, r9
 8008236:	4631      	mov	r1, r6
 8008238:	4628      	mov	r0, r5
 800823a:	47b8      	blx	r7
 800823c:	3001      	adds	r0, #1
 800823e:	f43f ae3e 	beq.w	8007ebe <_printf_float+0xba>
 8008242:	f108 0801 	add.w	r8, r8, #1
 8008246:	68e3      	ldr	r3, [r4, #12]
 8008248:	9a0b      	ldr	r2, [sp, #44]	; 0x2c
 800824a:	1a9b      	subs	r3, r3, r2
 800824c:	4543      	cmp	r3, r8
 800824e:	dcf0      	bgt.n	8008232 <_printf_float+0x42e>
 8008250:	e6fc      	b.n	800804c <_printf_float+0x248>
 8008252:	f04f 0800 	mov.w	r8, #0
 8008256:	f104 0919 	add.w	r9, r4, #25
 800825a:	e7f4      	b.n	8008246 <_printf_float+0x442>
 800825c:	2900      	cmp	r1, #0
 800825e:	f43f ae8b 	beq.w	8007f78 <_printf_float+0x174>
 8008262:	2300      	movs	r3, #0
 8008264:	e9cd 0302 	strd	r0, r3, [sp, #8]
 8008268:	ab09      	add	r3, sp, #36	; 0x24
 800826a:	9300      	str	r3, [sp, #0]
 800826c:	ec49 8b10 	vmov	d0, r8, r9
 8008270:	6022      	str	r2, [r4, #0]
 8008272:	f8cd a004 	str.w	sl, [sp, #4]
 8008276:	f10d 0323 	add.w	r3, sp, #35	; 0x23
 800827a:	4628      	mov	r0, r5
 800827c:	f7ff fd2e 	bl	8007cdc <__cvt>
 8008280:	4680      	mov	r8, r0
 8008282:	e648      	b.n	8007f16 <_printf_float+0x112>

08008284 <_printf_common>:
 8008284:	e92d 47f0 	stmdb	sp!, {r4, r5, r6, r7, r8, r9, sl, lr}
 8008288:	4691      	mov	r9, r2
 800828a:	461f      	mov	r7, r3
 800828c:	688a      	ldr	r2, [r1, #8]
 800828e:	690b      	ldr	r3, [r1, #16]
 8008290:	f8dd 8020 	ldr.w	r8, [sp, #32]
 8008294:	4293      	cmp	r3, r2
 8008296:	bfb8      	it	lt
 8008298:	4613      	movlt	r3, r2
 800829a:	f8c9 3000 	str.w	r3, [r9]
 800829e:	f891 2043 	ldrb.w	r2, [r1, #67]	; 0x43
 80082a2:	4606      	mov	r6, r0
 80082a4:	460c      	mov	r4, r1
 80082a6:	b112      	cbz	r2, 80082ae <_printf_common+0x2a>
 80082a8:	3301      	adds	r3, #1
 80082aa:	f8c9 3000 	str.w	r3, [r9]
 80082ae:	6823      	ldr	r3, [r4, #0]
 80082b0:	0699      	lsls	r1, r3, #26
 80082b2:	bf42      	ittt	mi
 80082b4:	f8d9 3000 	ldrmi.w	r3, [r9]
 80082b8:	3302      	addmi	r3, #2
 80082ba:	f8c9 3000 	strmi.w	r3, [r9]
 80082be:	6825      	ldr	r5, [r4, #0]
 80082c0:	f015 0506 	ands.w	r5, r5, #6
 80082c4:	d107      	bne.n	80082d6 <_printf_common+0x52>
 80082c6:	f104 0a19 	add.w	sl, r4, #25
 80082ca:	68e3      	ldr	r3, [r4, #12]
 80082cc:	f8d9 2000 	ldr.w	r2, [r9]
 80082d0:	1a9b      	subs	r3, r3, r2
 80082d2:	42ab      	cmp	r3, r5
 80082d4:	dc28      	bgt.n	8008328 <_printf_common+0xa4>
 80082d6:	f894 3043 	ldrb.w	r3, [r4, #67]	; 0x43
 80082da:	6822      	ldr	r2, [r4, #0]
 80082dc:	3300      	adds	r3, #0
 80082de:	bf18      	it	ne
 80082e0:	2301      	movne	r3, #1
 80082e2:	0692      	lsls	r2, r2, #26
 80082e4:	d42d      	bmi.n	8008342 <_printf_common+0xbe>
 80082e6:	f104 0243 	add.w	r2, r4, #67	; 0x43
 80082ea:	4639      	mov	r1, r7
 80082ec:	4630      	mov	r0, r6
 80082ee:	47c0      	blx	r8
 80082f0:	3001      	adds	r0, #1
 80082f2:	d020      	beq.n	8008336 <_printf_common+0xb2>
 80082f4:	6823      	ldr	r3, [r4, #0]
 80082f6:	68e5      	ldr	r5, [r4, #12]
 80082f8:	f8d9 2000 	ldr.w	r2, [r9]
 80082fc:	f003 0306 	and.w	r3, r3, #6
 8008300:	2b04      	cmp	r3, #4
 8008302:	bf08      	it	eq
 8008304:	1aad      	subeq	r5, r5, r2
 8008306:	68a3      	ldr	r3, [r4, #8]
 8008308:	6922      	ldr	r2, [r4, #16]
 800830a:	bf0c      	ite	eq
 800830c:	ea25 75e5 	biceq.w	r5, r5, r5, asr #31
 8008310:	2500      	movne	r5, #0
 8008312:	4293      	cmp	r3, r2
 8008314:	bfc4      	itt	gt
 8008316:	1a9b      	subgt	r3, r3, r2
 8008318:	18ed      	addgt	r5, r5, r3
 800831a:	f04f 0900 	mov.w	r9, #0
 800831e:	341a      	adds	r4, #26
 8008320:	454d      	cmp	r5, r9
 8008322:	d11a      	bne.n	800835a <_printf_common+0xd6>
 8008324:	2000      	movs	r0, #0
 8008326:	e008      	b.n	800833a <_printf_common+0xb6>
 8008328:	2301      	movs	r3, #1
 800832a:	4652      	mov	r2, sl
 800832c:	4639      	mov	r1, r7
 800832e:	4630      	mov	r0, r6
 8008330:	47c0      	blx	r8
 8008332:	3001      	adds	r0, #1
 8008334:	d103      	bne.n	800833e <_printf_common+0xba>
 8008336:	f04f 30ff 	mov.w	r0, #4294967295	; 0xffffffff
 800833a:	e8bd 87f0 	ldmia.w	sp!, {r4, r5, r6, r7, r8, r9, sl, pc}
 800833e:	3501      	adds	r5, #1
 8008340:	e7c3      	b.n	80082ca <_printf_common+0x46>
 8008342:	18e1      	adds	r1, r4, r3
 8008344:	1c5a      	adds	r2, r3, #1
 8008346:	2030      	movs	r0, #48	; 0x30
 8008348:	f881 0043 	strb.w	r0, [r1, #67]	; 0x43
 800834c:	4422      	add	r2, r4
 800834e:	f894 1045 	ldrb.w	r1, [r4, #69]	; 0x45
 8008352:	f882 1043 	strb.w	r1, [r2, #67]	; 0x43
 8008356:	3302      	adds	r3, #2
 8008358:	e7c5      	b.n	80082e6 <_printf_common+0x62>
 800835a:	2301      	movs	r3, #1
 800835c:	4622      	mov	r2, r4
 800835e:	4639      	mov	r1, r7
 8008360:	4630      	mov	r0, r6
 8008362:	47c0      	blx	r8
 8008364:	3001      	adds	r0, #1
 8008366:	d0e6      	beq.n	8008336 <_printf_common+0xb2>
 8008368:	f109 0901 	add.w	r9, r9, #1
 800836c:	e7d8      	b.n	8008320 <_printf_common+0x9c>
	...

08008370 <_printf_i>:
 8008370:	e92d 43f0 	stmdb	sp!, {r4, r5, r6, r7, r8, r9, lr}
 8008374:	f101 0c43 	add.w	ip, r1, #67	; 0x43
 8008378:	460c      	mov	r4, r1
 800837a:	7e09      	ldrb	r1, [r1, #24]
 800837c:	b085      	sub	sp, #20
 800837e:	296e      	cmp	r1, #110	; 0x6e
 8008380:	4617      	mov	r7, r2
 8008382:	4606      	mov	r6, r0
 8008384:	4698      	mov	r8, r3
 8008386:	9a0c      	ldr	r2, [sp, #48]	; 0x30
 8008388:	f000 80b3 	beq.w	80084f2 <_printf_i+0x182>
 800838c:	d822      	bhi.n	80083d4 <_printf_i+0x64>
 800838e:	2963      	cmp	r1, #99	; 0x63
 8008390:	d036      	beq.n	8008400 <_printf_i+0x90>
 8008392:	d80a      	bhi.n	80083aa <_printf_i+0x3a>
 8008394:	2900      	cmp	r1, #0
 8008396:	f000 80b9 	beq.w	800850c <_printf_i+0x19c>
 800839a:	2958      	cmp	r1, #88	; 0x58
 800839c:	f000 8083 	beq.w	80084a6 <_printf_i+0x136>
 80083a0:	f104 0542 	add.w	r5, r4, #66	; 0x42
 80083a4:	f884 1042 	strb.w	r1, [r4, #66]	; 0x42
 80083a8:	e032      	b.n	8008410 <_printf_i+0xa0>
 80083aa:	2964      	cmp	r1, #100	; 0x64
 80083ac:	d001      	beq.n	80083b2 <_printf_i+0x42>
 80083ae:	2969      	cmp	r1, #105	; 0x69
 80083b0:	d1f6      	bne.n	80083a0 <_printf_i+0x30>
 80083b2:	6820      	ldr	r0, [r4, #0]
 80083b4:	6813      	ldr	r3, [r2, #0]
 80083b6:	0605      	lsls	r5, r0, #24
 80083b8:	f103 0104 	add.w	r1, r3, #4
 80083bc:	d52a      	bpl.n	8008414 <_printf_i+0xa4>
 80083be:	681b      	ldr	r3, [r3, #0]
 80083c0:	6011      	str	r1, [r2, #0]
 80083c2:	2b00      	cmp	r3, #0
 80083c4:	da03      	bge.n	80083ce <_printf_i+0x5e>
 80083c6:	222d      	movs	r2, #45	; 0x2d
 80083c8:	425b      	negs	r3, r3
 80083ca:	f884 2043 	strb.w	r2, [r4, #67]	; 0x43
 80083ce:	486f      	ldr	r0, [pc, #444]	; (800858c <_printf_i+0x21c>)
 80083d0:	220a      	movs	r2, #10
 80083d2:	e039      	b.n	8008448 <_printf_i+0xd8>
 80083d4:	2973      	cmp	r1, #115	; 0x73
 80083d6:	f000 809d 	beq.w	8008514 <_printf_i+0x1a4>
 80083da:	d808      	bhi.n	80083ee <_printf_i+0x7e>
 80083dc:	296f      	cmp	r1, #111	; 0x6f
 80083de:	d020      	beq.n	8008422 <_printf_i+0xb2>
 80083e0:	2970      	cmp	r1, #112	; 0x70
 80083e2:	d1dd      	bne.n	80083a0 <_printf_i+0x30>
 80083e4:	6823      	ldr	r3, [r4, #0]
 80083e6:	f043 0320 	orr.w	r3, r3, #32
 80083ea:	6023      	str	r3, [r4, #0]
 80083ec:	e003      	b.n	80083f6 <_printf_i+0x86>
 80083ee:	2975      	cmp	r1, #117	; 0x75
 80083f0:	d017      	beq.n	8008422 <_printf_i+0xb2>
 80083f2:	2978      	cmp	r1, #120	; 0x78
 80083f4:	d1d4      	bne.n	80083a0 <_printf_i+0x30>
 80083f6:	2378      	movs	r3, #120	; 0x78
 80083f8:	f884 3045 	strb.w	r3, [r4, #69]	; 0x45
 80083fc:	4864      	ldr	r0, [pc, #400]	; (8008590 <_printf_i+0x220>)
 80083fe:	e055      	b.n	80084ac <_printf_i+0x13c>
 8008400:	6813      	ldr	r3, [r2, #0]
 8008402:	1d19      	adds	r1, r3, #4
 8008404:	681b      	ldr	r3, [r3, #0]
 8008406:	6011      	str	r1, [r2, #0]
 8008408:	f104 0542 	add.w	r5, r4, #66	; 0x42
 800840c:	f884 3042 	strb.w	r3, [r4, #66]	; 0x42
 8008410:	2301      	movs	r3, #1
 8008412:	e08c      	b.n	800852e <_printf_i+0x1be>
 8008414:	681b      	ldr	r3, [r3, #0]
 8008416:	6011      	str	r1, [r2, #0]
 8008418:	f010 0f40 	tst.w	r0, #64	; 0x40
 800841c:	bf18      	it	ne
 800841e:	b21b      	sxthne	r3, r3
 8008420:	e7cf      	b.n	80083c2 <_printf_i+0x52>
 8008422:	6813      	ldr	r3, [r2, #0]
 8008424:	6825      	ldr	r5, [r4, #0]
 8008426:	1d18      	adds	r0, r3, #4
 8008428:	6010      	str	r0, [r2, #0]
 800842a:	0628      	lsls	r0, r5, #24
 800842c:	d501      	bpl.n	8008432 <_printf_i+0xc2>
 800842e:	681b      	ldr	r3, [r3, #0]
 8008430:	e002      	b.n	8008438 <_printf_i+0xc8>
 8008432:	0668      	lsls	r0, r5, #25
 8008434:	d5fb      	bpl.n	800842e <_printf_i+0xbe>
 8008436:	881b      	ldrh	r3, [r3, #0]
 8008438:	4854      	ldr	r0, [pc, #336]	; (800858c <_printf_i+0x21c>)
 800843a:	296f      	cmp	r1, #111	; 0x6f
 800843c:	bf14      	ite	ne
 800843e:	220a      	movne	r2, #10
 8008440:	2208      	moveq	r2, #8
 8008442:	2100      	movs	r1, #0
 8008444:	f884 1043 	strb.w	r1, [r4, #67]	; 0x43
 8008448:	6865      	ldr	r5, [r4, #4]
 800844a:	60a5      	str	r5, [r4, #8]
 800844c:	2d00      	cmp	r5, #0
 800844e:	f2c0 8095 	blt.w	800857c <_printf_i+0x20c>
 8008452:	6821      	ldr	r1, [r4, #0]
 8008454:	f021 0104 	bic.w	r1, r1, #4
 8008458:	6021      	str	r1, [r4, #0]
 800845a:	2b00      	cmp	r3, #0
 800845c:	d13d      	bne.n	80084da <_printf_i+0x16a>
 800845e:	2d00      	cmp	r5, #0
 8008460:	f040 808e 	bne.w	8008580 <_printf_i+0x210>
 8008464:	4665      	mov	r5, ip
 8008466:	2a08      	cmp	r2, #8
 8008468:	d10b      	bne.n	8008482 <_printf_i+0x112>
 800846a:	6823      	ldr	r3, [r4, #0]
 800846c:	07db      	lsls	r3, r3, #31
 800846e:	d508      	bpl.n	8008482 <_printf_i+0x112>
 8008470:	6923      	ldr	r3, [r4, #16]
 8008472:	6862      	ldr	r2, [r4, #4]
 8008474:	429a      	cmp	r2, r3
 8008476:	bfde      	ittt	le
 8008478:	2330      	movle	r3, #48	; 0x30
 800847a:	f805 3c01 	strble.w	r3, [r5, #-1]
 800847e:	f105 35ff 	addle.w	r5, r5, #4294967295	; 0xffffffff
 8008482:	ebac 0305 	sub.w	r3, ip, r5
 8008486:	6123      	str	r3, [r4, #16]
 8008488:	f8cd 8000 	str.w	r8, [sp]
 800848c:	463b      	mov	r3, r7
 800848e:	aa03      	add	r2, sp, #12
 8008490:	4621      	mov	r1, r4
 8008492:	4630      	mov	r0, r6
 8008494:	f7ff fef6 	bl	8008284 <_printf_common>
 8008498:	3001      	adds	r0, #1
 800849a:	d14d      	bne.n	8008538 <_printf_i+0x1c8>
 800849c:	f04f 30ff 	mov.w	r0, #4294967295	; 0xffffffff
 80084a0:	b005      	add	sp, #20
 80084a2:	e8bd 83f0 	ldmia.w	sp!, {r4, r5, r6, r7, r8, r9, pc}
 80084a6:	4839      	ldr	r0, [pc, #228]	; (800858c <_printf_i+0x21c>)
 80084a8:	f884 1045 	strb.w	r1, [r4, #69]	; 0x45
 80084ac:	6813      	ldr	r3, [r2, #0]
 80084ae:	6821      	ldr	r1, [r4, #0]
 80084b0:	1d1d      	adds	r5, r3, #4
 80084b2:	681b      	ldr	r3, [r3, #0]
 80084b4:	6015      	str	r5, [r2, #0]
 80084b6:	060a      	lsls	r2, r1, #24
 80084b8:	d50b      	bpl.n	80084d2 <_printf_i+0x162>
 80084ba:	07ca      	lsls	r2, r1, #31
 80084bc:	bf44      	itt	mi
 80084be:	f041 0120 	orrmi.w	r1, r1, #32
 80084c2:	6021      	strmi	r1, [r4, #0]
 80084c4:	b91b      	cbnz	r3, 80084ce <_printf_i+0x15e>
 80084c6:	6822      	ldr	r2, [r4, #0]
 80084c8:	f022 0220 	bic.w	r2, r2, #32
 80084cc:	6022      	str	r2, [r4, #0]
 80084ce:	2210      	movs	r2, #16
 80084d0:	e7b7      	b.n	8008442 <_printf_i+0xd2>
 80084d2:	064d      	lsls	r5, r1, #25
 80084d4:	bf48      	it	mi
 80084d6:	b29b      	uxthmi	r3, r3
 80084d8:	e7ef      	b.n	80084ba <_printf_i+0x14a>
 80084da:	4665      	mov	r5, ip
 80084dc:	fbb3 f1f2 	udiv	r1, r3, r2
 80084e0:	fb02 3311 	mls	r3, r2, r1, r3
 80084e4:	5cc3      	ldrb	r3, [r0, r3]
 80084e6:	f805 3d01 	strb.w	r3, [r5, #-1]!
 80084ea:	460b      	mov	r3, r1
 80084ec:	2900      	cmp	r1, #0
 80084ee:	d1f5      	bne.n	80084dc <_printf_i+0x16c>
 80084f0:	e7b9      	b.n	8008466 <_printf_i+0xf6>
 80084f2:	6813      	ldr	r3, [r2, #0]
 80084f4:	6825      	ldr	r5, [r4, #0]
 80084f6:	6961      	ldr	r1, [r4, #20]
 80084f8:	1d18      	adds	r0, r3, #4
 80084fa:	6010      	str	r0, [r2, #0]
 80084fc:	0628      	lsls	r0, r5, #24
 80084fe:	681b      	ldr	r3, [r3, #0]
 8008500:	d501      	bpl.n	8008506 <_printf_i+0x196>
 8008502:	6019      	str	r1, [r3, #0]
 8008504:	e002      	b.n	800850c <_printf_i+0x19c>
 8008506:	066a      	lsls	r2, r5, #25
 8008508:	d5fb      	bpl.n	8008502 <_printf_i+0x192>
 800850a:	8019      	strh	r1, [r3, #0]
 800850c:	2300      	movs	r3, #0
 800850e:	6123      	str	r3, [r4, #16]
 8008510:	4665      	mov	r5, ip
 8008512:	e7b9      	b.n	8008488 <_printf_i+0x118>
 8008514:	6813      	ldr	r3, [r2, #0]
 8008516:	1d19      	adds	r1, r3, #4
 8008518:	6011      	str	r1, [r2, #0]
 800851a:	681d      	ldr	r5, [r3, #0]
 800851c:	6862      	ldr	r2, [r4, #4]
 800851e:	2100      	movs	r1, #0
 8008520:	4628      	mov	r0, r5
 8008522:	f7f7 fe5d 	bl	80001e0 <memchr>
 8008526:	b108      	cbz	r0, 800852c <_printf_i+0x1bc>
 8008528:	1b40      	subs	r0, r0, r5
 800852a:	6060      	str	r0, [r4, #4]
 800852c:	6863      	ldr	r3, [r4, #4]
 800852e:	6123      	str	r3, [r4, #16]
 8008530:	2300      	movs	r3, #0
 8008532:	f884 3043 	strb.w	r3, [r4, #67]	; 0x43
 8008536:	e7a7      	b.n	8008488 <_printf_i+0x118>
 8008538:	6923      	ldr	r3, [r4, #16]
 800853a:	462a      	mov	r2, r5
 800853c:	4639      	mov	r1, r7
 800853e:	4630      	mov	r0, r6
 8008540:	47c0      	blx	r8
 8008542:	3001      	adds	r0, #1
 8008544:	d0aa      	beq.n	800849c <_printf_i+0x12c>
 8008546:	6823      	ldr	r3, [r4, #0]
 8008548:	079b      	lsls	r3, r3, #30
 800854a:	d413      	bmi.n	8008574 <_printf_i+0x204>
 800854c:	68e0      	ldr	r0, [r4, #12]
 800854e:	9b03      	ldr	r3, [sp, #12]
 8008550:	4298      	cmp	r0, r3
 8008552:	bfb8      	it	lt
 8008554:	4618      	movlt	r0, r3
 8008556:	e7a3      	b.n	80084a0 <_printf_i+0x130>
 8008558:	2301      	movs	r3, #1
 800855a:	464a      	mov	r2, r9
 800855c:	4639      	mov	r1, r7
 800855e:	4630      	mov	r0, r6
 8008560:	47c0      	blx	r8
 8008562:	3001      	adds	r0, #1
 8008564:	d09a      	beq.n	800849c <_printf_i+0x12c>
 8008566:	3501      	adds	r5, #1
 8008568:	68e3      	ldr	r3, [r4, #12]
 800856a:	9a03      	ldr	r2, [sp, #12]
 800856c:	1a9b      	subs	r3, r3, r2
 800856e:	42ab      	cmp	r3, r5
 8008570:	dcf2      	bgt.n	8008558 <_printf_i+0x1e8>
 8008572:	e7eb      	b.n	800854c <_printf_i+0x1dc>
 8008574:	2500      	movs	r5, #0
 8008576:	f104 0919 	add.w	r9, r4, #25
 800857a:	e7f5      	b.n	8008568 <_printf_i+0x1f8>
 800857c:	2b00      	cmp	r3, #0
 800857e:	d1ac      	bne.n	80084da <_printf_i+0x16a>
 8008580:	7803      	ldrb	r3, [r0, #0]
 8008582:	f884 3042 	strb.w	r3, [r4, #66]	; 0x42
 8008586:	f104 0542 	add.w	r5, r4, #66	; 0x42
 800858a:	e76c      	b.n	8008466 <_printf_i+0xf6>
 800858c:	0800b896 	.word	0x0800b896
 8008590:	0800b8a7 	.word	0x0800b8a7

08008594 <iprintf>:
 8008594:	b40f      	push	{r0, r1, r2, r3}
 8008596:	4b0a      	ldr	r3, [pc, #40]	; (80085c0 <iprintf+0x2c>)
 8008598:	b513      	push	{r0, r1, r4, lr}
 800859a:	681c      	ldr	r4, [r3, #0]
 800859c:	b124      	cbz	r4, 80085a8 <iprintf+0x14>
 800859e:	69a3      	ldr	r3, [r4, #24]
 80085a0:	b913      	cbnz	r3, 80085a8 <iprintf+0x14>
 80085a2:	4620      	mov	r0, r4
 80085a4:	f001 f890 	bl	80096c8 <__sinit>
 80085a8:	ab05      	add	r3, sp, #20
 80085aa:	9a04      	ldr	r2, [sp, #16]
 80085ac:	68a1      	ldr	r1, [r4, #8]
 80085ae:	9301      	str	r3, [sp, #4]
 80085b0:	4620      	mov	r0, r4
 80085b2:	f001 fea5 	bl	800a300 <_vfiprintf_r>
 80085b6:	b002      	add	sp, #8
 80085b8:	e8bd 4010 	ldmia.w	sp!, {r4, lr}
 80085bc:	b004      	add	sp, #16
 80085be:	4770      	bx	lr
 80085c0:	200007e4 	.word	0x200007e4

080085c4 <_puts_r>:
 80085c4:	b570      	push	{r4, r5, r6, lr}
 80085c6:	460e      	mov	r6, r1
 80085c8:	4605      	mov	r5, r0
 80085ca:	b118      	cbz	r0, 80085d4 <_puts_r+0x10>
 80085cc:	6983      	ldr	r3, [r0, #24]
 80085ce:	b90b      	cbnz	r3, 80085d4 <_puts_r+0x10>
 80085d0:	f001 f87a 	bl	80096c8 <__sinit>
 80085d4:	69ab      	ldr	r3, [r5, #24]
 80085d6:	68ac      	ldr	r4, [r5, #8]
 80085d8:	b913      	cbnz	r3, 80085e0 <_puts_r+0x1c>
 80085da:	4628      	mov	r0, r5
 80085dc:	f001 f874 	bl	80096c8 <__sinit>
 80085e0:	4b23      	ldr	r3, [pc, #140]	; (8008670 <_puts_r+0xac>)
 80085e2:	429c      	cmp	r4, r3
 80085e4:	d117      	bne.n	8008616 <_puts_r+0x52>
 80085e6:	686c      	ldr	r4, [r5, #4]
 80085e8:	89a3      	ldrh	r3, [r4, #12]
 80085ea:	071b      	lsls	r3, r3, #28
 80085ec:	d51d      	bpl.n	800862a <_puts_r+0x66>
 80085ee:	6923      	ldr	r3, [r4, #16]
 80085f0:	b1db      	cbz	r3, 800862a <_puts_r+0x66>
 80085f2:	3e01      	subs	r6, #1
 80085f4:	68a3      	ldr	r3, [r4, #8]
 80085f6:	f816 1f01 	ldrb.w	r1, [r6, #1]!
 80085fa:	3b01      	subs	r3, #1
 80085fc:	60a3      	str	r3, [r4, #8]
 80085fe:	b9e9      	cbnz	r1, 800863c <_puts_r+0x78>
 8008600:	2b00      	cmp	r3, #0
 8008602:	da2e      	bge.n	8008662 <_puts_r+0x9e>
 8008604:	4622      	mov	r2, r4
 8008606:	210a      	movs	r1, #10
 8008608:	4628      	mov	r0, r5
 800860a:	f000 f867 	bl	80086dc <__swbuf_r>
 800860e:	3001      	adds	r0, #1
 8008610:	d011      	beq.n	8008636 <_puts_r+0x72>
 8008612:	200a      	movs	r0, #10
 8008614:	e011      	b.n	800863a <_puts_r+0x76>
 8008616:	4b17      	ldr	r3, [pc, #92]	; (8008674 <_puts_r+0xb0>)
 8008618:	429c      	cmp	r4, r3
 800861a:	d101      	bne.n	8008620 <_puts_r+0x5c>
 800861c:	68ac      	ldr	r4, [r5, #8]
 800861e:	e7e3      	b.n	80085e8 <_puts_r+0x24>
 8008620:	4b15      	ldr	r3, [pc, #84]	; (8008678 <_puts_r+0xb4>)
 8008622:	429c      	cmp	r4, r3
 8008624:	bf08      	it	eq
 8008626:	68ec      	ldreq	r4, [r5, #12]
 8008628:	e7de      	b.n	80085e8 <_puts_r+0x24>
 800862a:	4621      	mov	r1, r4
 800862c:	4628      	mov	r0, r5
 800862e:	f000 f8a7 	bl	8008780 <__swsetup_r>
 8008632:	2800      	cmp	r0, #0
 8008634:	d0dd      	beq.n	80085f2 <_puts_r+0x2e>
 8008636:	f04f 30ff 	mov.w	r0, #4294967295	; 0xffffffff
 800863a:	bd70      	pop	{r4, r5, r6, pc}
 800863c:	2b00      	cmp	r3, #0
 800863e:	da04      	bge.n	800864a <_puts_r+0x86>
 8008640:	69a2      	ldr	r2, [r4, #24]
 8008642:	429a      	cmp	r2, r3
 8008644:	dc06      	bgt.n	8008654 <_puts_r+0x90>
 8008646:	290a      	cmp	r1, #10
 8008648:	d004      	beq.n	8008654 <_puts_r+0x90>
 800864a:	6823      	ldr	r3, [r4, #0]
 800864c:	1c5a      	adds	r2, r3, #1
 800864e:	6022      	str	r2, [r4, #0]
 8008650:	7019      	strb	r1, [r3, #0]
 8008652:	e7cf      	b.n	80085f4 <_puts_r+0x30>
 8008654:	4622      	mov	r2, r4
 8008656:	4628      	mov	r0, r5
 8008658:	f000 f840 	bl	80086dc <__swbuf_r>
 800865c:	3001      	adds	r0, #1
 800865e:	d1c9      	bne.n	80085f4 <_puts_r+0x30>
 8008660:	e7e9      	b.n	8008636 <_puts_r+0x72>
 8008662:	6823      	ldr	r3, [r4, #0]
 8008664:	200a      	movs	r0, #10
 8008666:	1c5a      	adds	r2, r3, #1
 8008668:	6022      	str	r2, [r4, #0]
 800866a:	7018      	strb	r0, [r3, #0]
 800866c:	e7e5      	b.n	800863a <_puts_r+0x76>
 800866e:	bf00      	nop
 8008670:	0800b8e8 	.word	0x0800b8e8
 8008674:	0800b908 	.word	0x0800b908
 8008678:	0800b8c8 	.word	0x0800b8c8

0800867c <puts>:
 800867c:	4b02      	ldr	r3, [pc, #8]	; (8008688 <puts+0xc>)
 800867e:	4601      	mov	r1, r0
 8008680:	6818      	ldr	r0, [r3, #0]
 8008682:	f7ff bf9f 	b.w	80085c4 <_puts_r>
 8008686:	bf00      	nop
 8008688:	200007e4 	.word	0x200007e4

0800868c <siprintf>:
 800868c:	b40e      	push	{r1, r2, r3}
 800868e:	b500      	push	{lr}
 8008690:	b09c      	sub	sp, #112	; 0x70
 8008692:	ab1d      	add	r3, sp, #116	; 0x74
 8008694:	9002      	str	r0, [sp, #8]
 8008696:	9006      	str	r0, [sp, #24]
 8008698:	f06f 4100 	mvn.w	r1, #2147483648	; 0x80000000
 800869c:	4809      	ldr	r0, [pc, #36]	; (80086c4 <siprintf+0x38>)
 800869e:	9107      	str	r1, [sp, #28]
 80086a0:	9104      	str	r1, [sp, #16]
 80086a2:	4909      	ldr	r1, [pc, #36]	; (80086c8 <siprintf+0x3c>)
 80086a4:	f853 2b04 	ldr.w	r2, [r3], #4
 80086a8:	9105      	str	r1, [sp, #20]
 80086aa:	6800      	ldr	r0, [r0, #0]
 80086ac:	9301      	str	r3, [sp, #4]
 80086ae:	a902      	add	r1, sp, #8
 80086b0:	f001 fd04 	bl	800a0bc <_svfiprintf_r>
 80086b4:	9b02      	ldr	r3, [sp, #8]
 80086b6:	2200      	movs	r2, #0
 80086b8:	701a      	strb	r2, [r3, #0]
 80086ba:	b01c      	add	sp, #112	; 0x70
 80086bc:	f85d eb04 	ldr.w	lr, [sp], #4
 80086c0:	b003      	add	sp, #12
 80086c2:	4770      	bx	lr
 80086c4:	200007e4 	.word	0x200007e4
 80086c8:	ffff0208 	.word	0xffff0208

080086cc <strcpy>:
 80086cc:	4603      	mov	r3, r0
 80086ce:	f811 2b01 	ldrb.w	r2, [r1], #1
 80086d2:	f803 2b01 	strb.w	r2, [r3], #1
 80086d6:	2a00      	cmp	r2, #0
 80086d8:	d1f9      	bne.n	80086ce <strcpy+0x2>
 80086da:	4770      	bx	lr

080086dc <__swbuf_r>:
 80086dc:	b5f8      	push	{r3, r4, r5, r6, r7, lr}
 80086de:	460e      	mov	r6, r1
 80086e0:	4614      	mov	r4, r2
 80086e2:	4605      	mov	r5, r0
 80086e4:	b118      	cbz	r0, 80086ee <__swbuf_r+0x12>
 80086e6:	6983      	ldr	r3, [r0, #24]
 80086e8:	b90b      	cbnz	r3, 80086ee <__swbuf_r+0x12>
 80086ea:	f000 ffed 	bl	80096c8 <__sinit>
 80086ee:	4b21      	ldr	r3, [pc, #132]	; (8008774 <__swbuf_r+0x98>)
 80086f0:	429c      	cmp	r4, r3
 80086f2:	d12a      	bne.n	800874a <__swbuf_r+0x6e>
 80086f4:	686c      	ldr	r4, [r5, #4]
 80086f6:	69a3      	ldr	r3, [r4, #24]
 80086f8:	60a3      	str	r3, [r4, #8]
 80086fa:	89a3      	ldrh	r3, [r4, #12]
 80086fc:	071a      	lsls	r2, r3, #28
 80086fe:	d52e      	bpl.n	800875e <__swbuf_r+0x82>
 8008700:	6923      	ldr	r3, [r4, #16]
 8008702:	b363      	cbz	r3, 800875e <__swbuf_r+0x82>
 8008704:	6923      	ldr	r3, [r4, #16]
 8008706:	6820      	ldr	r0, [r4, #0]
 8008708:	1ac0      	subs	r0, r0, r3
 800870a:	6963      	ldr	r3, [r4, #20]
 800870c:	b2f6      	uxtb	r6, r6
 800870e:	4283      	cmp	r3, r0
 8008710:	4637      	mov	r7, r6
 8008712:	dc04      	bgt.n	800871e <__swbuf_r+0x42>
 8008714:	4621      	mov	r1, r4
 8008716:	4628      	mov	r0, r5
 8008718:	f000 ff6c 	bl	80095f4 <_fflush_r>
 800871c:	bb28      	cbnz	r0, 800876a <__swbuf_r+0x8e>
 800871e:	68a3      	ldr	r3, [r4, #8]
 8008720:	3b01      	subs	r3, #1
 8008722:	60a3      	str	r3, [r4, #8]
 8008724:	6823      	ldr	r3, [r4, #0]
 8008726:	1c5a      	adds	r2, r3, #1
 8008728:	6022      	str	r2, [r4, #0]
 800872a:	701e      	strb	r6, [r3, #0]
 800872c:	6963      	ldr	r3, [r4, #20]
 800872e:	3001      	adds	r0, #1
 8008730:	4283      	cmp	r3, r0
 8008732:	d004      	beq.n	800873e <__swbuf_r+0x62>
 8008734:	89a3      	ldrh	r3, [r4, #12]
 8008736:	07db      	lsls	r3, r3, #31
 8008738:	d519      	bpl.n	800876e <__swbuf_r+0x92>
 800873a:	2e0a      	cmp	r6, #10
 800873c:	d117      	bne.n	800876e <__swbuf_r+0x92>
 800873e:	4621      	mov	r1, r4
 8008740:	4628      	mov	r0, r5
 8008742:	f000 ff57 	bl	80095f4 <_fflush_r>
 8008746:	b190      	cbz	r0, 800876e <__swbuf_r+0x92>
 8008748:	e00f      	b.n	800876a <__swbuf_r+0x8e>
 800874a:	4b0b      	ldr	r3, [pc, #44]	; (8008778 <__swbuf_r+0x9c>)
 800874c:	429c      	cmp	r4, r3
 800874e:	d101      	bne.n	8008754 <__swbuf_r+0x78>
 8008750:	68ac      	ldr	r4, [r5, #8]
 8008752:	e7d0      	b.n	80086f6 <__swbuf_r+0x1a>
 8008754:	4b09      	ldr	r3, [pc, #36]	; (800877c <__swbuf_r+0xa0>)
 8008756:	429c      	cmp	r4, r3
 8008758:	bf08      	it	eq
 800875a:	68ec      	ldreq	r4, [r5, #12]
 800875c:	e7cb      	b.n	80086f6 <__swbuf_r+0x1a>
 800875e:	4621      	mov	r1, r4
 8008760:	4628      	mov	r0, r5
 8008762:	f000 f80d 	bl	8008780 <__swsetup_r>
 8008766:	2800      	cmp	r0, #0
 8008768:	d0cc      	beq.n	8008704 <__swbuf_r+0x28>
 800876a:	f04f 37ff 	mov.w	r7, #4294967295	; 0xffffffff
 800876e:	4638      	mov	r0, r7
 8008770:	bdf8      	pop	{r3, r4, r5, r6, r7, pc}
 8008772:	bf00      	nop
 8008774:	0800b8e8 	.word	0x0800b8e8
 8008778:	0800b908 	.word	0x0800b908
 800877c:	0800b8c8 	.word	0x0800b8c8

08008780 <__swsetup_r>:
 8008780:	4b32      	ldr	r3, [pc, #200]	; (800884c <__swsetup_r+0xcc>)
 8008782:	b570      	push	{r4, r5, r6, lr}
 8008784:	681d      	ldr	r5, [r3, #0]
 8008786:	4606      	mov	r6, r0
 8008788:	460c      	mov	r4, r1
 800878a:	b125      	cbz	r5, 8008796 <__swsetup_r+0x16>
 800878c:	69ab      	ldr	r3, [r5, #24]
 800878e:	b913      	cbnz	r3, 8008796 <__swsetup_r+0x16>
 8008790:	4628      	mov	r0, r5
 8008792:	f000 ff99 	bl	80096c8 <__sinit>
 8008796:	4b2e      	ldr	r3, [pc, #184]	; (8008850 <__swsetup_r+0xd0>)
 8008798:	429c      	cmp	r4, r3
 800879a:	d10f      	bne.n	80087bc <__swsetup_r+0x3c>
 800879c:	686c      	ldr	r4, [r5, #4]
 800879e:	f9b4 300c 	ldrsh.w	r3, [r4, #12]
 80087a2:	b29a      	uxth	r2, r3
 80087a4:	0715      	lsls	r5, r2, #28
 80087a6:	d42c      	bmi.n	8008802 <__swsetup_r+0x82>
 80087a8:	06d0      	lsls	r0, r2, #27
 80087aa:	d411      	bmi.n	80087d0 <__swsetup_r+0x50>
 80087ac:	2209      	movs	r2, #9
 80087ae:	6032      	str	r2, [r6, #0]
 80087b0:	f043 0340 	orr.w	r3, r3, #64	; 0x40
 80087b4:	81a3      	strh	r3, [r4, #12]
 80087b6:	f04f 30ff 	mov.w	r0, #4294967295	; 0xffffffff
 80087ba:	e03e      	b.n	800883a <__swsetup_r+0xba>
 80087bc:	4b25      	ldr	r3, [pc, #148]	; (8008854 <__swsetup_r+0xd4>)
 80087be:	429c      	cmp	r4, r3
 80087c0:	d101      	bne.n	80087c6 <__swsetup_r+0x46>
 80087c2:	68ac      	ldr	r4, [r5, #8]
 80087c4:	e7eb      	b.n	800879e <__swsetup_r+0x1e>
 80087c6:	4b24      	ldr	r3, [pc, #144]	; (8008858 <__swsetup_r+0xd8>)
 80087c8:	429c      	cmp	r4, r3
 80087ca:	bf08      	it	eq
 80087cc:	68ec      	ldreq	r4, [r5, #12]
 80087ce:	e7e6      	b.n	800879e <__swsetup_r+0x1e>
 80087d0:	0751      	lsls	r1, r2, #29
 80087d2:	d512      	bpl.n	80087fa <__swsetup_r+0x7a>
 80087d4:	6b61      	ldr	r1, [r4, #52]	; 0x34
 80087d6:	b141      	cbz	r1, 80087ea <__swsetup_r+0x6a>
 80087d8:	f104 0344 	add.w	r3, r4, #68	; 0x44
 80087dc:	4299      	cmp	r1, r3
 80087de:	d002      	beq.n	80087e6 <__swsetup_r+0x66>
 80087e0:	4630      	mov	r0, r6
 80087e2:	f001 fb69 	bl	8009eb8 <_free_r>
 80087e6:	2300      	movs	r3, #0
 80087e8:	6363      	str	r3, [r4, #52]	; 0x34
 80087ea:	89a3      	ldrh	r3, [r4, #12]
 80087ec:	f023 0324 	bic.w	r3, r3, #36	; 0x24
 80087f0:	81a3      	strh	r3, [r4, #12]
 80087f2:	2300      	movs	r3, #0
 80087f4:	6063      	str	r3, [r4, #4]
 80087f6:	6923      	ldr	r3, [r4, #16]
 80087f8:	6023      	str	r3, [r4, #0]
 80087fa:	89a3      	ldrh	r3, [r4, #12]
 80087fc:	f043 0308 	orr.w	r3, r3, #8
 8008800:	81a3      	strh	r3, [r4, #12]
 8008802:	6923      	ldr	r3, [r4, #16]
 8008804:	b94b      	cbnz	r3, 800881a <__swsetup_r+0x9a>
 8008806:	89a3      	ldrh	r3, [r4, #12]
 8008808:	f403 7320 	and.w	r3, r3, #640	; 0x280
 800880c:	f5b3 7f00 	cmp.w	r3, #512	; 0x200
 8008810:	d003      	beq.n	800881a <__swsetup_r+0x9a>
 8008812:	4621      	mov	r1, r4
 8008814:	4630      	mov	r0, r6
 8008816:	f001 f813 	bl	8009840 <__smakebuf_r>
 800881a:	89a2      	ldrh	r2, [r4, #12]
 800881c:	f012 0301 	ands.w	r3, r2, #1
 8008820:	d00c      	beq.n	800883c <__swsetup_r+0xbc>
 8008822:	2300      	movs	r3, #0
 8008824:	60a3      	str	r3, [r4, #8]
 8008826:	6963      	ldr	r3, [r4, #20]
 8008828:	425b      	negs	r3, r3
 800882a:	61a3      	str	r3, [r4, #24]
 800882c:	6923      	ldr	r3, [r4, #16]
 800882e:	b953      	cbnz	r3, 8008846 <__swsetup_r+0xc6>
 8008830:	f9b4 300c 	ldrsh.w	r3, [r4, #12]
 8008834:	f013 0080 	ands.w	r0, r3, #128	; 0x80
 8008838:	d1ba      	bne.n	80087b0 <__swsetup_r+0x30>
 800883a:	bd70      	pop	{r4, r5, r6, pc}
 800883c:	0792      	lsls	r2, r2, #30
 800883e:	bf58      	it	pl
 8008840:	6963      	ldrpl	r3, [r4, #20]
 8008842:	60a3      	str	r3, [r4, #8]
 8008844:	e7f2      	b.n	800882c <__swsetup_r+0xac>
 8008846:	2000      	movs	r0, #0
 8008848:	e7f7      	b.n	800883a <__swsetup_r+0xba>
 800884a:	bf00      	nop
 800884c:	200007e4 	.word	0x200007e4
 8008850:	0800b8e8 	.word	0x0800b8e8
 8008854:	0800b908 	.word	0x0800b908
 8008858:	0800b8c8 	.word	0x0800b8c8

0800885c <quorem>:
 800885c:	e92d 4ff7 	stmdb	sp!, {r0, r1, r2, r4, r5, r6, r7, r8, r9, sl, fp, lr}
 8008860:	6903      	ldr	r3, [r0, #16]
 8008862:	690c      	ldr	r4, [r1, #16]
 8008864:	42a3      	cmp	r3, r4
 8008866:	4680      	mov	r8, r0
 8008868:	f2c0 8082 	blt.w	8008970 <quorem+0x114>
 800886c:	3c01      	subs	r4, #1
 800886e:	f101 0714 	add.w	r7, r1, #20
 8008872:	ea4f 0c84 	mov.w	ip, r4, lsl #2
 8008876:	f100 0614 	add.w	r6, r0, #20
 800887a:	f857 5024 	ldr.w	r5, [r7, r4, lsl #2]
 800887e:	f856 0024 	ldr.w	r0, [r6, r4, lsl #2]
 8008882:	eb06 030c 	add.w	r3, r6, ip
 8008886:	3501      	adds	r5, #1
 8008888:	eb07 090c 	add.w	r9, r7, ip
 800888c:	9301      	str	r3, [sp, #4]
 800888e:	fbb0 f5f5 	udiv	r5, r0, r5
 8008892:	b395      	cbz	r5, 80088fa <quorem+0x9e>
 8008894:	f04f 0a00 	mov.w	sl, #0
 8008898:	4638      	mov	r0, r7
 800889a:	46b6      	mov	lr, r6
 800889c:	46d3      	mov	fp, sl
 800889e:	f850 2b04 	ldr.w	r2, [r0], #4
 80088a2:	b293      	uxth	r3, r2
 80088a4:	fb05 a303 	mla	r3, r5, r3, sl
 80088a8:	ea4f 4a13 	mov.w	sl, r3, lsr #16
 80088ac:	b29b      	uxth	r3, r3
 80088ae:	ebab 0303 	sub.w	r3, fp, r3
 80088b2:	0c12      	lsrs	r2, r2, #16
 80088b4:	f8de b000 	ldr.w	fp, [lr]
 80088b8:	fb05 a202 	mla	r2, r5, r2, sl
 80088bc:	fa13 f38b 	uxtah	r3, r3, fp
 80088c0:	ea4f 4a12 	mov.w	sl, r2, lsr #16
 80088c4:	fa1f fb82 	uxth.w	fp, r2
 80088c8:	f8de 2000 	ldr.w	r2, [lr]
 80088cc:	ebcb 4212 	rsb	r2, fp, r2, lsr #16
 80088d0:	eb02 4223 	add.w	r2, r2, r3, asr #16
 80088d4:	b29b      	uxth	r3, r3
 80088d6:	ea43 4302 	orr.w	r3, r3, r2, lsl #16
 80088da:	4581      	cmp	r9, r0
 80088dc:	ea4f 4b22 	mov.w	fp, r2, asr #16
 80088e0:	f84e 3b04 	str.w	r3, [lr], #4
 80088e4:	d2db      	bcs.n	800889e <quorem+0x42>
 80088e6:	f856 300c 	ldr.w	r3, [r6, ip]
 80088ea:	b933      	cbnz	r3, 80088fa <quorem+0x9e>
 80088ec:	9b01      	ldr	r3, [sp, #4]
 80088ee:	3b04      	subs	r3, #4
 80088f0:	429e      	cmp	r6, r3
 80088f2:	461a      	mov	r2, r3
 80088f4:	d330      	bcc.n	8008958 <quorem+0xfc>
 80088f6:	f8c8 4010 	str.w	r4, [r8, #16]
 80088fa:	4640      	mov	r0, r8
 80088fc:	f001 fa08 	bl	8009d10 <__mcmp>
 8008900:	2800      	cmp	r0, #0
 8008902:	db25      	blt.n	8008950 <quorem+0xf4>
 8008904:	3501      	adds	r5, #1
 8008906:	4630      	mov	r0, r6
 8008908:	f04f 0c00 	mov.w	ip, #0
 800890c:	f857 2b04 	ldr.w	r2, [r7], #4
 8008910:	f8d0 e000 	ldr.w	lr, [r0]
 8008914:	b293      	uxth	r3, r2
 8008916:	ebac 0303 	sub.w	r3, ip, r3
 800891a:	0c12      	lsrs	r2, r2, #16
 800891c:	fa13 f38e 	uxtah	r3, r3, lr
 8008920:	ebc2 421e 	rsb	r2, r2, lr, lsr #16
 8008924:	eb02 4223 	add.w	r2, r2, r3, asr #16
 8008928:	b29b      	uxth	r3, r3
 800892a:	ea43 4302 	orr.w	r3, r3, r2, lsl #16
 800892e:	45b9      	cmp	r9, r7
 8008930:	ea4f 4c22 	mov.w	ip, r2, asr #16
 8008934:	f840 3b04 	str.w	r3, [r0], #4
 8008938:	d2e8      	bcs.n	800890c <quorem+0xb0>
 800893a:	f856 2024 	ldr.w	r2, [r6, r4, lsl #2]
 800893e:	eb06 0384 	add.w	r3, r6, r4, lsl #2
 8008942:	b92a      	cbnz	r2, 8008950 <quorem+0xf4>
 8008944:	3b04      	subs	r3, #4
 8008946:	429e      	cmp	r6, r3
 8008948:	461a      	mov	r2, r3
 800894a:	d30b      	bcc.n	8008964 <quorem+0x108>
 800894c:	f8c8 4010 	str.w	r4, [r8, #16]
 8008950:	4628      	mov	r0, r5
 8008952:	b003      	add	sp, #12
 8008954:	e8bd 8ff0 	ldmia.w	sp!, {r4, r5, r6, r7, r8, r9, sl, fp, pc}
 8008958:	6812      	ldr	r2, [r2, #0]
 800895a:	3b04      	subs	r3, #4
 800895c:	2a00      	cmp	r2, #0
 800895e:	d1ca      	bne.n	80088f6 <quorem+0x9a>
 8008960:	3c01      	subs	r4, #1
 8008962:	e7c5      	b.n	80088f0 <quorem+0x94>
 8008964:	6812      	ldr	r2, [r2, #0]
 8008966:	3b04      	subs	r3, #4
 8008968:	2a00      	cmp	r2, #0
 800896a:	d1ef      	bne.n	800894c <quorem+0xf0>
 800896c:	3c01      	subs	r4, #1
 800896e:	e7ea      	b.n	8008946 <quorem+0xea>
 8008970:	2000      	movs	r0, #0
 8008972:	e7ee      	b.n	8008952 <quorem+0xf6>
 8008974:	0000      	movs	r0, r0
	...

08008978 <_dtoa_r>:
 8008978:	e92d 4ff0 	stmdb	sp!, {r4, r5, r6, r7, r8, r9, sl, fp, lr}
 800897c:	ec57 6b10 	vmov	r6, r7, d0
 8008980:	b097      	sub	sp, #92	; 0x5c
 8008982:	6a45      	ldr	r5, [r0, #36]	; 0x24
 8008984:	9106      	str	r1, [sp, #24]
 8008986:	4604      	mov	r4, r0
 8008988:	920b      	str	r2, [sp, #44]	; 0x2c
 800898a:	9312      	str	r3, [sp, #72]	; 0x48
 800898c:	f8dd 8080 	ldr.w	r8, [sp, #128]	; 0x80
 8008990:	e9cd 6700 	strd	r6, r7, [sp]
 8008994:	b93d      	cbnz	r5, 80089a6 <_dtoa_r+0x2e>
 8008996:	2010      	movs	r0, #16
 8008998:	f000 ff92 	bl	80098c0 <malloc>
 800899c:	6260      	str	r0, [r4, #36]	; 0x24
 800899e:	e9c0 5501 	strd	r5, r5, [r0, #4]
 80089a2:	6005      	str	r5, [r0, #0]
 80089a4:	60c5      	str	r5, [r0, #12]
 80089a6:	6a63      	ldr	r3, [r4, #36]	; 0x24
 80089a8:	6819      	ldr	r1, [r3, #0]
 80089aa:	b151      	cbz	r1, 80089c2 <_dtoa_r+0x4a>
 80089ac:	685a      	ldr	r2, [r3, #4]
 80089ae:	604a      	str	r2, [r1, #4]
 80089b0:	2301      	movs	r3, #1
 80089b2:	4093      	lsls	r3, r2
 80089b4:	608b      	str	r3, [r1, #8]
 80089b6:	4620      	mov	r0, r4
 80089b8:	f000 ffc9 	bl	800994e <_Bfree>
 80089bc:	6a63      	ldr	r3, [r4, #36]	; 0x24
 80089be:	2200      	movs	r2, #0
 80089c0:	601a      	str	r2, [r3, #0]
 80089c2:	1e3b      	subs	r3, r7, #0
 80089c4:	bfbb      	ittet	lt
 80089c6:	f023 4300 	biclt.w	r3, r3, #2147483648	; 0x80000000
 80089ca:	9301      	strlt	r3, [sp, #4]
 80089cc:	2300      	movge	r3, #0
 80089ce:	2201      	movlt	r2, #1
 80089d0:	bfac      	ite	ge
 80089d2:	f8c8 3000 	strge.w	r3, [r8]
 80089d6:	f8c8 2000 	strlt.w	r2, [r8]
 80089da:	4baf      	ldr	r3, [pc, #700]	; (8008c98 <_dtoa_r+0x320>)
 80089dc:	f8dd 8004 	ldr.w	r8, [sp, #4]
 80089e0:	ea33 0308 	bics.w	r3, r3, r8
 80089e4:	d114      	bne.n	8008a10 <_dtoa_r+0x98>
 80089e6:	9a12      	ldr	r2, [sp, #72]	; 0x48
 80089e8:	f242 730f 	movw	r3, #9999	; 0x270f
 80089ec:	6013      	str	r3, [r2, #0]
 80089ee:	9b00      	ldr	r3, [sp, #0]
 80089f0:	b923      	cbnz	r3, 80089fc <_dtoa_r+0x84>
 80089f2:	f3c8 0013 	ubfx	r0, r8, #0, #20
 80089f6:	2800      	cmp	r0, #0
 80089f8:	f000 8542 	beq.w	8009480 <_dtoa_r+0xb08>
 80089fc:	9b21      	ldr	r3, [sp, #132]	; 0x84
 80089fe:	f8df b2ac 	ldr.w	fp, [pc, #684]	; 8008cac <_dtoa_r+0x334>
 8008a02:	2b00      	cmp	r3, #0
 8008a04:	f000 8544 	beq.w	8009490 <_dtoa_r+0xb18>
 8008a08:	f10b 0303 	add.w	r3, fp, #3
 8008a0c:	f000 bd3e 	b.w	800948c <_dtoa_r+0xb14>
 8008a10:	e9dd 6700 	ldrd	r6, r7, [sp]
 8008a14:	2200      	movs	r2, #0
 8008a16:	2300      	movs	r3, #0
 8008a18:	4630      	mov	r0, r6
 8008a1a:	4639      	mov	r1, r7
 8008a1c:	f7f8 f854 	bl	8000ac8 <__aeabi_dcmpeq>
 8008a20:	4681      	mov	r9, r0
 8008a22:	b168      	cbz	r0, 8008a40 <_dtoa_r+0xc8>
 8008a24:	9a12      	ldr	r2, [sp, #72]	; 0x48
 8008a26:	2301      	movs	r3, #1
 8008a28:	6013      	str	r3, [r2, #0]
 8008a2a:	9b21      	ldr	r3, [sp, #132]	; 0x84
 8008a2c:	2b00      	cmp	r3, #0
 8008a2e:	f000 8524 	beq.w	800947a <_dtoa_r+0xb02>
 8008a32:	4b9a      	ldr	r3, [pc, #616]	; (8008c9c <_dtoa_r+0x324>)
 8008a34:	9a21      	ldr	r2, [sp, #132]	; 0x84
 8008a36:	f103 3bff 	add.w	fp, r3, #4294967295	; 0xffffffff
 8008a3a:	6013      	str	r3, [r2, #0]
 8008a3c:	f000 bd28 	b.w	8009490 <_dtoa_r+0xb18>
 8008a40:	aa14      	add	r2, sp, #80	; 0x50
 8008a42:	a915      	add	r1, sp, #84	; 0x54
 8008a44:	ec47 6b10 	vmov	d0, r6, r7
 8008a48:	4620      	mov	r0, r4
 8008a4a:	f001 f9d8 	bl	8009dfe <__d2b>
 8008a4e:	f3c8 550a 	ubfx	r5, r8, #20, #11
 8008a52:	9004      	str	r0, [sp, #16]
 8008a54:	2d00      	cmp	r5, #0
 8008a56:	d07c      	beq.n	8008b52 <_dtoa_r+0x1da>
 8008a58:	f3c7 0313 	ubfx	r3, r7, #0, #20
 8008a5c:	f043 5b7f 	orr.w	fp, r3, #1069547520	; 0x3fc00000
 8008a60:	46b2      	mov	sl, r6
 8008a62:	f44b 1b40 	orr.w	fp, fp, #3145728	; 0x300000
 8008a66:	f2a5 35ff 	subw	r5, r5, #1023	; 0x3ff
 8008a6a:	f8cd 904c 	str.w	r9, [sp, #76]	; 0x4c
 8008a6e:	2200      	movs	r2, #0
 8008a70:	4b8b      	ldr	r3, [pc, #556]	; (8008ca0 <_dtoa_r+0x328>)
 8008a72:	4650      	mov	r0, sl
 8008a74:	4659      	mov	r1, fp
 8008a76:	f7f7 fc07 	bl	8000288 <__aeabi_dsub>
 8008a7a:	a381      	add	r3, pc, #516	; (adr r3, 8008c80 <_dtoa_r+0x308>)
 8008a7c:	e9d3 2300 	ldrd	r2, r3, [r3]
 8008a80:	f7f7 fdba 	bl	80005f8 <__aeabi_dmul>
 8008a84:	a380      	add	r3, pc, #512	; (adr r3, 8008c88 <_dtoa_r+0x310>)
 8008a86:	e9d3 2300 	ldrd	r2, r3, [r3]
 8008a8a:	f7f7 fbff 	bl	800028c <__adddf3>
 8008a8e:	4606      	mov	r6, r0
 8008a90:	4628      	mov	r0, r5
 8008a92:	460f      	mov	r7, r1
 8008a94:	f7f7 fd46 	bl	8000524 <__aeabi_i2d>
 8008a98:	a37d      	add	r3, pc, #500	; (adr r3, 8008c90 <_dtoa_r+0x318>)
 8008a9a:	e9d3 2300 	ldrd	r2, r3, [r3]
 8008a9e:	f7f7 fdab 	bl	80005f8 <__aeabi_dmul>
 8008aa2:	4602      	mov	r2, r0
 8008aa4:	460b      	mov	r3, r1
 8008aa6:	4630      	mov	r0, r6
 8008aa8:	4639      	mov	r1, r7
 8008aaa:	f7f7 fbef 	bl	800028c <__adddf3>
 8008aae:	4606      	mov	r6, r0
 8008ab0:	460f      	mov	r7, r1
 8008ab2:	f7f8 f851 	bl	8000b58 <__aeabi_d2iz>
 8008ab6:	2200      	movs	r2, #0
 8008ab8:	4682      	mov	sl, r0
 8008aba:	2300      	movs	r3, #0
 8008abc:	4630      	mov	r0, r6
 8008abe:	4639      	mov	r1, r7
 8008ac0:	f7f8 f80c 	bl	8000adc <__aeabi_dcmplt>
 8008ac4:	b148      	cbz	r0, 8008ada <_dtoa_r+0x162>
 8008ac6:	4650      	mov	r0, sl
 8008ac8:	f7f7 fd2c 	bl	8000524 <__aeabi_i2d>
 8008acc:	4632      	mov	r2, r6
 8008ace:	463b      	mov	r3, r7
 8008ad0:	f7f7 fffa 	bl	8000ac8 <__aeabi_dcmpeq>
 8008ad4:	b908      	cbnz	r0, 8008ada <_dtoa_r+0x162>
 8008ad6:	f10a 3aff 	add.w	sl, sl, #4294967295	; 0xffffffff
 8008ada:	f1ba 0f16 	cmp.w	sl, #22
 8008ade:	d859      	bhi.n	8008b94 <_dtoa_r+0x21c>
 8008ae0:	4970      	ldr	r1, [pc, #448]	; (8008ca4 <_dtoa_r+0x32c>)
 8008ae2:	eb01 01ca 	add.w	r1, r1, sl, lsl #3
 8008ae6:	e9dd 2300 	ldrd	r2, r3, [sp]
 8008aea:	e9d1 0100 	ldrd	r0, r1, [r1]
 8008aee:	f7f8 f813 	bl	8000b18 <__aeabi_dcmpgt>
 8008af2:	2800      	cmp	r0, #0
 8008af4:	d050      	beq.n	8008b98 <_dtoa_r+0x220>
 8008af6:	f10a 3aff 	add.w	sl, sl, #4294967295	; 0xffffffff
 8008afa:	2300      	movs	r3, #0
 8008afc:	930f      	str	r3, [sp, #60]	; 0x3c
 8008afe:	9b14      	ldr	r3, [sp, #80]	; 0x50
 8008b00:	1b5d      	subs	r5, r3, r5
 8008b02:	f1b5 0801 	subs.w	r8, r5, #1
 8008b06:	bf49      	itett	mi
 8008b08:	f1c5 0301 	rsbmi	r3, r5, #1
 8008b0c:	2300      	movpl	r3, #0
 8008b0e:	9305      	strmi	r3, [sp, #20]
 8008b10:	f04f 0800 	movmi.w	r8, #0
 8008b14:	bf58      	it	pl
 8008b16:	9305      	strpl	r3, [sp, #20]
 8008b18:	f1ba 0f00 	cmp.w	sl, #0
 8008b1c:	db3e      	blt.n	8008b9c <_dtoa_r+0x224>
 8008b1e:	2300      	movs	r3, #0
 8008b20:	44d0      	add	r8, sl
 8008b22:	f8cd a038 	str.w	sl, [sp, #56]	; 0x38
 8008b26:	9307      	str	r3, [sp, #28]
 8008b28:	9b06      	ldr	r3, [sp, #24]
 8008b2a:	2b09      	cmp	r3, #9
 8008b2c:	f200 8090 	bhi.w	8008c50 <_dtoa_r+0x2d8>
 8008b30:	2b05      	cmp	r3, #5
 8008b32:	bfc4      	itt	gt
 8008b34:	3b04      	subgt	r3, #4
 8008b36:	9306      	strgt	r3, [sp, #24]
 8008b38:	9b06      	ldr	r3, [sp, #24]
 8008b3a:	f1a3 0302 	sub.w	r3, r3, #2
 8008b3e:	bfcc      	ite	gt
 8008b40:	2500      	movgt	r5, #0
 8008b42:	2501      	movle	r5, #1
 8008b44:	2b03      	cmp	r3, #3
 8008b46:	f200 808f 	bhi.w	8008c68 <_dtoa_r+0x2f0>
 8008b4a:	e8df f003 	tbb	[pc, r3]
 8008b4e:	7f7d      	.short	0x7f7d
 8008b50:	7131      	.short	0x7131
 8008b52:	e9dd 5314 	ldrd	r5, r3, [sp, #80]	; 0x50
 8008b56:	441d      	add	r5, r3
 8008b58:	f205 4032 	addw	r0, r5, #1074	; 0x432
 8008b5c:	2820      	cmp	r0, #32
 8008b5e:	dd13      	ble.n	8008b88 <_dtoa_r+0x210>
 8008b60:	f1c0 0040 	rsb	r0, r0, #64	; 0x40
 8008b64:	9b00      	ldr	r3, [sp, #0]
 8008b66:	fa08 f800 	lsl.w	r8, r8, r0
 8008b6a:	f205 4012 	addw	r0, r5, #1042	; 0x412
 8008b6e:	fa23 f000 	lsr.w	r0, r3, r0
 8008b72:	ea48 0000 	orr.w	r0, r8, r0
 8008b76:	f7f7 fcc5 	bl	8000504 <__aeabi_ui2d>
 8008b7a:	2301      	movs	r3, #1
 8008b7c:	4682      	mov	sl, r0
 8008b7e:	f1a1 7bf8 	sub.w	fp, r1, #32505856	; 0x1f00000
 8008b82:	3d01      	subs	r5, #1
 8008b84:	9313      	str	r3, [sp, #76]	; 0x4c
 8008b86:	e772      	b.n	8008a6e <_dtoa_r+0xf6>
 8008b88:	9b00      	ldr	r3, [sp, #0]
 8008b8a:	f1c0 0020 	rsb	r0, r0, #32
 8008b8e:	fa03 f000 	lsl.w	r0, r3, r0
 8008b92:	e7f0      	b.n	8008b76 <_dtoa_r+0x1fe>
 8008b94:	2301      	movs	r3, #1
 8008b96:	e7b1      	b.n	8008afc <_dtoa_r+0x184>
 8008b98:	900f      	str	r0, [sp, #60]	; 0x3c
 8008b9a:	e7b0      	b.n	8008afe <_dtoa_r+0x186>
 8008b9c:	9b05      	ldr	r3, [sp, #20]
 8008b9e:	eba3 030a 	sub.w	r3, r3, sl
 8008ba2:	9305      	str	r3, [sp, #20]
 8008ba4:	f1ca 0300 	rsb	r3, sl, #0
 8008ba8:	9307      	str	r3, [sp, #28]
 8008baa:	2300      	movs	r3, #0
 8008bac:	930e      	str	r3, [sp, #56]	; 0x38
 8008bae:	e7bb      	b.n	8008b28 <_dtoa_r+0x1b0>
 8008bb0:	2301      	movs	r3, #1
 8008bb2:	930a      	str	r3, [sp, #40]	; 0x28
 8008bb4:	9b0b      	ldr	r3, [sp, #44]	; 0x2c
 8008bb6:	2b00      	cmp	r3, #0
 8008bb8:	dd59      	ble.n	8008c6e <_dtoa_r+0x2f6>
 8008bba:	9302      	str	r3, [sp, #8]
 8008bbc:	4699      	mov	r9, r3
 8008bbe:	6a66      	ldr	r6, [r4, #36]	; 0x24
 8008bc0:	2200      	movs	r2, #0
 8008bc2:	6072      	str	r2, [r6, #4]
 8008bc4:	2204      	movs	r2, #4
 8008bc6:	f102 0014 	add.w	r0, r2, #20
 8008bca:	4298      	cmp	r0, r3
 8008bcc:	6871      	ldr	r1, [r6, #4]
 8008bce:	d953      	bls.n	8008c78 <_dtoa_r+0x300>
 8008bd0:	4620      	mov	r0, r4
 8008bd2:	f000 fe88 	bl	80098e6 <_Balloc>
 8008bd6:	6a63      	ldr	r3, [r4, #36]	; 0x24
 8008bd8:	6030      	str	r0, [r6, #0]
 8008bda:	f1b9 0f0e 	cmp.w	r9, #14
 8008bde:	f8d3 b000 	ldr.w	fp, [r3]
 8008be2:	f200 80e6 	bhi.w	8008db2 <_dtoa_r+0x43a>
 8008be6:	2d00      	cmp	r5, #0
 8008be8:	f000 80e3 	beq.w	8008db2 <_dtoa_r+0x43a>
 8008bec:	ed9d 7b00 	vldr	d7, [sp]
 8008bf0:	f1ba 0f00 	cmp.w	sl, #0
 8008bf4:	ed8d 7b10 	vstr	d7, [sp, #64]	; 0x40
 8008bf8:	dd74      	ble.n	8008ce4 <_dtoa_r+0x36c>
 8008bfa:	4a2a      	ldr	r2, [pc, #168]	; (8008ca4 <_dtoa_r+0x32c>)
 8008bfc:	f00a 030f 	and.w	r3, sl, #15
 8008c00:	eb02 03c3 	add.w	r3, r2, r3, lsl #3
 8008c04:	ed93 7b00 	vldr	d7, [r3]
 8008c08:	ea4f 162a 	mov.w	r6, sl, asr #4
 8008c0c:	06f0      	lsls	r0, r6, #27
 8008c0e:	ed8d 7b08 	vstr	d7, [sp, #32]
 8008c12:	d565      	bpl.n	8008ce0 <_dtoa_r+0x368>
 8008c14:	4b24      	ldr	r3, [pc, #144]	; (8008ca8 <_dtoa_r+0x330>)
 8008c16:	e9dd 0110 	ldrd	r0, r1, [sp, #64]	; 0x40
 8008c1a:	e9d3 2308 	ldrd	r2, r3, [r3, #32]
 8008c1e:	f7f7 fe15 	bl	800084c <__aeabi_ddiv>
 8008c22:	e9cd 0100 	strd	r0, r1, [sp]
 8008c26:	f006 060f 	and.w	r6, r6, #15
 8008c2a:	2503      	movs	r5, #3
 8008c2c:	4f1e      	ldr	r7, [pc, #120]	; (8008ca8 <_dtoa_r+0x330>)
 8008c2e:	e04c      	b.n	8008cca <_dtoa_r+0x352>
 8008c30:	2301      	movs	r3, #1
 8008c32:	930a      	str	r3, [sp, #40]	; 0x28
 8008c34:	9b0b      	ldr	r3, [sp, #44]	; 0x2c
 8008c36:	4453      	add	r3, sl
 8008c38:	f103 0901 	add.w	r9, r3, #1
 8008c3c:	9302      	str	r3, [sp, #8]
 8008c3e:	464b      	mov	r3, r9
 8008c40:	2b01      	cmp	r3, #1
 8008c42:	bfb8      	it	lt
 8008c44:	2301      	movlt	r3, #1
 8008c46:	e7ba      	b.n	8008bbe <_dtoa_r+0x246>
 8008c48:	2300      	movs	r3, #0
 8008c4a:	e7b2      	b.n	8008bb2 <_dtoa_r+0x23a>
 8008c4c:	2300      	movs	r3, #0
 8008c4e:	e7f0      	b.n	8008c32 <_dtoa_r+0x2ba>
 8008c50:	2501      	movs	r5, #1
 8008c52:	2300      	movs	r3, #0
 8008c54:	9306      	str	r3, [sp, #24]
 8008c56:	950a      	str	r5, [sp, #40]	; 0x28
 8008c58:	f04f 33ff 	mov.w	r3, #4294967295	; 0xffffffff
 8008c5c:	9302      	str	r3, [sp, #8]
 8008c5e:	4699      	mov	r9, r3
 8008c60:	2200      	movs	r2, #0
 8008c62:	2312      	movs	r3, #18
 8008c64:	920b      	str	r2, [sp, #44]	; 0x2c
 8008c66:	e7aa      	b.n	8008bbe <_dtoa_r+0x246>
 8008c68:	2301      	movs	r3, #1
 8008c6a:	930a      	str	r3, [sp, #40]	; 0x28
 8008c6c:	e7f4      	b.n	8008c58 <_dtoa_r+0x2e0>
 8008c6e:	2301      	movs	r3, #1
 8008c70:	9302      	str	r3, [sp, #8]
 8008c72:	4699      	mov	r9, r3
 8008c74:	461a      	mov	r2, r3
 8008c76:	e7f5      	b.n	8008c64 <_dtoa_r+0x2ec>
 8008c78:	3101      	adds	r1, #1
 8008c7a:	6071      	str	r1, [r6, #4]
 8008c7c:	0052      	lsls	r2, r2, #1
 8008c7e:	e7a2      	b.n	8008bc6 <_dtoa_r+0x24e>
 8008c80:	636f4361 	.word	0x636f4361
 8008c84:	3fd287a7 	.word	0x3fd287a7
 8008c88:	8b60c8b3 	.word	0x8b60c8b3
 8008c8c:	3fc68a28 	.word	0x3fc68a28
 8008c90:	509f79fb 	.word	0x509f79fb
 8008c94:	3fd34413 	.word	0x3fd34413
 8008c98:	7ff00000 	.word	0x7ff00000
 8008c9c:	0800b895 	.word	0x0800b895
 8008ca0:	3ff80000 	.word	0x3ff80000
 8008ca4:	0800b950 	.word	0x0800b950
 8008ca8:	0800b928 	.word	0x0800b928
 8008cac:	0800b8c1 	.word	0x0800b8c1
 8008cb0:	07f1      	lsls	r1, r6, #31
 8008cb2:	d508      	bpl.n	8008cc6 <_dtoa_r+0x34e>
 8008cb4:	e9dd 0108 	ldrd	r0, r1, [sp, #32]
 8008cb8:	e9d7 2300 	ldrd	r2, r3, [r7]
 8008cbc:	f7f7 fc9c 	bl	80005f8 <__aeabi_dmul>
 8008cc0:	e9cd 0108 	strd	r0, r1, [sp, #32]
 8008cc4:	3501      	adds	r5, #1
 8008cc6:	1076      	asrs	r6, r6, #1
 8008cc8:	3708      	adds	r7, #8
 8008cca:	2e00      	cmp	r6, #0
 8008ccc:	d1f0      	bne.n	8008cb0 <_dtoa_r+0x338>
 8008cce:	e9dd 2308 	ldrd	r2, r3, [sp, #32]
 8008cd2:	e9dd 0100 	ldrd	r0, r1, [sp]
 8008cd6:	f7f7 fdb9 	bl	800084c <__aeabi_ddiv>
 8008cda:	e9cd 0100 	strd	r0, r1, [sp]
 8008cde:	e01a      	b.n	8008d16 <_dtoa_r+0x39e>
 8008ce0:	2502      	movs	r5, #2
 8008ce2:	e7a3      	b.n	8008c2c <_dtoa_r+0x2b4>
 8008ce4:	f000 80a0 	beq.w	8008e28 <_dtoa_r+0x4b0>
 8008ce8:	f1ca 0600 	rsb	r6, sl, #0
 8008cec:	4b9f      	ldr	r3, [pc, #636]	; (8008f6c <_dtoa_r+0x5f4>)
 8008cee:	4fa0      	ldr	r7, [pc, #640]	; (8008f70 <_dtoa_r+0x5f8>)
 8008cf0:	f006 020f 	and.w	r2, r6, #15
 8008cf4:	eb03 03c2 	add.w	r3, r3, r2, lsl #3
 8008cf8:	e9d3 2300 	ldrd	r2, r3, [r3]
 8008cfc:	e9dd 0110 	ldrd	r0, r1, [sp, #64]	; 0x40
 8008d00:	f7f7 fc7a 	bl	80005f8 <__aeabi_dmul>
 8008d04:	e9cd 0100 	strd	r0, r1, [sp]
 8008d08:	1136      	asrs	r6, r6, #4
 8008d0a:	2300      	movs	r3, #0
 8008d0c:	2502      	movs	r5, #2
 8008d0e:	2e00      	cmp	r6, #0
 8008d10:	d17f      	bne.n	8008e12 <_dtoa_r+0x49a>
 8008d12:	2b00      	cmp	r3, #0
 8008d14:	d1e1      	bne.n	8008cda <_dtoa_r+0x362>
 8008d16:	9b0f      	ldr	r3, [sp, #60]	; 0x3c
 8008d18:	2b00      	cmp	r3, #0
 8008d1a:	f000 8087 	beq.w	8008e2c <_dtoa_r+0x4b4>
 8008d1e:	e9dd 6700 	ldrd	r6, r7, [sp]
 8008d22:	2200      	movs	r2, #0
 8008d24:	4b93      	ldr	r3, [pc, #588]	; (8008f74 <_dtoa_r+0x5fc>)
 8008d26:	4630      	mov	r0, r6
 8008d28:	4639      	mov	r1, r7
 8008d2a:	f7f7 fed7 	bl	8000adc <__aeabi_dcmplt>
 8008d2e:	2800      	cmp	r0, #0
 8008d30:	d07c      	beq.n	8008e2c <_dtoa_r+0x4b4>
 8008d32:	f1b9 0f00 	cmp.w	r9, #0
 8008d36:	d079      	beq.n	8008e2c <_dtoa_r+0x4b4>
 8008d38:	9b02      	ldr	r3, [sp, #8]
 8008d3a:	2b00      	cmp	r3, #0
 8008d3c:	dd35      	ble.n	8008daa <_dtoa_r+0x432>
 8008d3e:	f10a 33ff 	add.w	r3, sl, #4294967295	; 0xffffffff
 8008d42:	9308      	str	r3, [sp, #32]
 8008d44:	4639      	mov	r1, r7
 8008d46:	2200      	movs	r2, #0
 8008d48:	4b8b      	ldr	r3, [pc, #556]	; (8008f78 <_dtoa_r+0x600>)
 8008d4a:	4630      	mov	r0, r6
 8008d4c:	f7f7 fc54 	bl	80005f8 <__aeabi_dmul>
 8008d50:	e9cd 0100 	strd	r0, r1, [sp]
 8008d54:	9f02      	ldr	r7, [sp, #8]
 8008d56:	3501      	adds	r5, #1
 8008d58:	4628      	mov	r0, r5
 8008d5a:	f7f7 fbe3 	bl	8000524 <__aeabi_i2d>
 8008d5e:	e9dd 2300 	ldrd	r2, r3, [sp]
 8008d62:	f7f7 fc49 	bl	80005f8 <__aeabi_dmul>
 8008d66:	2200      	movs	r2, #0
 8008d68:	4b84      	ldr	r3, [pc, #528]	; (8008f7c <_dtoa_r+0x604>)
 8008d6a:	f7f7 fa8f 	bl	800028c <__adddf3>
 8008d6e:	4605      	mov	r5, r0
 8008d70:	f1a1 7650 	sub.w	r6, r1, #54525952	; 0x3400000
 8008d74:	2f00      	cmp	r7, #0
 8008d76:	d15d      	bne.n	8008e34 <_dtoa_r+0x4bc>
 8008d78:	2200      	movs	r2, #0
 8008d7a:	4b81      	ldr	r3, [pc, #516]	; (8008f80 <_dtoa_r+0x608>)
 8008d7c:	e9dd 0100 	ldrd	r0, r1, [sp]
 8008d80:	f7f7 fa82 	bl	8000288 <__aeabi_dsub>
 8008d84:	462a      	mov	r2, r5
 8008d86:	4633      	mov	r3, r6
 8008d88:	e9cd 0100 	strd	r0, r1, [sp]
 8008d8c:	f7f7 fec4 	bl	8000b18 <__aeabi_dcmpgt>
 8008d90:	2800      	cmp	r0, #0
 8008d92:	f040 8288 	bne.w	80092a6 <_dtoa_r+0x92e>
 8008d96:	462a      	mov	r2, r5
 8008d98:	f106 4300 	add.w	r3, r6, #2147483648	; 0x80000000
 8008d9c:	e9dd 0100 	ldrd	r0, r1, [sp]
 8008da0:	f7f7 fe9c 	bl	8000adc <__aeabi_dcmplt>
 8008da4:	2800      	cmp	r0, #0
 8008da6:	f040 827c 	bne.w	80092a2 <_dtoa_r+0x92a>
 8008daa:	e9dd 2310 	ldrd	r2, r3, [sp, #64]	; 0x40
 8008dae:	e9cd 2300 	strd	r2, r3, [sp]
 8008db2:	9b15      	ldr	r3, [sp, #84]	; 0x54
 8008db4:	2b00      	cmp	r3, #0
 8008db6:	f2c0 8150 	blt.w	800905a <_dtoa_r+0x6e2>
 8008dba:	f1ba 0f0e 	cmp.w	sl, #14
 8008dbe:	f300 814c 	bgt.w	800905a <_dtoa_r+0x6e2>
 8008dc2:	4b6a      	ldr	r3, [pc, #424]	; (8008f6c <_dtoa_r+0x5f4>)
 8008dc4:	eb03 03ca 	add.w	r3, r3, sl, lsl #3
 8008dc8:	ed93 7b00 	vldr	d7, [r3]
 8008dcc:	9b0b      	ldr	r3, [sp, #44]	; 0x2c
 8008dce:	2b00      	cmp	r3, #0
 8008dd0:	ed8d 7b02 	vstr	d7, [sp, #8]
 8008dd4:	f280 80d8 	bge.w	8008f88 <_dtoa_r+0x610>
 8008dd8:	f1b9 0f00 	cmp.w	r9, #0
 8008ddc:	f300 80d4 	bgt.w	8008f88 <_dtoa_r+0x610>
 8008de0:	f040 825e 	bne.w	80092a0 <_dtoa_r+0x928>
 8008de4:	2200      	movs	r2, #0
 8008de6:	4b66      	ldr	r3, [pc, #408]	; (8008f80 <_dtoa_r+0x608>)
 8008de8:	ec51 0b17 	vmov	r0, r1, d7
 8008dec:	f7f7 fc04 	bl	80005f8 <__aeabi_dmul>
 8008df0:	e9dd 2300 	ldrd	r2, r3, [sp]
 8008df4:	f7f7 fe86 	bl	8000b04 <__aeabi_dcmpge>
 8008df8:	464f      	mov	r7, r9
 8008dfa:	464e      	mov	r6, r9
 8008dfc:	2800      	cmp	r0, #0
 8008dfe:	f040 8234 	bne.w	800926a <_dtoa_r+0x8f2>
 8008e02:	2331      	movs	r3, #49	; 0x31
 8008e04:	f10b 0501 	add.w	r5, fp, #1
 8008e08:	f88b 3000 	strb.w	r3, [fp]
 8008e0c:	f10a 0a01 	add.w	sl, sl, #1
 8008e10:	e22f      	b.n	8009272 <_dtoa_r+0x8fa>
 8008e12:	07f2      	lsls	r2, r6, #31
 8008e14:	d505      	bpl.n	8008e22 <_dtoa_r+0x4aa>
 8008e16:	e9d7 2300 	ldrd	r2, r3, [r7]
 8008e1a:	f7f7 fbed 	bl	80005f8 <__aeabi_dmul>
 8008e1e:	3501      	adds	r5, #1
 8008e20:	2301      	movs	r3, #1
 8008e22:	1076      	asrs	r6, r6, #1
 8008e24:	3708      	adds	r7, #8
 8008e26:	e772      	b.n	8008d0e <_dtoa_r+0x396>
 8008e28:	2502      	movs	r5, #2
 8008e2a:	e774      	b.n	8008d16 <_dtoa_r+0x39e>
 8008e2c:	f8cd a020 	str.w	sl, [sp, #32]
 8008e30:	464f      	mov	r7, r9
 8008e32:	e791      	b.n	8008d58 <_dtoa_r+0x3e0>
 8008e34:	4b4d      	ldr	r3, [pc, #308]	; (8008f6c <_dtoa_r+0x5f4>)
 8008e36:	eb03 03c7 	add.w	r3, r3, r7, lsl #3
 8008e3a:	e953 0102 	ldrd	r0, r1, [r3, #-8]
 8008e3e:	9b0a      	ldr	r3, [sp, #40]	; 0x28
 8008e40:	2b00      	cmp	r3, #0
 8008e42:	d047      	beq.n	8008ed4 <_dtoa_r+0x55c>
 8008e44:	4602      	mov	r2, r0
 8008e46:	460b      	mov	r3, r1
 8008e48:	2000      	movs	r0, #0
 8008e4a:	494e      	ldr	r1, [pc, #312]	; (8008f84 <_dtoa_r+0x60c>)
 8008e4c:	f7f7 fcfe 	bl	800084c <__aeabi_ddiv>
 8008e50:	462a      	mov	r2, r5
 8008e52:	4633      	mov	r3, r6
 8008e54:	f7f7 fa18 	bl	8000288 <__aeabi_dsub>
 8008e58:	e9cd 010c 	strd	r0, r1, [sp, #48]	; 0x30
 8008e5c:	465d      	mov	r5, fp
 8008e5e:	e9dd 0100 	ldrd	r0, r1, [sp]
 8008e62:	f7f7 fe79 	bl	8000b58 <__aeabi_d2iz>
 8008e66:	4606      	mov	r6, r0
 8008e68:	f7f7 fb5c 	bl	8000524 <__aeabi_i2d>
 8008e6c:	4602      	mov	r2, r0
 8008e6e:	460b      	mov	r3, r1
 8008e70:	e9dd 0100 	ldrd	r0, r1, [sp]
 8008e74:	f7f7 fa08 	bl	8000288 <__aeabi_dsub>
 8008e78:	3630      	adds	r6, #48	; 0x30
 8008e7a:	f805 6b01 	strb.w	r6, [r5], #1
 8008e7e:	e9dd 230c 	ldrd	r2, r3, [sp, #48]	; 0x30
 8008e82:	e9cd 0100 	strd	r0, r1, [sp]
 8008e86:	f7f7 fe29 	bl	8000adc <__aeabi_dcmplt>
 8008e8a:	2800      	cmp	r0, #0
 8008e8c:	d163      	bne.n	8008f56 <_dtoa_r+0x5de>
 8008e8e:	e9dd 2300 	ldrd	r2, r3, [sp]
 8008e92:	2000      	movs	r0, #0
 8008e94:	4937      	ldr	r1, [pc, #220]	; (8008f74 <_dtoa_r+0x5fc>)
 8008e96:	f7f7 f9f7 	bl	8000288 <__aeabi_dsub>
 8008e9a:	e9dd 230c 	ldrd	r2, r3, [sp, #48]	; 0x30
 8008e9e:	f7f7 fe1d 	bl	8000adc <__aeabi_dcmplt>
 8008ea2:	2800      	cmp	r0, #0
 8008ea4:	f040 80b7 	bne.w	8009016 <_dtoa_r+0x69e>
 8008ea8:	eba5 030b 	sub.w	r3, r5, fp
 8008eac:	429f      	cmp	r7, r3
 8008eae:	f77f af7c 	ble.w	8008daa <_dtoa_r+0x432>
 8008eb2:	2200      	movs	r2, #0
 8008eb4:	4b30      	ldr	r3, [pc, #192]	; (8008f78 <_dtoa_r+0x600>)
 8008eb6:	e9dd 010c 	ldrd	r0, r1, [sp, #48]	; 0x30
 8008eba:	f7f7 fb9d 	bl	80005f8 <__aeabi_dmul>
 8008ebe:	2200      	movs	r2, #0
 8008ec0:	e9cd 010c 	strd	r0, r1, [sp, #48]	; 0x30
 8008ec4:	4b2c      	ldr	r3, [pc, #176]	; (8008f78 <_dtoa_r+0x600>)
 8008ec6:	e9dd 0100 	ldrd	r0, r1, [sp]
 8008eca:	f7f7 fb95 	bl	80005f8 <__aeabi_dmul>
 8008ece:	e9cd 0100 	strd	r0, r1, [sp]
 8008ed2:	e7c4      	b.n	8008e5e <_dtoa_r+0x4e6>
 8008ed4:	462a      	mov	r2, r5
 8008ed6:	4633      	mov	r3, r6
 8008ed8:	f7f7 fb8e 	bl	80005f8 <__aeabi_dmul>
 8008edc:	e9cd 010c 	strd	r0, r1, [sp, #48]	; 0x30
 8008ee0:	eb0b 0507 	add.w	r5, fp, r7
 8008ee4:	465e      	mov	r6, fp
 8008ee6:	e9dd 0100 	ldrd	r0, r1, [sp]
 8008eea:	f7f7 fe35 	bl	8000b58 <__aeabi_d2iz>
 8008eee:	4607      	mov	r7, r0
 8008ef0:	f7f7 fb18 	bl	8000524 <__aeabi_i2d>
 8008ef4:	3730      	adds	r7, #48	; 0x30
 8008ef6:	4602      	mov	r2, r0
 8008ef8:	460b      	mov	r3, r1
 8008efa:	e9dd 0100 	ldrd	r0, r1, [sp]
 8008efe:	f7f7 f9c3 	bl	8000288 <__aeabi_dsub>
 8008f02:	f806 7b01 	strb.w	r7, [r6], #1
 8008f06:	42ae      	cmp	r6, r5
 8008f08:	e9cd 0100 	strd	r0, r1, [sp]
 8008f0c:	f04f 0200 	mov.w	r2, #0
 8008f10:	d126      	bne.n	8008f60 <_dtoa_r+0x5e8>
 8008f12:	4b1c      	ldr	r3, [pc, #112]	; (8008f84 <_dtoa_r+0x60c>)
 8008f14:	e9dd 010c 	ldrd	r0, r1, [sp, #48]	; 0x30
 8008f18:	f7f7 f9b8 	bl	800028c <__adddf3>
 8008f1c:	4602      	mov	r2, r0
 8008f1e:	460b      	mov	r3, r1
 8008f20:	e9dd 0100 	ldrd	r0, r1, [sp]
 8008f24:	f7f7 fdf8 	bl	8000b18 <__aeabi_dcmpgt>
 8008f28:	2800      	cmp	r0, #0
 8008f2a:	d174      	bne.n	8009016 <_dtoa_r+0x69e>
 8008f2c:	e9dd 230c 	ldrd	r2, r3, [sp, #48]	; 0x30
 8008f30:	2000      	movs	r0, #0
 8008f32:	4914      	ldr	r1, [pc, #80]	; (8008f84 <_dtoa_r+0x60c>)
 8008f34:	f7f7 f9a8 	bl	8000288 <__aeabi_dsub>
 8008f38:	4602      	mov	r2, r0
 8008f3a:	460b      	mov	r3, r1
 8008f3c:	e9dd 0100 	ldrd	r0, r1, [sp]
 8008f40:	f7f7 fdcc 	bl	8000adc <__aeabi_dcmplt>
 8008f44:	2800      	cmp	r0, #0
 8008f46:	f43f af30 	beq.w	8008daa <_dtoa_r+0x432>
 8008f4a:	f815 3c01 	ldrb.w	r3, [r5, #-1]
 8008f4e:	2b30      	cmp	r3, #48	; 0x30
 8008f50:	f105 32ff 	add.w	r2, r5, #4294967295	; 0xffffffff
 8008f54:	d002      	beq.n	8008f5c <_dtoa_r+0x5e4>
 8008f56:	f8dd a020 	ldr.w	sl, [sp, #32]
 8008f5a:	e04a      	b.n	8008ff2 <_dtoa_r+0x67a>
 8008f5c:	4615      	mov	r5, r2
 8008f5e:	e7f4      	b.n	8008f4a <_dtoa_r+0x5d2>
 8008f60:	4b05      	ldr	r3, [pc, #20]	; (8008f78 <_dtoa_r+0x600>)
 8008f62:	f7f7 fb49 	bl	80005f8 <__aeabi_dmul>
 8008f66:	e9cd 0100 	strd	r0, r1, [sp]
 8008f6a:	e7bc      	b.n	8008ee6 <_dtoa_r+0x56e>
 8008f6c:	0800b950 	.word	0x0800b950
 8008f70:	0800b928 	.word	0x0800b928
 8008f74:	3ff00000 	.word	0x3ff00000
 8008f78:	40240000 	.word	0x40240000
 8008f7c:	401c0000 	.word	0x401c0000
 8008f80:	40140000 	.word	0x40140000
 8008f84:	3fe00000 	.word	0x3fe00000
 8008f88:	e9dd 6700 	ldrd	r6, r7, [sp]
 8008f8c:	465d      	mov	r5, fp
 8008f8e:	e9dd 2302 	ldrd	r2, r3, [sp, #8]
 8008f92:	4630      	mov	r0, r6
 8008f94:	4639      	mov	r1, r7
 8008f96:	f7f7 fc59 	bl	800084c <__aeabi_ddiv>
 8008f9a:	f7f7 fddd 	bl	8000b58 <__aeabi_d2iz>
 8008f9e:	4680      	mov	r8, r0
 8008fa0:	f7f7 fac0 	bl	8000524 <__aeabi_i2d>
 8008fa4:	e9dd 2302 	ldrd	r2, r3, [sp, #8]
 8008fa8:	f7f7 fb26 	bl	80005f8 <__aeabi_dmul>
 8008fac:	4602      	mov	r2, r0
 8008fae:	460b      	mov	r3, r1
 8008fb0:	4630      	mov	r0, r6
 8008fb2:	4639      	mov	r1, r7
 8008fb4:	f108 0630 	add.w	r6, r8, #48	; 0x30
 8008fb8:	f7f7 f966 	bl	8000288 <__aeabi_dsub>
 8008fbc:	f805 6b01 	strb.w	r6, [r5], #1
 8008fc0:	eba5 060b 	sub.w	r6, r5, fp
 8008fc4:	45b1      	cmp	r9, r6
 8008fc6:	4602      	mov	r2, r0
 8008fc8:	460b      	mov	r3, r1
 8008fca:	d139      	bne.n	8009040 <_dtoa_r+0x6c8>
 8008fcc:	f7f7 f95e 	bl	800028c <__adddf3>
 8008fd0:	e9dd 2302 	ldrd	r2, r3, [sp, #8]
 8008fd4:	4606      	mov	r6, r0
 8008fd6:	460f      	mov	r7, r1
 8008fd8:	f7f7 fd9e 	bl	8000b18 <__aeabi_dcmpgt>
 8008fdc:	b9c8      	cbnz	r0, 8009012 <_dtoa_r+0x69a>
 8008fde:	e9dd 2302 	ldrd	r2, r3, [sp, #8]
 8008fe2:	4630      	mov	r0, r6
 8008fe4:	4639      	mov	r1, r7
 8008fe6:	f7f7 fd6f 	bl	8000ac8 <__aeabi_dcmpeq>
 8008fea:	b110      	cbz	r0, 8008ff2 <_dtoa_r+0x67a>
 8008fec:	f018 0f01 	tst.w	r8, #1
 8008ff0:	d10f      	bne.n	8009012 <_dtoa_r+0x69a>
 8008ff2:	9904      	ldr	r1, [sp, #16]
 8008ff4:	4620      	mov	r0, r4
 8008ff6:	f000 fcaa 	bl	800994e <_Bfree>
 8008ffa:	2300      	movs	r3, #0
 8008ffc:	9a12      	ldr	r2, [sp, #72]	; 0x48
 8008ffe:	702b      	strb	r3, [r5, #0]
 8009000:	f10a 0301 	add.w	r3, sl, #1
 8009004:	6013      	str	r3, [r2, #0]
 8009006:	9b21      	ldr	r3, [sp, #132]	; 0x84
 8009008:	2b00      	cmp	r3, #0
 800900a:	f000 8241 	beq.w	8009490 <_dtoa_r+0xb18>
 800900e:	601d      	str	r5, [r3, #0]
 8009010:	e23e      	b.n	8009490 <_dtoa_r+0xb18>
 8009012:	f8cd a020 	str.w	sl, [sp, #32]
 8009016:	f815 2c01 	ldrb.w	r2, [r5, #-1]
 800901a:	2a39      	cmp	r2, #57	; 0x39
 800901c:	f105 33ff 	add.w	r3, r5, #4294967295	; 0xffffffff
 8009020:	d108      	bne.n	8009034 <_dtoa_r+0x6bc>
 8009022:	459b      	cmp	fp, r3
 8009024:	d10a      	bne.n	800903c <_dtoa_r+0x6c4>
 8009026:	9b08      	ldr	r3, [sp, #32]
 8009028:	3301      	adds	r3, #1
 800902a:	9308      	str	r3, [sp, #32]
 800902c:	2330      	movs	r3, #48	; 0x30
 800902e:	f88b 3000 	strb.w	r3, [fp]
 8009032:	465b      	mov	r3, fp
 8009034:	781a      	ldrb	r2, [r3, #0]
 8009036:	3201      	adds	r2, #1
 8009038:	701a      	strb	r2, [r3, #0]
 800903a:	e78c      	b.n	8008f56 <_dtoa_r+0x5de>
 800903c:	461d      	mov	r5, r3
 800903e:	e7ea      	b.n	8009016 <_dtoa_r+0x69e>
 8009040:	2200      	movs	r2, #0
 8009042:	4b9b      	ldr	r3, [pc, #620]	; (80092b0 <_dtoa_r+0x938>)
 8009044:	f7f7 fad8 	bl	80005f8 <__aeabi_dmul>
 8009048:	2200      	movs	r2, #0
 800904a:	2300      	movs	r3, #0
 800904c:	4606      	mov	r6, r0
 800904e:	460f      	mov	r7, r1
 8009050:	f7f7 fd3a 	bl	8000ac8 <__aeabi_dcmpeq>
 8009054:	2800      	cmp	r0, #0
 8009056:	d09a      	beq.n	8008f8e <_dtoa_r+0x616>
 8009058:	e7cb      	b.n	8008ff2 <_dtoa_r+0x67a>
 800905a:	9a0a      	ldr	r2, [sp, #40]	; 0x28
 800905c:	2a00      	cmp	r2, #0
 800905e:	f000 808b 	beq.w	8009178 <_dtoa_r+0x800>
 8009062:	9a06      	ldr	r2, [sp, #24]
 8009064:	2a01      	cmp	r2, #1
 8009066:	dc6e      	bgt.n	8009146 <_dtoa_r+0x7ce>
 8009068:	9a13      	ldr	r2, [sp, #76]	; 0x4c
 800906a:	2a00      	cmp	r2, #0
 800906c:	d067      	beq.n	800913e <_dtoa_r+0x7c6>
 800906e:	f203 4333 	addw	r3, r3, #1075	; 0x433
 8009072:	9f07      	ldr	r7, [sp, #28]
 8009074:	9d05      	ldr	r5, [sp, #20]
 8009076:	9a05      	ldr	r2, [sp, #20]
 8009078:	2101      	movs	r1, #1
 800907a:	441a      	add	r2, r3
 800907c:	4620      	mov	r0, r4
 800907e:	9205      	str	r2, [sp, #20]
 8009080:	4498      	add	r8, r3
 8009082:	f000 fd04 	bl	8009a8e <__i2b>
 8009086:	4606      	mov	r6, r0
 8009088:	2d00      	cmp	r5, #0
 800908a:	dd0c      	ble.n	80090a6 <_dtoa_r+0x72e>
 800908c:	f1b8 0f00 	cmp.w	r8, #0
 8009090:	dd09      	ble.n	80090a6 <_dtoa_r+0x72e>
 8009092:	4545      	cmp	r5, r8
 8009094:	9a05      	ldr	r2, [sp, #20]
 8009096:	462b      	mov	r3, r5
 8009098:	bfa8      	it	ge
 800909a:	4643      	movge	r3, r8
 800909c:	1ad2      	subs	r2, r2, r3
 800909e:	9205      	str	r2, [sp, #20]
 80090a0:	1aed      	subs	r5, r5, r3
 80090a2:	eba8 0803 	sub.w	r8, r8, r3
 80090a6:	9b07      	ldr	r3, [sp, #28]
 80090a8:	b1eb      	cbz	r3, 80090e6 <_dtoa_r+0x76e>
 80090aa:	9b0a      	ldr	r3, [sp, #40]	; 0x28
 80090ac:	2b00      	cmp	r3, #0
 80090ae:	d067      	beq.n	8009180 <_dtoa_r+0x808>
 80090b0:	b18f      	cbz	r7, 80090d6 <_dtoa_r+0x75e>
 80090b2:	4631      	mov	r1, r6
 80090b4:	463a      	mov	r2, r7
 80090b6:	4620      	mov	r0, r4
 80090b8:	f000 fd88 	bl	8009bcc <__pow5mult>
 80090bc:	9a04      	ldr	r2, [sp, #16]
 80090be:	4601      	mov	r1, r0
 80090c0:	4606      	mov	r6, r0
 80090c2:	4620      	mov	r0, r4
 80090c4:	f000 fcec 	bl	8009aa0 <__multiply>
 80090c8:	9904      	ldr	r1, [sp, #16]
 80090ca:	9008      	str	r0, [sp, #32]
 80090cc:	4620      	mov	r0, r4
 80090ce:	f000 fc3e 	bl	800994e <_Bfree>
 80090d2:	9b08      	ldr	r3, [sp, #32]
 80090d4:	9304      	str	r3, [sp, #16]
 80090d6:	9b07      	ldr	r3, [sp, #28]
 80090d8:	1bda      	subs	r2, r3, r7
 80090da:	d004      	beq.n	80090e6 <_dtoa_r+0x76e>
 80090dc:	9904      	ldr	r1, [sp, #16]
 80090de:	4620      	mov	r0, r4
 80090e0:	f000 fd74 	bl	8009bcc <__pow5mult>
 80090e4:	9004      	str	r0, [sp, #16]
 80090e6:	2101      	movs	r1, #1
 80090e8:	4620      	mov	r0, r4
 80090ea:	f000 fcd0 	bl	8009a8e <__i2b>
 80090ee:	9b0e      	ldr	r3, [sp, #56]	; 0x38
 80090f0:	4607      	mov	r7, r0
 80090f2:	2b00      	cmp	r3, #0
 80090f4:	f000 81d0 	beq.w	8009498 <_dtoa_r+0xb20>
 80090f8:	461a      	mov	r2, r3
 80090fa:	4601      	mov	r1, r0
 80090fc:	4620      	mov	r0, r4
 80090fe:	f000 fd65 	bl	8009bcc <__pow5mult>
 8009102:	9b06      	ldr	r3, [sp, #24]
 8009104:	2b01      	cmp	r3, #1
 8009106:	4607      	mov	r7, r0
 8009108:	dc40      	bgt.n	800918c <_dtoa_r+0x814>
 800910a:	9b00      	ldr	r3, [sp, #0]
 800910c:	2b00      	cmp	r3, #0
 800910e:	d139      	bne.n	8009184 <_dtoa_r+0x80c>
 8009110:	9b01      	ldr	r3, [sp, #4]
 8009112:	f3c3 0313 	ubfx	r3, r3, #0, #20
 8009116:	2b00      	cmp	r3, #0
 8009118:	d136      	bne.n	8009188 <_dtoa_r+0x810>
 800911a:	9b01      	ldr	r3, [sp, #4]
 800911c:	f023 4300 	bic.w	r3, r3, #2147483648	; 0x80000000
 8009120:	0d1b      	lsrs	r3, r3, #20
 8009122:	051b      	lsls	r3, r3, #20
 8009124:	b12b      	cbz	r3, 8009132 <_dtoa_r+0x7ba>
 8009126:	9b05      	ldr	r3, [sp, #20]
 8009128:	3301      	adds	r3, #1
 800912a:	9305      	str	r3, [sp, #20]
 800912c:	f108 0801 	add.w	r8, r8, #1
 8009130:	2301      	movs	r3, #1
 8009132:	9307      	str	r3, [sp, #28]
 8009134:	9b0e      	ldr	r3, [sp, #56]	; 0x38
 8009136:	2b00      	cmp	r3, #0
 8009138:	d12a      	bne.n	8009190 <_dtoa_r+0x818>
 800913a:	2001      	movs	r0, #1
 800913c:	e030      	b.n	80091a0 <_dtoa_r+0x828>
 800913e:	9b14      	ldr	r3, [sp, #80]	; 0x50
 8009140:	f1c3 0336 	rsb	r3, r3, #54	; 0x36
 8009144:	e795      	b.n	8009072 <_dtoa_r+0x6fa>
 8009146:	9b07      	ldr	r3, [sp, #28]
 8009148:	f109 37ff 	add.w	r7, r9, #4294967295	; 0xffffffff
 800914c:	42bb      	cmp	r3, r7
 800914e:	bfbf      	itttt	lt
 8009150:	9b07      	ldrlt	r3, [sp, #28]
 8009152:	9707      	strlt	r7, [sp, #28]
 8009154:	1afa      	sublt	r2, r7, r3
 8009156:	9b0e      	ldrlt	r3, [sp, #56]	; 0x38
 8009158:	bfbb      	ittet	lt
 800915a:	189b      	addlt	r3, r3, r2
 800915c:	930e      	strlt	r3, [sp, #56]	; 0x38
 800915e:	1bdf      	subge	r7, r3, r7
 8009160:	2700      	movlt	r7, #0
 8009162:	f1b9 0f00 	cmp.w	r9, #0
 8009166:	bfb5      	itete	lt
 8009168:	9b05      	ldrlt	r3, [sp, #20]
 800916a:	9d05      	ldrge	r5, [sp, #20]
 800916c:	eba3 0509 	sublt.w	r5, r3, r9
 8009170:	464b      	movge	r3, r9
 8009172:	bfb8      	it	lt
 8009174:	2300      	movlt	r3, #0
 8009176:	e77e      	b.n	8009076 <_dtoa_r+0x6fe>
 8009178:	9f07      	ldr	r7, [sp, #28]
 800917a:	9d05      	ldr	r5, [sp, #20]
 800917c:	9e0a      	ldr	r6, [sp, #40]	; 0x28
 800917e:	e783      	b.n	8009088 <_dtoa_r+0x710>
 8009180:	9a07      	ldr	r2, [sp, #28]
 8009182:	e7ab      	b.n	80090dc <_dtoa_r+0x764>
 8009184:	2300      	movs	r3, #0
 8009186:	e7d4      	b.n	8009132 <_dtoa_r+0x7ba>
 8009188:	9b00      	ldr	r3, [sp, #0]
 800918a:	e7d2      	b.n	8009132 <_dtoa_r+0x7ba>
 800918c:	2300      	movs	r3, #0
 800918e:	9307      	str	r3, [sp, #28]
 8009190:	693b      	ldr	r3, [r7, #16]
 8009192:	eb07 0383 	add.w	r3, r7, r3, lsl #2
 8009196:	6918      	ldr	r0, [r3, #16]
 8009198:	f000 fc2b 	bl	80099f2 <__hi0bits>
 800919c:	f1c0 0020 	rsb	r0, r0, #32
 80091a0:	4440      	add	r0, r8
 80091a2:	f010 001f 	ands.w	r0, r0, #31
 80091a6:	d047      	beq.n	8009238 <_dtoa_r+0x8c0>
 80091a8:	f1c0 0320 	rsb	r3, r0, #32
 80091ac:	2b04      	cmp	r3, #4
 80091ae:	dd3b      	ble.n	8009228 <_dtoa_r+0x8b0>
 80091b0:	9b05      	ldr	r3, [sp, #20]
 80091b2:	f1c0 001c 	rsb	r0, r0, #28
 80091b6:	4403      	add	r3, r0
 80091b8:	9305      	str	r3, [sp, #20]
 80091ba:	4405      	add	r5, r0
 80091bc:	4480      	add	r8, r0
 80091be:	9b05      	ldr	r3, [sp, #20]
 80091c0:	2b00      	cmp	r3, #0
 80091c2:	dd05      	ble.n	80091d0 <_dtoa_r+0x858>
 80091c4:	461a      	mov	r2, r3
 80091c6:	9904      	ldr	r1, [sp, #16]
 80091c8:	4620      	mov	r0, r4
 80091ca:	f000 fd4d 	bl	8009c68 <__lshift>
 80091ce:	9004      	str	r0, [sp, #16]
 80091d0:	f1b8 0f00 	cmp.w	r8, #0
 80091d4:	dd05      	ble.n	80091e2 <_dtoa_r+0x86a>
 80091d6:	4639      	mov	r1, r7
 80091d8:	4642      	mov	r2, r8
 80091da:	4620      	mov	r0, r4
 80091dc:	f000 fd44 	bl	8009c68 <__lshift>
 80091e0:	4607      	mov	r7, r0
 80091e2:	9b0f      	ldr	r3, [sp, #60]	; 0x3c
 80091e4:	b353      	cbz	r3, 800923c <_dtoa_r+0x8c4>
 80091e6:	4639      	mov	r1, r7
 80091e8:	9804      	ldr	r0, [sp, #16]
 80091ea:	f000 fd91 	bl	8009d10 <__mcmp>
 80091ee:	2800      	cmp	r0, #0
 80091f0:	da24      	bge.n	800923c <_dtoa_r+0x8c4>
 80091f2:	2300      	movs	r3, #0
 80091f4:	220a      	movs	r2, #10
 80091f6:	9904      	ldr	r1, [sp, #16]
 80091f8:	4620      	mov	r0, r4
 80091fa:	f000 fbbf 	bl	800997c <__multadd>
 80091fe:	9b0a      	ldr	r3, [sp, #40]	; 0x28
 8009200:	9004      	str	r0, [sp, #16]
 8009202:	f10a 3aff 	add.w	sl, sl, #4294967295	; 0xffffffff
 8009206:	2b00      	cmp	r3, #0
 8009208:	f000 814d 	beq.w	80094a6 <_dtoa_r+0xb2e>
 800920c:	2300      	movs	r3, #0
 800920e:	4631      	mov	r1, r6
 8009210:	220a      	movs	r2, #10
 8009212:	4620      	mov	r0, r4
 8009214:	f000 fbb2 	bl	800997c <__multadd>
 8009218:	9b02      	ldr	r3, [sp, #8]
 800921a:	2b00      	cmp	r3, #0
 800921c:	4606      	mov	r6, r0
 800921e:	dc4f      	bgt.n	80092c0 <_dtoa_r+0x948>
 8009220:	9b06      	ldr	r3, [sp, #24]
 8009222:	2b02      	cmp	r3, #2
 8009224:	dd4c      	ble.n	80092c0 <_dtoa_r+0x948>
 8009226:	e011      	b.n	800924c <_dtoa_r+0x8d4>
 8009228:	d0c9      	beq.n	80091be <_dtoa_r+0x846>
 800922a:	9a05      	ldr	r2, [sp, #20]
 800922c:	331c      	adds	r3, #28
 800922e:	441a      	add	r2, r3
 8009230:	9205      	str	r2, [sp, #20]
 8009232:	441d      	add	r5, r3
 8009234:	4498      	add	r8, r3
 8009236:	e7c2      	b.n	80091be <_dtoa_r+0x846>
 8009238:	4603      	mov	r3, r0
 800923a:	e7f6      	b.n	800922a <_dtoa_r+0x8b2>
 800923c:	f1b9 0f00 	cmp.w	r9, #0
 8009240:	dc38      	bgt.n	80092b4 <_dtoa_r+0x93c>
 8009242:	9b06      	ldr	r3, [sp, #24]
 8009244:	2b02      	cmp	r3, #2
 8009246:	dd35      	ble.n	80092b4 <_dtoa_r+0x93c>
 8009248:	f8cd 9008 	str.w	r9, [sp, #8]
 800924c:	9b02      	ldr	r3, [sp, #8]
 800924e:	b963      	cbnz	r3, 800926a <_dtoa_r+0x8f2>
 8009250:	4639      	mov	r1, r7
 8009252:	2205      	movs	r2, #5
 8009254:	4620      	mov	r0, r4
 8009256:	f000 fb91 	bl	800997c <__multadd>
 800925a:	4601      	mov	r1, r0
 800925c:	4607      	mov	r7, r0
 800925e:	9804      	ldr	r0, [sp, #16]
 8009260:	f000 fd56 	bl	8009d10 <__mcmp>
 8009264:	2800      	cmp	r0, #0
 8009266:	f73f adcc 	bgt.w	8008e02 <_dtoa_r+0x48a>
 800926a:	9b0b      	ldr	r3, [sp, #44]	; 0x2c
 800926c:	465d      	mov	r5, fp
 800926e:	ea6f 0a03 	mvn.w	sl, r3
 8009272:	f04f 0900 	mov.w	r9, #0
 8009276:	4639      	mov	r1, r7
 8009278:	4620      	mov	r0, r4
 800927a:	f000 fb68 	bl	800994e <_Bfree>
 800927e:	2e00      	cmp	r6, #0
 8009280:	f43f aeb7 	beq.w	8008ff2 <_dtoa_r+0x67a>
 8009284:	f1b9 0f00 	cmp.w	r9, #0
 8009288:	d005      	beq.n	8009296 <_dtoa_r+0x91e>
 800928a:	45b1      	cmp	r9, r6
 800928c:	d003      	beq.n	8009296 <_dtoa_r+0x91e>
 800928e:	4649      	mov	r1, r9
 8009290:	4620      	mov	r0, r4
 8009292:	f000 fb5c 	bl	800994e <_Bfree>
 8009296:	4631      	mov	r1, r6
 8009298:	4620      	mov	r0, r4
 800929a:	f000 fb58 	bl	800994e <_Bfree>
 800929e:	e6a8      	b.n	8008ff2 <_dtoa_r+0x67a>
 80092a0:	2700      	movs	r7, #0
 80092a2:	463e      	mov	r6, r7
 80092a4:	e7e1      	b.n	800926a <_dtoa_r+0x8f2>
 80092a6:	f8dd a020 	ldr.w	sl, [sp, #32]
 80092aa:	463e      	mov	r6, r7
 80092ac:	e5a9      	b.n	8008e02 <_dtoa_r+0x48a>
 80092ae:	bf00      	nop
 80092b0:	40240000 	.word	0x40240000
 80092b4:	9b0a      	ldr	r3, [sp, #40]	; 0x28
 80092b6:	f8cd 9008 	str.w	r9, [sp, #8]
 80092ba:	2b00      	cmp	r3, #0
 80092bc:	f000 80fa 	beq.w	80094b4 <_dtoa_r+0xb3c>
 80092c0:	2d00      	cmp	r5, #0
 80092c2:	dd05      	ble.n	80092d0 <_dtoa_r+0x958>
 80092c4:	4631      	mov	r1, r6
 80092c6:	462a      	mov	r2, r5
 80092c8:	4620      	mov	r0, r4
 80092ca:	f000 fccd 	bl	8009c68 <__lshift>
 80092ce:	4606      	mov	r6, r0
 80092d0:	9b07      	ldr	r3, [sp, #28]
 80092d2:	2b00      	cmp	r3, #0
 80092d4:	d04c      	beq.n	8009370 <_dtoa_r+0x9f8>
 80092d6:	6871      	ldr	r1, [r6, #4]
 80092d8:	4620      	mov	r0, r4
 80092da:	f000 fb04 	bl	80098e6 <_Balloc>
 80092de:	6932      	ldr	r2, [r6, #16]
 80092e0:	3202      	adds	r2, #2
 80092e2:	4605      	mov	r5, r0
 80092e4:	0092      	lsls	r2, r2, #2
 80092e6:	f106 010c 	add.w	r1, r6, #12
 80092ea:	300c      	adds	r0, #12
 80092ec:	f000 faf0 	bl	80098d0 <memcpy>
 80092f0:	2201      	movs	r2, #1
 80092f2:	4629      	mov	r1, r5
 80092f4:	4620      	mov	r0, r4
 80092f6:	f000 fcb7 	bl	8009c68 <__lshift>
 80092fa:	9b00      	ldr	r3, [sp, #0]
 80092fc:	f8cd b014 	str.w	fp, [sp, #20]
 8009300:	f003 0301 	and.w	r3, r3, #1
 8009304:	46b1      	mov	r9, r6
 8009306:	9307      	str	r3, [sp, #28]
 8009308:	4606      	mov	r6, r0
 800930a:	4639      	mov	r1, r7
 800930c:	9804      	ldr	r0, [sp, #16]
 800930e:	f7ff faa5 	bl	800885c <quorem>
 8009312:	4649      	mov	r1, r9
 8009314:	4605      	mov	r5, r0
 8009316:	f100 0830 	add.w	r8, r0, #48	; 0x30
 800931a:	9804      	ldr	r0, [sp, #16]
 800931c:	f000 fcf8 	bl	8009d10 <__mcmp>
 8009320:	4632      	mov	r2, r6
 8009322:	9000      	str	r0, [sp, #0]
 8009324:	4639      	mov	r1, r7
 8009326:	4620      	mov	r0, r4
 8009328:	f000 fd0c 	bl	8009d44 <__mdiff>
 800932c:	68c3      	ldr	r3, [r0, #12]
 800932e:	4602      	mov	r2, r0
 8009330:	bb03      	cbnz	r3, 8009374 <_dtoa_r+0x9fc>
 8009332:	4601      	mov	r1, r0
 8009334:	9008      	str	r0, [sp, #32]
 8009336:	9804      	ldr	r0, [sp, #16]
 8009338:	f000 fcea 	bl	8009d10 <__mcmp>
 800933c:	9a08      	ldr	r2, [sp, #32]
 800933e:	4603      	mov	r3, r0
 8009340:	4611      	mov	r1, r2
 8009342:	4620      	mov	r0, r4
 8009344:	9308      	str	r3, [sp, #32]
 8009346:	f000 fb02 	bl	800994e <_Bfree>
 800934a:	9b08      	ldr	r3, [sp, #32]
 800934c:	b9a3      	cbnz	r3, 8009378 <_dtoa_r+0xa00>
 800934e:	9a06      	ldr	r2, [sp, #24]
 8009350:	b992      	cbnz	r2, 8009378 <_dtoa_r+0xa00>
 8009352:	9a07      	ldr	r2, [sp, #28]
 8009354:	b982      	cbnz	r2, 8009378 <_dtoa_r+0xa00>
 8009356:	f1b8 0f39 	cmp.w	r8, #57	; 0x39
 800935a:	d029      	beq.n	80093b0 <_dtoa_r+0xa38>
 800935c:	9b00      	ldr	r3, [sp, #0]
 800935e:	2b00      	cmp	r3, #0
 8009360:	dd01      	ble.n	8009366 <_dtoa_r+0x9ee>
 8009362:	f105 0831 	add.w	r8, r5, #49	; 0x31
 8009366:	9b05      	ldr	r3, [sp, #20]
 8009368:	1c5d      	adds	r5, r3, #1
 800936a:	f883 8000 	strb.w	r8, [r3]
 800936e:	e782      	b.n	8009276 <_dtoa_r+0x8fe>
 8009370:	4630      	mov	r0, r6
 8009372:	e7c2      	b.n	80092fa <_dtoa_r+0x982>
 8009374:	2301      	movs	r3, #1
 8009376:	e7e3      	b.n	8009340 <_dtoa_r+0x9c8>
 8009378:	9a00      	ldr	r2, [sp, #0]
 800937a:	2a00      	cmp	r2, #0
 800937c:	db04      	blt.n	8009388 <_dtoa_r+0xa10>
 800937e:	d125      	bne.n	80093cc <_dtoa_r+0xa54>
 8009380:	9a06      	ldr	r2, [sp, #24]
 8009382:	bb1a      	cbnz	r2, 80093cc <_dtoa_r+0xa54>
 8009384:	9a07      	ldr	r2, [sp, #28]
 8009386:	bb0a      	cbnz	r2, 80093cc <_dtoa_r+0xa54>
 8009388:	2b00      	cmp	r3, #0
 800938a:	ddec      	ble.n	8009366 <_dtoa_r+0x9ee>
 800938c:	2201      	movs	r2, #1
 800938e:	9904      	ldr	r1, [sp, #16]
 8009390:	4620      	mov	r0, r4
 8009392:	f000 fc69 	bl	8009c68 <__lshift>
 8009396:	4639      	mov	r1, r7
 8009398:	9004      	str	r0, [sp, #16]
 800939a:	f000 fcb9 	bl	8009d10 <__mcmp>
 800939e:	2800      	cmp	r0, #0
 80093a0:	dc03      	bgt.n	80093aa <_dtoa_r+0xa32>
 80093a2:	d1e0      	bne.n	8009366 <_dtoa_r+0x9ee>
 80093a4:	f018 0f01 	tst.w	r8, #1
 80093a8:	d0dd      	beq.n	8009366 <_dtoa_r+0x9ee>
 80093aa:	f1b8 0f39 	cmp.w	r8, #57	; 0x39
 80093ae:	d1d8      	bne.n	8009362 <_dtoa_r+0x9ea>
 80093b0:	9b05      	ldr	r3, [sp, #20]
 80093b2:	9a05      	ldr	r2, [sp, #20]
 80093b4:	1c5d      	adds	r5, r3, #1
 80093b6:	2339      	movs	r3, #57	; 0x39
 80093b8:	7013      	strb	r3, [r2, #0]
 80093ba:	f815 3c01 	ldrb.w	r3, [r5, #-1]
 80093be:	2b39      	cmp	r3, #57	; 0x39
 80093c0:	f105 32ff 	add.w	r2, r5, #4294967295	; 0xffffffff
 80093c4:	d04f      	beq.n	8009466 <_dtoa_r+0xaee>
 80093c6:	3301      	adds	r3, #1
 80093c8:	7013      	strb	r3, [r2, #0]
 80093ca:	e754      	b.n	8009276 <_dtoa_r+0x8fe>
 80093cc:	9a05      	ldr	r2, [sp, #20]
 80093ce:	2b00      	cmp	r3, #0
 80093d0:	f102 0501 	add.w	r5, r2, #1
 80093d4:	dd06      	ble.n	80093e4 <_dtoa_r+0xa6c>
 80093d6:	f1b8 0f39 	cmp.w	r8, #57	; 0x39
 80093da:	d0e9      	beq.n	80093b0 <_dtoa_r+0xa38>
 80093dc:	f108 0801 	add.w	r8, r8, #1
 80093e0:	9b05      	ldr	r3, [sp, #20]
 80093e2:	e7c2      	b.n	800936a <_dtoa_r+0x9f2>
 80093e4:	9a02      	ldr	r2, [sp, #8]
 80093e6:	f805 8c01 	strb.w	r8, [r5, #-1]
 80093ea:	eba5 030b 	sub.w	r3, r5, fp
 80093ee:	4293      	cmp	r3, r2
 80093f0:	d021      	beq.n	8009436 <_dtoa_r+0xabe>
 80093f2:	2300      	movs	r3, #0
 80093f4:	220a      	movs	r2, #10
 80093f6:	9904      	ldr	r1, [sp, #16]
 80093f8:	4620      	mov	r0, r4
 80093fa:	f000 fabf 	bl	800997c <__multadd>
 80093fe:	45b1      	cmp	r9, r6
 8009400:	9004      	str	r0, [sp, #16]
 8009402:	f04f 0300 	mov.w	r3, #0
 8009406:	f04f 020a 	mov.w	r2, #10
 800940a:	4649      	mov	r1, r9
 800940c:	4620      	mov	r0, r4
 800940e:	d105      	bne.n	800941c <_dtoa_r+0xaa4>
 8009410:	f000 fab4 	bl	800997c <__multadd>
 8009414:	4681      	mov	r9, r0
 8009416:	4606      	mov	r6, r0
 8009418:	9505      	str	r5, [sp, #20]
 800941a:	e776      	b.n	800930a <_dtoa_r+0x992>
 800941c:	f000 faae 	bl	800997c <__multadd>
 8009420:	4631      	mov	r1, r6
 8009422:	4681      	mov	r9, r0
 8009424:	2300      	movs	r3, #0
 8009426:	220a      	movs	r2, #10
 8009428:	4620      	mov	r0, r4
 800942a:	f000 faa7 	bl	800997c <__multadd>
 800942e:	4606      	mov	r6, r0
 8009430:	e7f2      	b.n	8009418 <_dtoa_r+0xaa0>
 8009432:	f04f 0900 	mov.w	r9, #0
 8009436:	2201      	movs	r2, #1
 8009438:	9904      	ldr	r1, [sp, #16]
 800943a:	4620      	mov	r0, r4
 800943c:	f000 fc14 	bl	8009c68 <__lshift>
 8009440:	4639      	mov	r1, r7
 8009442:	9004      	str	r0, [sp, #16]
 8009444:	f000 fc64 	bl	8009d10 <__mcmp>
 8009448:	2800      	cmp	r0, #0
 800944a:	dcb6      	bgt.n	80093ba <_dtoa_r+0xa42>
 800944c:	d102      	bne.n	8009454 <_dtoa_r+0xadc>
 800944e:	f018 0f01 	tst.w	r8, #1
 8009452:	d1b2      	bne.n	80093ba <_dtoa_r+0xa42>
 8009454:	f815 3c01 	ldrb.w	r3, [r5, #-1]
 8009458:	2b30      	cmp	r3, #48	; 0x30
 800945a:	f105 32ff 	add.w	r2, r5, #4294967295	; 0xffffffff
 800945e:	f47f af0a 	bne.w	8009276 <_dtoa_r+0x8fe>
 8009462:	4615      	mov	r5, r2
 8009464:	e7f6      	b.n	8009454 <_dtoa_r+0xadc>
 8009466:	4593      	cmp	fp, r2
 8009468:	d105      	bne.n	8009476 <_dtoa_r+0xafe>
 800946a:	2331      	movs	r3, #49	; 0x31
 800946c:	f10a 0a01 	add.w	sl, sl, #1
 8009470:	f88b 3000 	strb.w	r3, [fp]
 8009474:	e6ff      	b.n	8009276 <_dtoa_r+0x8fe>
 8009476:	4615      	mov	r5, r2
 8009478:	e79f      	b.n	80093ba <_dtoa_r+0xa42>
 800947a:	f8df b064 	ldr.w	fp, [pc, #100]	; 80094e0 <_dtoa_r+0xb68>
 800947e:	e007      	b.n	8009490 <_dtoa_r+0xb18>
 8009480:	9b21      	ldr	r3, [sp, #132]	; 0x84
 8009482:	f8df b060 	ldr.w	fp, [pc, #96]	; 80094e4 <_dtoa_r+0xb6c>
 8009486:	b11b      	cbz	r3, 8009490 <_dtoa_r+0xb18>
 8009488:	f10b 0308 	add.w	r3, fp, #8
 800948c:	9a21      	ldr	r2, [sp, #132]	; 0x84
 800948e:	6013      	str	r3, [r2, #0]
 8009490:	4658      	mov	r0, fp
 8009492:	b017      	add	sp, #92	; 0x5c
 8009494:	e8bd 8ff0 	ldmia.w	sp!, {r4, r5, r6, r7, r8, r9, sl, fp, pc}
 8009498:	9b06      	ldr	r3, [sp, #24]
 800949a:	2b01      	cmp	r3, #1
 800949c:	f77f ae35 	ble.w	800910a <_dtoa_r+0x792>
 80094a0:	9b0e      	ldr	r3, [sp, #56]	; 0x38
 80094a2:	9307      	str	r3, [sp, #28]
 80094a4:	e649      	b.n	800913a <_dtoa_r+0x7c2>
 80094a6:	9b02      	ldr	r3, [sp, #8]
 80094a8:	2b00      	cmp	r3, #0
 80094aa:	dc03      	bgt.n	80094b4 <_dtoa_r+0xb3c>
 80094ac:	9b06      	ldr	r3, [sp, #24]
 80094ae:	2b02      	cmp	r3, #2
 80094b0:	f73f aecc 	bgt.w	800924c <_dtoa_r+0x8d4>
 80094b4:	465d      	mov	r5, fp
 80094b6:	4639      	mov	r1, r7
 80094b8:	9804      	ldr	r0, [sp, #16]
 80094ba:	f7ff f9cf 	bl	800885c <quorem>
 80094be:	f100 0830 	add.w	r8, r0, #48	; 0x30
 80094c2:	f805 8b01 	strb.w	r8, [r5], #1
 80094c6:	9a02      	ldr	r2, [sp, #8]
 80094c8:	eba5 030b 	sub.w	r3, r5, fp
 80094cc:	429a      	cmp	r2, r3
 80094ce:	ddb0      	ble.n	8009432 <_dtoa_r+0xaba>
 80094d0:	2300      	movs	r3, #0
 80094d2:	220a      	movs	r2, #10
 80094d4:	9904      	ldr	r1, [sp, #16]
 80094d6:	4620      	mov	r0, r4
 80094d8:	f000 fa50 	bl	800997c <__multadd>
 80094dc:	9004      	str	r0, [sp, #16]
 80094de:	e7ea      	b.n	80094b6 <_dtoa_r+0xb3e>
 80094e0:	0800b894 	.word	0x0800b894
 80094e4:	0800b8b8 	.word	0x0800b8b8

080094e8 <__sflush_r>:
 80094e8:	898a      	ldrh	r2, [r1, #12]
 80094ea:	e92d 41f0 	stmdb	sp!, {r4, r5, r6, r7, r8, lr}
 80094ee:	4605      	mov	r5, r0
 80094f0:	0710      	lsls	r0, r2, #28
 80094f2:	460c      	mov	r4, r1
 80094f4:	d458      	bmi.n	80095a8 <__sflush_r+0xc0>
 80094f6:	684b      	ldr	r3, [r1, #4]
 80094f8:	2b00      	cmp	r3, #0
 80094fa:	dc05      	bgt.n	8009508 <__sflush_r+0x20>
 80094fc:	6c0b      	ldr	r3, [r1, #64]	; 0x40
 80094fe:	2b00      	cmp	r3, #0
 8009500:	dc02      	bgt.n	8009508 <__sflush_r+0x20>
 8009502:	2000      	movs	r0, #0
 8009504:	e8bd 81f0 	ldmia.w	sp!, {r4, r5, r6, r7, r8, pc}
 8009508:	6ae6      	ldr	r6, [r4, #44]	; 0x2c
 800950a:	2e00      	cmp	r6, #0
 800950c:	d0f9      	beq.n	8009502 <__sflush_r+0x1a>
 800950e:	2300      	movs	r3, #0
 8009510:	f412 5280 	ands.w	r2, r2, #4096	; 0x1000
 8009514:	682f      	ldr	r7, [r5, #0]
 8009516:	6a21      	ldr	r1, [r4, #32]
 8009518:	602b      	str	r3, [r5, #0]
 800951a:	d032      	beq.n	8009582 <__sflush_r+0x9a>
 800951c:	6d60      	ldr	r0, [r4, #84]	; 0x54
 800951e:	89a3      	ldrh	r3, [r4, #12]
 8009520:	075a      	lsls	r2, r3, #29
 8009522:	d505      	bpl.n	8009530 <__sflush_r+0x48>
 8009524:	6863      	ldr	r3, [r4, #4]
 8009526:	1ac0      	subs	r0, r0, r3
 8009528:	6b63      	ldr	r3, [r4, #52]	; 0x34
 800952a:	b10b      	cbz	r3, 8009530 <__sflush_r+0x48>
 800952c:	6c23      	ldr	r3, [r4, #64]	; 0x40
 800952e:	1ac0      	subs	r0, r0, r3
 8009530:	2300      	movs	r3, #0
 8009532:	4602      	mov	r2, r0
 8009534:	6ae6      	ldr	r6, [r4, #44]	; 0x2c
 8009536:	6a21      	ldr	r1, [r4, #32]
 8009538:	4628      	mov	r0, r5
 800953a:	47b0      	blx	r6
 800953c:	1c43      	adds	r3, r0, #1
 800953e:	89a3      	ldrh	r3, [r4, #12]
 8009540:	d106      	bne.n	8009550 <__sflush_r+0x68>
 8009542:	6829      	ldr	r1, [r5, #0]
 8009544:	291d      	cmp	r1, #29
 8009546:	d848      	bhi.n	80095da <__sflush_r+0xf2>
 8009548:	4a29      	ldr	r2, [pc, #164]	; (80095f0 <__sflush_r+0x108>)
 800954a:	40ca      	lsrs	r2, r1
 800954c:	07d6      	lsls	r6, r2, #31
 800954e:	d544      	bpl.n	80095da <__sflush_r+0xf2>
 8009550:	2200      	movs	r2, #0
 8009552:	6062      	str	r2, [r4, #4]
 8009554:	04d9      	lsls	r1, r3, #19
 8009556:	6922      	ldr	r2, [r4, #16]
 8009558:	6022      	str	r2, [r4, #0]
 800955a:	d504      	bpl.n	8009566 <__sflush_r+0x7e>
 800955c:	1c42      	adds	r2, r0, #1
 800955e:	d101      	bne.n	8009564 <__sflush_r+0x7c>
 8009560:	682b      	ldr	r3, [r5, #0]
 8009562:	b903      	cbnz	r3, 8009566 <__sflush_r+0x7e>
 8009564:	6560      	str	r0, [r4, #84]	; 0x54
 8009566:	6b61      	ldr	r1, [r4, #52]	; 0x34
 8009568:	602f      	str	r7, [r5, #0]
 800956a:	2900      	cmp	r1, #0
 800956c:	d0c9      	beq.n	8009502 <__sflush_r+0x1a>
 800956e:	f104 0344 	add.w	r3, r4, #68	; 0x44
 8009572:	4299      	cmp	r1, r3
 8009574:	d002      	beq.n	800957c <__sflush_r+0x94>
 8009576:	4628      	mov	r0, r5
 8009578:	f000 fc9e 	bl	8009eb8 <_free_r>
 800957c:	2000      	movs	r0, #0
 800957e:	6360      	str	r0, [r4, #52]	; 0x34
 8009580:	e7c0      	b.n	8009504 <__sflush_r+0x1c>
 8009582:	2301      	movs	r3, #1
 8009584:	4628      	mov	r0, r5
 8009586:	47b0      	blx	r6
 8009588:	1c41      	adds	r1, r0, #1
 800958a:	d1c8      	bne.n	800951e <__sflush_r+0x36>
 800958c:	682b      	ldr	r3, [r5, #0]
 800958e:	2b00      	cmp	r3, #0
 8009590:	d0c5      	beq.n	800951e <__sflush_r+0x36>
 8009592:	2b1d      	cmp	r3, #29
 8009594:	d001      	beq.n	800959a <__sflush_r+0xb2>
 8009596:	2b16      	cmp	r3, #22
 8009598:	d101      	bne.n	800959e <__sflush_r+0xb6>
 800959a:	602f      	str	r7, [r5, #0]
 800959c:	e7b1      	b.n	8009502 <__sflush_r+0x1a>
 800959e:	89a3      	ldrh	r3, [r4, #12]
 80095a0:	f043 0340 	orr.w	r3, r3, #64	; 0x40
 80095a4:	81a3      	strh	r3, [r4, #12]
 80095a6:	e7ad      	b.n	8009504 <__sflush_r+0x1c>
 80095a8:	690f      	ldr	r7, [r1, #16]
 80095aa:	2f00      	cmp	r7, #0
 80095ac:	d0a9      	beq.n	8009502 <__sflush_r+0x1a>
 80095ae:	0793      	lsls	r3, r2, #30
 80095b0:	680e      	ldr	r6, [r1, #0]
 80095b2:	bf08      	it	eq
 80095b4:	694b      	ldreq	r3, [r1, #20]
 80095b6:	600f      	str	r7, [r1, #0]
 80095b8:	bf18      	it	ne
 80095ba:	2300      	movne	r3, #0
 80095bc:	eba6 0807 	sub.w	r8, r6, r7
 80095c0:	608b      	str	r3, [r1, #8]
 80095c2:	f1b8 0f00 	cmp.w	r8, #0
 80095c6:	dd9c      	ble.n	8009502 <__sflush_r+0x1a>
 80095c8:	4643      	mov	r3, r8
 80095ca:	463a      	mov	r2, r7
 80095cc:	6a21      	ldr	r1, [r4, #32]
 80095ce:	6aa6      	ldr	r6, [r4, #40]	; 0x28
 80095d0:	4628      	mov	r0, r5
 80095d2:	47b0      	blx	r6
 80095d4:	2800      	cmp	r0, #0
 80095d6:	dc06      	bgt.n	80095e6 <__sflush_r+0xfe>
 80095d8:	89a3      	ldrh	r3, [r4, #12]
 80095da:	f043 0340 	orr.w	r3, r3, #64	; 0x40
 80095de:	81a3      	strh	r3, [r4, #12]
 80095e0:	f04f 30ff 	mov.w	r0, #4294967295	; 0xffffffff
 80095e4:	e78e      	b.n	8009504 <__sflush_r+0x1c>
 80095e6:	4407      	add	r7, r0
 80095e8:	eba8 0800 	sub.w	r8, r8, r0
 80095ec:	e7e9      	b.n	80095c2 <__sflush_r+0xda>
 80095ee:	bf00      	nop
 80095f0:	20400001 	.word	0x20400001

080095f4 <_fflush_r>:
 80095f4:	b538      	push	{r3, r4, r5, lr}
 80095f6:	690b      	ldr	r3, [r1, #16]
 80095f8:	4605      	mov	r5, r0
 80095fa:	460c      	mov	r4, r1
 80095fc:	b1db      	cbz	r3, 8009636 <_fflush_r+0x42>
 80095fe:	b118      	cbz	r0, 8009608 <_fflush_r+0x14>
 8009600:	6983      	ldr	r3, [r0, #24]
 8009602:	b90b      	cbnz	r3, 8009608 <_fflush_r+0x14>
 8009604:	f000 f860 	bl	80096c8 <__sinit>
 8009608:	4b0c      	ldr	r3, [pc, #48]	; (800963c <_fflush_r+0x48>)
 800960a:	429c      	cmp	r4, r3
 800960c:	d109      	bne.n	8009622 <_fflush_r+0x2e>
 800960e:	686c      	ldr	r4, [r5, #4]
 8009610:	f9b4 300c 	ldrsh.w	r3, [r4, #12]
 8009614:	b17b      	cbz	r3, 8009636 <_fflush_r+0x42>
 8009616:	4621      	mov	r1, r4
 8009618:	4628      	mov	r0, r5
 800961a:	e8bd 4038 	ldmia.w	sp!, {r3, r4, r5, lr}
 800961e:	f7ff bf63 	b.w	80094e8 <__sflush_r>
 8009622:	4b07      	ldr	r3, [pc, #28]	; (8009640 <_fflush_r+0x4c>)
 8009624:	429c      	cmp	r4, r3
 8009626:	d101      	bne.n	800962c <_fflush_r+0x38>
 8009628:	68ac      	ldr	r4, [r5, #8]
 800962a:	e7f1      	b.n	8009610 <_fflush_r+0x1c>
 800962c:	4b05      	ldr	r3, [pc, #20]	; (8009644 <_fflush_r+0x50>)
 800962e:	429c      	cmp	r4, r3
 8009630:	bf08      	it	eq
 8009632:	68ec      	ldreq	r4, [r5, #12]
 8009634:	e7ec      	b.n	8009610 <_fflush_r+0x1c>
 8009636:	2000      	movs	r0, #0
 8009638:	bd38      	pop	{r3, r4, r5, pc}
 800963a:	bf00      	nop
 800963c:	0800b8e8 	.word	0x0800b8e8
 8009640:	0800b908 	.word	0x0800b908
 8009644:	0800b8c8 	.word	0x0800b8c8

08009648 <std>:
 8009648:	2300      	movs	r3, #0
 800964a:	b510      	push	{r4, lr}
 800964c:	4604      	mov	r4, r0
 800964e:	e9c0 3300 	strd	r3, r3, [r0]
 8009652:	6083      	str	r3, [r0, #8]
 8009654:	8181      	strh	r1, [r0, #12]
 8009656:	6643      	str	r3, [r0, #100]	; 0x64
 8009658:	81c2      	strh	r2, [r0, #14]
 800965a:	e9c0 3304 	strd	r3, r3, [r0, #16]
 800965e:	6183      	str	r3, [r0, #24]
 8009660:	4619      	mov	r1, r3
 8009662:	2208      	movs	r2, #8
 8009664:	305c      	adds	r0, #92	; 0x5c
 8009666:	f7fe fb31 	bl	8007ccc <memset>
 800966a:	4b05      	ldr	r3, [pc, #20]	; (8009680 <std+0x38>)
 800966c:	6263      	str	r3, [r4, #36]	; 0x24
 800966e:	4b05      	ldr	r3, [pc, #20]	; (8009684 <std+0x3c>)
 8009670:	62a3      	str	r3, [r4, #40]	; 0x28
 8009672:	4b05      	ldr	r3, [pc, #20]	; (8009688 <std+0x40>)
 8009674:	62e3      	str	r3, [r4, #44]	; 0x2c
 8009676:	4b05      	ldr	r3, [pc, #20]	; (800968c <std+0x44>)
 8009678:	6224      	str	r4, [r4, #32]
 800967a:	6323      	str	r3, [r4, #48]	; 0x30
 800967c:	bd10      	pop	{r4, pc}
 800967e:	bf00      	nop
 8009680:	0800a54d 	.word	0x0800a54d
 8009684:	0800a56f 	.word	0x0800a56f
 8009688:	0800a5a7 	.word	0x0800a5a7
 800968c:	0800a5cb 	.word	0x0800a5cb

08009690 <_cleanup_r>:
 8009690:	4901      	ldr	r1, [pc, #4]	; (8009698 <_cleanup_r+0x8>)
 8009692:	f000 b885 	b.w	80097a0 <_fwalk_reent>
 8009696:	bf00      	nop
 8009698:	080095f5 	.word	0x080095f5

0800969c <__sfmoreglue>:
 800969c:	b570      	push	{r4, r5, r6, lr}
 800969e:	1e4a      	subs	r2, r1, #1
 80096a0:	2568      	movs	r5, #104	; 0x68
 80096a2:	4355      	muls	r5, r2
 80096a4:	460e      	mov	r6, r1
 80096a6:	f105 0174 	add.w	r1, r5, #116	; 0x74
 80096aa:	f000 fc53 	bl	8009f54 <_malloc_r>
 80096ae:	4604      	mov	r4, r0
 80096b0:	b140      	cbz	r0, 80096c4 <__sfmoreglue+0x28>
 80096b2:	2100      	movs	r1, #0
 80096b4:	e9c0 1600 	strd	r1, r6, [r0]
 80096b8:	300c      	adds	r0, #12
 80096ba:	60a0      	str	r0, [r4, #8]
 80096bc:	f105 0268 	add.w	r2, r5, #104	; 0x68
 80096c0:	f7fe fb04 	bl	8007ccc <memset>
 80096c4:	4620      	mov	r0, r4
 80096c6:	bd70      	pop	{r4, r5, r6, pc}

080096c8 <__sinit>:
 80096c8:	6983      	ldr	r3, [r0, #24]
 80096ca:	b510      	push	{r4, lr}
 80096cc:	4604      	mov	r4, r0
 80096ce:	bb33      	cbnz	r3, 800971e <__sinit+0x56>
 80096d0:	e9c0 3312 	strd	r3, r3, [r0, #72]	; 0x48
 80096d4:	6503      	str	r3, [r0, #80]	; 0x50
 80096d6:	4b12      	ldr	r3, [pc, #72]	; (8009720 <__sinit+0x58>)
 80096d8:	4a12      	ldr	r2, [pc, #72]	; (8009724 <__sinit+0x5c>)
 80096da:	681b      	ldr	r3, [r3, #0]
 80096dc:	6282      	str	r2, [r0, #40]	; 0x28
 80096de:	4298      	cmp	r0, r3
 80096e0:	bf04      	itt	eq
 80096e2:	2301      	moveq	r3, #1
 80096e4:	6183      	streq	r3, [r0, #24]
 80096e6:	f000 f81f 	bl	8009728 <__sfp>
 80096ea:	6060      	str	r0, [r4, #4]
 80096ec:	4620      	mov	r0, r4
 80096ee:	f000 f81b 	bl	8009728 <__sfp>
 80096f2:	60a0      	str	r0, [r4, #8]
 80096f4:	4620      	mov	r0, r4
 80096f6:	f000 f817 	bl	8009728 <__sfp>
 80096fa:	2200      	movs	r2, #0
 80096fc:	60e0      	str	r0, [r4, #12]
 80096fe:	2104      	movs	r1, #4
 8009700:	6860      	ldr	r0, [r4, #4]
 8009702:	f7ff ffa1 	bl	8009648 <std>
 8009706:	2201      	movs	r2, #1
 8009708:	2109      	movs	r1, #9
 800970a:	68a0      	ldr	r0, [r4, #8]
 800970c:	f7ff ff9c 	bl	8009648 <std>
 8009710:	2202      	movs	r2, #2
 8009712:	2112      	movs	r1, #18
 8009714:	68e0      	ldr	r0, [r4, #12]
 8009716:	f7ff ff97 	bl	8009648 <std>
 800971a:	2301      	movs	r3, #1
 800971c:	61a3      	str	r3, [r4, #24]
 800971e:	bd10      	pop	{r4, pc}
 8009720:	0800b880 	.word	0x0800b880
 8009724:	08009691 	.word	0x08009691

08009728 <__sfp>:
 8009728:	b5f8      	push	{r3, r4, r5, r6, r7, lr}
 800972a:	4b1b      	ldr	r3, [pc, #108]	; (8009798 <__sfp+0x70>)
 800972c:	681e      	ldr	r6, [r3, #0]
 800972e:	69b3      	ldr	r3, [r6, #24]
 8009730:	4607      	mov	r7, r0
 8009732:	b913      	cbnz	r3, 800973a <__sfp+0x12>
 8009734:	4630      	mov	r0, r6
 8009736:	f7ff ffc7 	bl	80096c8 <__sinit>
 800973a:	3648      	adds	r6, #72	; 0x48
 800973c:	e9d6 3401 	ldrd	r3, r4, [r6, #4]
 8009740:	3b01      	subs	r3, #1
 8009742:	d503      	bpl.n	800974c <__sfp+0x24>
 8009744:	6833      	ldr	r3, [r6, #0]
 8009746:	b133      	cbz	r3, 8009756 <__sfp+0x2e>
 8009748:	6836      	ldr	r6, [r6, #0]
 800974a:	e7f7      	b.n	800973c <__sfp+0x14>
 800974c:	f9b4 500c 	ldrsh.w	r5, [r4, #12]
 8009750:	b16d      	cbz	r5, 800976e <__sfp+0x46>
 8009752:	3468      	adds	r4, #104	; 0x68
 8009754:	e7f4      	b.n	8009740 <__sfp+0x18>
 8009756:	2104      	movs	r1, #4
 8009758:	4638      	mov	r0, r7
 800975a:	f7ff ff9f 	bl	800969c <__sfmoreglue>
 800975e:	6030      	str	r0, [r6, #0]
 8009760:	2800      	cmp	r0, #0
 8009762:	d1f1      	bne.n	8009748 <__sfp+0x20>
 8009764:	230c      	movs	r3, #12
 8009766:	603b      	str	r3, [r7, #0]
 8009768:	4604      	mov	r4, r0
 800976a:	4620      	mov	r0, r4
 800976c:	bdf8      	pop	{r3, r4, r5, r6, r7, pc}
 800976e:	4b0b      	ldr	r3, [pc, #44]	; (800979c <__sfp+0x74>)
 8009770:	6665      	str	r5, [r4, #100]	; 0x64
 8009772:	e9c4 5500 	strd	r5, r5, [r4]
 8009776:	60a5      	str	r5, [r4, #8]
 8009778:	e9c4 3503 	strd	r3, r5, [r4, #12]
 800977c:	e9c4 5505 	strd	r5, r5, [r4, #20]
 8009780:	2208      	movs	r2, #8
 8009782:	4629      	mov	r1, r5
 8009784:	f104 005c 	add.w	r0, r4, #92	; 0x5c
 8009788:	f7fe faa0 	bl	8007ccc <memset>
 800978c:	e9c4 550d 	strd	r5, r5, [r4, #52]	; 0x34
 8009790:	e9c4 5512 	strd	r5, r5, [r4, #72]	; 0x48
 8009794:	e7e9      	b.n	800976a <__sfp+0x42>
 8009796:	bf00      	nop
 8009798:	0800b880 	.word	0x0800b880
 800979c:	ffff0001 	.word	0xffff0001

080097a0 <_fwalk_reent>:
 80097a0:	e92d 43f8 	stmdb	sp!, {r3, r4, r5, r6, r7, r8, r9, lr}
 80097a4:	4680      	mov	r8, r0
 80097a6:	4689      	mov	r9, r1
 80097a8:	f100 0448 	add.w	r4, r0, #72	; 0x48
 80097ac:	2600      	movs	r6, #0
 80097ae:	b914      	cbnz	r4, 80097b6 <_fwalk_reent+0x16>
 80097b0:	4630      	mov	r0, r6
 80097b2:	e8bd 83f8 	ldmia.w	sp!, {r3, r4, r5, r6, r7, r8, r9, pc}
 80097b6:	e9d4 7501 	ldrd	r7, r5, [r4, #4]
 80097ba:	3f01      	subs	r7, #1
 80097bc:	d501      	bpl.n	80097c2 <_fwalk_reent+0x22>
 80097be:	6824      	ldr	r4, [r4, #0]
 80097c0:	e7f5      	b.n	80097ae <_fwalk_reent+0xe>
 80097c2:	89ab      	ldrh	r3, [r5, #12]
 80097c4:	2b01      	cmp	r3, #1
 80097c6:	d907      	bls.n	80097d8 <_fwalk_reent+0x38>
 80097c8:	f9b5 300e 	ldrsh.w	r3, [r5, #14]
 80097cc:	3301      	adds	r3, #1
 80097ce:	d003      	beq.n	80097d8 <_fwalk_reent+0x38>
 80097d0:	4629      	mov	r1, r5
 80097d2:	4640      	mov	r0, r8
 80097d4:	47c8      	blx	r9
 80097d6:	4306      	orrs	r6, r0
 80097d8:	3568      	adds	r5, #104	; 0x68
 80097da:	e7ee      	b.n	80097ba <_fwalk_reent+0x1a>

080097dc <_localeconv_r>:
 80097dc:	4b04      	ldr	r3, [pc, #16]	; (80097f0 <_localeconv_r+0x14>)
 80097de:	681b      	ldr	r3, [r3, #0]
 80097e0:	6a18      	ldr	r0, [r3, #32]
 80097e2:	4b04      	ldr	r3, [pc, #16]	; (80097f4 <_localeconv_r+0x18>)
 80097e4:	2800      	cmp	r0, #0
 80097e6:	bf08      	it	eq
 80097e8:	4618      	moveq	r0, r3
 80097ea:	30f0      	adds	r0, #240	; 0xf0
 80097ec:	4770      	bx	lr
 80097ee:	bf00      	nop
 80097f0:	200007e4 	.word	0x200007e4
 80097f4:	20000848 	.word	0x20000848

080097f8 <__swhatbuf_r>:
 80097f8:	b570      	push	{r4, r5, r6, lr}
 80097fa:	460e      	mov	r6, r1
 80097fc:	f9b1 100e 	ldrsh.w	r1, [r1, #14]
 8009800:	2900      	cmp	r1, #0
 8009802:	b096      	sub	sp, #88	; 0x58
 8009804:	4614      	mov	r4, r2
 8009806:	461d      	mov	r5, r3
 8009808:	da07      	bge.n	800981a <__swhatbuf_r+0x22>
 800980a:	2300      	movs	r3, #0
 800980c:	602b      	str	r3, [r5, #0]
 800980e:	89b3      	ldrh	r3, [r6, #12]
 8009810:	061a      	lsls	r2, r3, #24
 8009812:	d410      	bmi.n	8009836 <__swhatbuf_r+0x3e>
 8009814:	f44f 6380 	mov.w	r3, #1024	; 0x400
 8009818:	e00e      	b.n	8009838 <__swhatbuf_r+0x40>
 800981a:	466a      	mov	r2, sp
 800981c:	f000 fefc 	bl	800a618 <_fstat_r>
 8009820:	2800      	cmp	r0, #0
 8009822:	dbf2      	blt.n	800980a <__swhatbuf_r+0x12>
 8009824:	9a01      	ldr	r2, [sp, #4]
 8009826:	f402 4270 	and.w	r2, r2, #61440	; 0xf000
 800982a:	f5a2 5300 	sub.w	r3, r2, #8192	; 0x2000
 800982e:	425a      	negs	r2, r3
 8009830:	415a      	adcs	r2, r3
 8009832:	602a      	str	r2, [r5, #0]
 8009834:	e7ee      	b.n	8009814 <__swhatbuf_r+0x1c>
 8009836:	2340      	movs	r3, #64	; 0x40
 8009838:	2000      	movs	r0, #0
 800983a:	6023      	str	r3, [r4, #0]
 800983c:	b016      	add	sp, #88	; 0x58
 800983e:	bd70      	pop	{r4, r5, r6, pc}

08009840 <__smakebuf_r>:
 8009840:	898b      	ldrh	r3, [r1, #12]
 8009842:	b573      	push	{r0, r1, r4, r5, r6, lr}
 8009844:	079d      	lsls	r5, r3, #30
 8009846:	4606      	mov	r6, r0
 8009848:	460c      	mov	r4, r1
 800984a:	d507      	bpl.n	800985c <__smakebuf_r+0x1c>
 800984c:	f104 0347 	add.w	r3, r4, #71	; 0x47
 8009850:	6023      	str	r3, [r4, #0]
 8009852:	6123      	str	r3, [r4, #16]
 8009854:	2301      	movs	r3, #1
 8009856:	6163      	str	r3, [r4, #20]
 8009858:	b002      	add	sp, #8
 800985a:	bd70      	pop	{r4, r5, r6, pc}
 800985c:	ab01      	add	r3, sp, #4
 800985e:	466a      	mov	r2, sp
 8009860:	f7ff ffca 	bl	80097f8 <__swhatbuf_r>
 8009864:	9900      	ldr	r1, [sp, #0]
 8009866:	4605      	mov	r5, r0
 8009868:	4630      	mov	r0, r6
 800986a:	f000 fb73 	bl	8009f54 <_malloc_r>
 800986e:	b948      	cbnz	r0, 8009884 <__smakebuf_r+0x44>
 8009870:	f9b4 300c 	ldrsh.w	r3, [r4, #12]
 8009874:	059a      	lsls	r2, r3, #22
 8009876:	d4ef      	bmi.n	8009858 <__smakebuf_r+0x18>
 8009878:	f023 0303 	bic.w	r3, r3, #3
 800987c:	f043 0302 	orr.w	r3, r3, #2
 8009880:	81a3      	strh	r3, [r4, #12]
 8009882:	e7e3      	b.n	800984c <__smakebuf_r+0xc>
 8009884:	4b0d      	ldr	r3, [pc, #52]	; (80098bc <__smakebuf_r+0x7c>)
 8009886:	62b3      	str	r3, [r6, #40]	; 0x28
 8009888:	89a3      	ldrh	r3, [r4, #12]
 800988a:	6020      	str	r0, [r4, #0]
 800988c:	f043 0380 	orr.w	r3, r3, #128	; 0x80
 8009890:	81a3      	strh	r3, [r4, #12]
 8009892:	9b00      	ldr	r3, [sp, #0]
 8009894:	6163      	str	r3, [r4, #20]
 8009896:	9b01      	ldr	r3, [sp, #4]
 8009898:	6120      	str	r0, [r4, #16]
 800989a:	b15b      	cbz	r3, 80098b4 <__smakebuf_r+0x74>
 800989c:	f9b4 100e 	ldrsh.w	r1, [r4, #14]
 80098a0:	4630      	mov	r0, r6
 80098a2:	f000 fecb 	bl	800a63c <_isatty_r>
 80098a6:	b128      	cbz	r0, 80098b4 <__smakebuf_r+0x74>
 80098a8:	89a3      	ldrh	r3, [r4, #12]
 80098aa:	f023 0303 	bic.w	r3, r3, #3
 80098ae:	f043 0301 	orr.w	r3, r3, #1
 80098b2:	81a3      	strh	r3, [r4, #12]
 80098b4:	89a3      	ldrh	r3, [r4, #12]
 80098b6:	431d      	orrs	r5, r3
 80098b8:	81a5      	strh	r5, [r4, #12]
 80098ba:	e7cd      	b.n	8009858 <__smakebuf_r+0x18>
 80098bc:	08009691 	.word	0x08009691

080098c0 <malloc>:
 80098c0:	4b02      	ldr	r3, [pc, #8]	; (80098cc <malloc+0xc>)
 80098c2:	4601      	mov	r1, r0
 80098c4:	6818      	ldr	r0, [r3, #0]
 80098c6:	f000 bb45 	b.w	8009f54 <_malloc_r>
 80098ca:	bf00      	nop
 80098cc:	200007e4 	.word	0x200007e4

080098d0 <memcpy>:
 80098d0:	b510      	push	{r4, lr}
 80098d2:	1e43      	subs	r3, r0, #1
 80098d4:	440a      	add	r2, r1
 80098d6:	4291      	cmp	r1, r2
 80098d8:	d100      	bne.n	80098dc <memcpy+0xc>
 80098da:	bd10      	pop	{r4, pc}
 80098dc:	f811 4b01 	ldrb.w	r4, [r1], #1
 80098e0:	f803 4f01 	strb.w	r4, [r3, #1]!
 80098e4:	e7f7      	b.n	80098d6 <memcpy+0x6>

080098e6 <_Balloc>:
 80098e6:	b570      	push	{r4, r5, r6, lr}
 80098e8:	6a45      	ldr	r5, [r0, #36]	; 0x24
 80098ea:	4604      	mov	r4, r0
 80098ec:	460e      	mov	r6, r1
 80098ee:	b93d      	cbnz	r5, 8009900 <_Balloc+0x1a>
 80098f0:	2010      	movs	r0, #16
 80098f2:	f7ff ffe5 	bl	80098c0 <malloc>
 80098f6:	6260      	str	r0, [r4, #36]	; 0x24
 80098f8:	e9c0 5501 	strd	r5, r5, [r0, #4]
 80098fc:	6005      	str	r5, [r0, #0]
 80098fe:	60c5      	str	r5, [r0, #12]
 8009900:	6a65      	ldr	r5, [r4, #36]	; 0x24
 8009902:	68eb      	ldr	r3, [r5, #12]
 8009904:	b183      	cbz	r3, 8009928 <_Balloc+0x42>
 8009906:	6a63      	ldr	r3, [r4, #36]	; 0x24
 8009908:	68db      	ldr	r3, [r3, #12]
 800990a:	f853 0026 	ldr.w	r0, [r3, r6, lsl #2]
 800990e:	b9b8      	cbnz	r0, 8009940 <_Balloc+0x5a>
 8009910:	2101      	movs	r1, #1
 8009912:	fa01 f506 	lsl.w	r5, r1, r6
 8009916:	1d6a      	adds	r2, r5, #5
 8009918:	0092      	lsls	r2, r2, #2
 800991a:	4620      	mov	r0, r4
 800991c:	f000 fabe 	bl	8009e9c <_calloc_r>
 8009920:	b160      	cbz	r0, 800993c <_Balloc+0x56>
 8009922:	e9c0 6501 	strd	r6, r5, [r0, #4]
 8009926:	e00e      	b.n	8009946 <_Balloc+0x60>
 8009928:	2221      	movs	r2, #33	; 0x21
 800992a:	2104      	movs	r1, #4
 800992c:	4620      	mov	r0, r4
 800992e:	f000 fab5 	bl	8009e9c <_calloc_r>
 8009932:	6a63      	ldr	r3, [r4, #36]	; 0x24
 8009934:	60e8      	str	r0, [r5, #12]
 8009936:	68db      	ldr	r3, [r3, #12]
 8009938:	2b00      	cmp	r3, #0
 800993a:	d1e4      	bne.n	8009906 <_Balloc+0x20>
 800993c:	2000      	movs	r0, #0
 800993e:	bd70      	pop	{r4, r5, r6, pc}
 8009940:	6802      	ldr	r2, [r0, #0]
 8009942:	f843 2026 	str.w	r2, [r3, r6, lsl #2]
 8009946:	2300      	movs	r3, #0
 8009948:	e9c0 3303 	strd	r3, r3, [r0, #12]
 800994c:	e7f7      	b.n	800993e <_Balloc+0x58>

0800994e <_Bfree>:
 800994e:	b570      	push	{r4, r5, r6, lr}
 8009950:	6a44      	ldr	r4, [r0, #36]	; 0x24
 8009952:	4606      	mov	r6, r0
 8009954:	460d      	mov	r5, r1
 8009956:	b93c      	cbnz	r4, 8009968 <_Bfree+0x1a>
 8009958:	2010      	movs	r0, #16
 800995a:	f7ff ffb1 	bl	80098c0 <malloc>
 800995e:	6270      	str	r0, [r6, #36]	; 0x24
 8009960:	e9c0 4401 	strd	r4, r4, [r0, #4]
 8009964:	6004      	str	r4, [r0, #0]
 8009966:	60c4      	str	r4, [r0, #12]
 8009968:	b13d      	cbz	r5, 800997a <_Bfree+0x2c>
 800996a:	6a73      	ldr	r3, [r6, #36]	; 0x24
 800996c:	686a      	ldr	r2, [r5, #4]
 800996e:	68db      	ldr	r3, [r3, #12]
 8009970:	f853 1022 	ldr.w	r1, [r3, r2, lsl #2]
 8009974:	6029      	str	r1, [r5, #0]
 8009976:	f843 5022 	str.w	r5, [r3, r2, lsl #2]
 800997a:	bd70      	pop	{r4, r5, r6, pc}

0800997c <__multadd>:
 800997c:	e92d 41f0 	stmdb	sp!, {r4, r5, r6, r7, r8, lr}
 8009980:	690d      	ldr	r5, [r1, #16]
 8009982:	461f      	mov	r7, r3
 8009984:	4606      	mov	r6, r0
 8009986:	460c      	mov	r4, r1
 8009988:	f101 0c14 	add.w	ip, r1, #20
 800998c:	2300      	movs	r3, #0
 800998e:	f8dc 0000 	ldr.w	r0, [ip]
 8009992:	b281      	uxth	r1, r0
 8009994:	fb02 7101 	mla	r1, r2, r1, r7
 8009998:	0c0f      	lsrs	r7, r1, #16
 800999a:	0c00      	lsrs	r0, r0, #16
 800999c:	fb02 7000 	mla	r0, r2, r0, r7
 80099a0:	b289      	uxth	r1, r1
 80099a2:	3301      	adds	r3, #1
 80099a4:	eb01 4100 	add.w	r1, r1, r0, lsl #16
 80099a8:	429d      	cmp	r5, r3
 80099aa:	ea4f 4710 	mov.w	r7, r0, lsr #16
 80099ae:	f84c 1b04 	str.w	r1, [ip], #4
 80099b2:	dcec      	bgt.n	800998e <__multadd+0x12>
 80099b4:	b1d7      	cbz	r7, 80099ec <__multadd+0x70>
 80099b6:	68a3      	ldr	r3, [r4, #8]
 80099b8:	42ab      	cmp	r3, r5
 80099ba:	dc12      	bgt.n	80099e2 <__multadd+0x66>
 80099bc:	6861      	ldr	r1, [r4, #4]
 80099be:	4630      	mov	r0, r6
 80099c0:	3101      	adds	r1, #1
 80099c2:	f7ff ff90 	bl	80098e6 <_Balloc>
 80099c6:	6922      	ldr	r2, [r4, #16]
 80099c8:	3202      	adds	r2, #2
 80099ca:	f104 010c 	add.w	r1, r4, #12
 80099ce:	4680      	mov	r8, r0
 80099d0:	0092      	lsls	r2, r2, #2
 80099d2:	300c      	adds	r0, #12
 80099d4:	f7ff ff7c 	bl	80098d0 <memcpy>
 80099d8:	4621      	mov	r1, r4
 80099da:	4630      	mov	r0, r6
 80099dc:	f7ff ffb7 	bl	800994e <_Bfree>
 80099e0:	4644      	mov	r4, r8
 80099e2:	eb04 0385 	add.w	r3, r4, r5, lsl #2
 80099e6:	3501      	adds	r5, #1
 80099e8:	615f      	str	r7, [r3, #20]
 80099ea:	6125      	str	r5, [r4, #16]
 80099ec:	4620      	mov	r0, r4
 80099ee:	e8bd 81f0 	ldmia.w	sp!, {r4, r5, r6, r7, r8, pc}

080099f2 <__hi0bits>:
 80099f2:	0c02      	lsrs	r2, r0, #16
 80099f4:	0412      	lsls	r2, r2, #16
 80099f6:	4603      	mov	r3, r0
 80099f8:	b9b2      	cbnz	r2, 8009a28 <__hi0bits+0x36>
 80099fa:	0403      	lsls	r3, r0, #16
 80099fc:	2010      	movs	r0, #16
 80099fe:	f013 4f7f 	tst.w	r3, #4278190080	; 0xff000000
 8009a02:	bf04      	itt	eq
 8009a04:	021b      	lsleq	r3, r3, #8
 8009a06:	3008      	addeq	r0, #8
 8009a08:	f013 4f70 	tst.w	r3, #4026531840	; 0xf0000000
 8009a0c:	bf04      	itt	eq
 8009a0e:	011b      	lsleq	r3, r3, #4
 8009a10:	3004      	addeq	r0, #4
 8009a12:	f013 4f40 	tst.w	r3, #3221225472	; 0xc0000000
 8009a16:	bf04      	itt	eq
 8009a18:	009b      	lsleq	r3, r3, #2
 8009a1a:	3002      	addeq	r0, #2
 8009a1c:	2b00      	cmp	r3, #0
 8009a1e:	db06      	blt.n	8009a2e <__hi0bits+0x3c>
 8009a20:	005b      	lsls	r3, r3, #1
 8009a22:	d503      	bpl.n	8009a2c <__hi0bits+0x3a>
 8009a24:	3001      	adds	r0, #1
 8009a26:	4770      	bx	lr
 8009a28:	2000      	movs	r0, #0
 8009a2a:	e7e8      	b.n	80099fe <__hi0bits+0xc>
 8009a2c:	2020      	movs	r0, #32
 8009a2e:	4770      	bx	lr

08009a30 <__lo0bits>:
 8009a30:	6803      	ldr	r3, [r0, #0]
 8009a32:	f013 0207 	ands.w	r2, r3, #7
 8009a36:	4601      	mov	r1, r0
 8009a38:	d00b      	beq.n	8009a52 <__lo0bits+0x22>
 8009a3a:	07da      	lsls	r2, r3, #31
 8009a3c:	d423      	bmi.n	8009a86 <__lo0bits+0x56>
 8009a3e:	0798      	lsls	r0, r3, #30
 8009a40:	bf49      	itett	mi
 8009a42:	085b      	lsrmi	r3, r3, #1
 8009a44:	089b      	lsrpl	r3, r3, #2
 8009a46:	2001      	movmi	r0, #1
 8009a48:	600b      	strmi	r3, [r1, #0]
 8009a4a:	bf5c      	itt	pl
 8009a4c:	600b      	strpl	r3, [r1, #0]
 8009a4e:	2002      	movpl	r0, #2
 8009a50:	4770      	bx	lr
 8009a52:	b298      	uxth	r0, r3
 8009a54:	b9a8      	cbnz	r0, 8009a82 <__lo0bits+0x52>
 8009a56:	0c1b      	lsrs	r3, r3, #16
 8009a58:	2010      	movs	r0, #16
 8009a5a:	f013 0fff 	tst.w	r3, #255	; 0xff
 8009a5e:	bf04      	itt	eq
 8009a60:	0a1b      	lsreq	r3, r3, #8
 8009a62:	3008      	addeq	r0, #8
 8009a64:	071a      	lsls	r2, r3, #28
 8009a66:	bf04      	itt	eq
 8009a68:	091b      	lsreq	r3, r3, #4
 8009a6a:	3004      	addeq	r0, #4
 8009a6c:	079a      	lsls	r2, r3, #30
 8009a6e:	bf04      	itt	eq
 8009a70:	089b      	lsreq	r3, r3, #2
 8009a72:	3002      	addeq	r0, #2
 8009a74:	07da      	lsls	r2, r3, #31
 8009a76:	d402      	bmi.n	8009a7e <__lo0bits+0x4e>
 8009a78:	085b      	lsrs	r3, r3, #1
 8009a7a:	d006      	beq.n	8009a8a <__lo0bits+0x5a>
 8009a7c:	3001      	adds	r0, #1
 8009a7e:	600b      	str	r3, [r1, #0]
 8009a80:	4770      	bx	lr
 8009a82:	4610      	mov	r0, r2
 8009a84:	e7e9      	b.n	8009a5a <__lo0bits+0x2a>
 8009a86:	2000      	movs	r0, #0
 8009a88:	4770      	bx	lr
 8009a8a:	2020      	movs	r0, #32
 8009a8c:	4770      	bx	lr

08009a8e <__i2b>:
 8009a8e:	b510      	push	{r4, lr}
 8009a90:	460c      	mov	r4, r1
 8009a92:	2101      	movs	r1, #1
 8009a94:	f7ff ff27 	bl	80098e6 <_Balloc>
 8009a98:	2201      	movs	r2, #1
 8009a9a:	6144      	str	r4, [r0, #20]
 8009a9c:	6102      	str	r2, [r0, #16]
 8009a9e:	bd10      	pop	{r4, pc}

08009aa0 <__multiply>:
 8009aa0:	e92d 4ff7 	stmdb	sp!, {r0, r1, r2, r4, r5, r6, r7, r8, r9, sl, fp, lr}
 8009aa4:	4614      	mov	r4, r2
 8009aa6:	690a      	ldr	r2, [r1, #16]
 8009aa8:	6923      	ldr	r3, [r4, #16]
 8009aaa:	429a      	cmp	r2, r3
 8009aac:	bfb8      	it	lt
 8009aae:	460b      	movlt	r3, r1
 8009ab0:	4688      	mov	r8, r1
 8009ab2:	bfbc      	itt	lt
 8009ab4:	46a0      	movlt	r8, r4
 8009ab6:	461c      	movlt	r4, r3
 8009ab8:	f8d8 7010 	ldr.w	r7, [r8, #16]
 8009abc:	f8d4 9010 	ldr.w	r9, [r4, #16]
 8009ac0:	f8d8 3008 	ldr.w	r3, [r8, #8]
 8009ac4:	f8d8 1004 	ldr.w	r1, [r8, #4]
 8009ac8:	eb07 0609 	add.w	r6, r7, r9
 8009acc:	42b3      	cmp	r3, r6
 8009ace:	bfb8      	it	lt
 8009ad0:	3101      	addlt	r1, #1
 8009ad2:	f7ff ff08 	bl	80098e6 <_Balloc>
 8009ad6:	f100 0514 	add.w	r5, r0, #20
 8009ada:	eb05 0e86 	add.w	lr, r5, r6, lsl #2
 8009ade:	462b      	mov	r3, r5
 8009ae0:	2200      	movs	r2, #0
 8009ae2:	4573      	cmp	r3, lr
 8009ae4:	d316      	bcc.n	8009b14 <__multiply+0x74>
 8009ae6:	f104 0214 	add.w	r2, r4, #20
 8009aea:	f108 0114 	add.w	r1, r8, #20
 8009aee:	eb02 0389 	add.w	r3, r2, r9, lsl #2
 8009af2:	eb01 0787 	add.w	r7, r1, r7, lsl #2
 8009af6:	9300      	str	r3, [sp, #0]
 8009af8:	9b00      	ldr	r3, [sp, #0]
 8009afa:	9201      	str	r2, [sp, #4]
 8009afc:	4293      	cmp	r3, r2
 8009afe:	d80c      	bhi.n	8009b1a <__multiply+0x7a>
 8009b00:	2e00      	cmp	r6, #0
 8009b02:	dd03      	ble.n	8009b0c <__multiply+0x6c>
 8009b04:	f85e 3d04 	ldr.w	r3, [lr, #-4]!
 8009b08:	2b00      	cmp	r3, #0
 8009b0a:	d05d      	beq.n	8009bc8 <__multiply+0x128>
 8009b0c:	6106      	str	r6, [r0, #16]
 8009b0e:	b003      	add	sp, #12
 8009b10:	e8bd 8ff0 	ldmia.w	sp!, {r4, r5, r6, r7, r8, r9, sl, fp, pc}
 8009b14:	f843 2b04 	str.w	r2, [r3], #4
 8009b18:	e7e3      	b.n	8009ae2 <__multiply+0x42>
 8009b1a:	f8b2 b000 	ldrh.w	fp, [r2]
 8009b1e:	f1bb 0f00 	cmp.w	fp, #0
 8009b22:	d023      	beq.n	8009b6c <__multiply+0xcc>
 8009b24:	4689      	mov	r9, r1
 8009b26:	46ac      	mov	ip, r5
 8009b28:	f04f 0800 	mov.w	r8, #0
 8009b2c:	f859 4b04 	ldr.w	r4, [r9], #4
 8009b30:	f8dc a000 	ldr.w	sl, [ip]
 8009b34:	b2a3      	uxth	r3, r4
 8009b36:	fa1f fa8a 	uxth.w	sl, sl
 8009b3a:	fb0b a303 	mla	r3, fp, r3, sl
 8009b3e:	ea4f 4a14 	mov.w	sl, r4, lsr #16
 8009b42:	f8dc 4000 	ldr.w	r4, [ip]
 8009b46:	4443      	add	r3, r8
 8009b48:	ea4f 4814 	mov.w	r8, r4, lsr #16
 8009b4c:	fb0b 840a 	mla	r4, fp, sl, r8
 8009b50:	eb04 4413 	add.w	r4, r4, r3, lsr #16
 8009b54:	46e2      	mov	sl, ip
 8009b56:	b29b      	uxth	r3, r3
 8009b58:	ea43 4304 	orr.w	r3, r3, r4, lsl #16
 8009b5c:	454f      	cmp	r7, r9
 8009b5e:	ea4f 4814 	mov.w	r8, r4, lsr #16
 8009b62:	f84a 3b04 	str.w	r3, [sl], #4
 8009b66:	d82b      	bhi.n	8009bc0 <__multiply+0x120>
 8009b68:	f8cc 8004 	str.w	r8, [ip, #4]
 8009b6c:	9b01      	ldr	r3, [sp, #4]
 8009b6e:	f8b3 a002 	ldrh.w	sl, [r3, #2]
 8009b72:	3204      	adds	r2, #4
 8009b74:	f1ba 0f00 	cmp.w	sl, #0
 8009b78:	d020      	beq.n	8009bbc <__multiply+0x11c>
 8009b7a:	682b      	ldr	r3, [r5, #0]
 8009b7c:	4689      	mov	r9, r1
 8009b7e:	46a8      	mov	r8, r5
 8009b80:	f04f 0b00 	mov.w	fp, #0
 8009b84:	f8b9 c000 	ldrh.w	ip, [r9]
 8009b88:	f8b8 4002 	ldrh.w	r4, [r8, #2]
 8009b8c:	fb0a 440c 	mla	r4, sl, ip, r4
 8009b90:	445c      	add	r4, fp
 8009b92:	46c4      	mov	ip, r8
 8009b94:	b29b      	uxth	r3, r3
 8009b96:	ea43 4304 	orr.w	r3, r3, r4, lsl #16
 8009b9a:	f84c 3b04 	str.w	r3, [ip], #4
 8009b9e:	f859 3b04 	ldr.w	r3, [r9], #4
 8009ba2:	f8b8 b004 	ldrh.w	fp, [r8, #4]
 8009ba6:	0c1b      	lsrs	r3, r3, #16
 8009ba8:	fb0a b303 	mla	r3, sl, r3, fp
 8009bac:	eb03 4314 	add.w	r3, r3, r4, lsr #16
 8009bb0:	454f      	cmp	r7, r9
 8009bb2:	ea4f 4b13 	mov.w	fp, r3, lsr #16
 8009bb6:	d805      	bhi.n	8009bc4 <__multiply+0x124>
 8009bb8:	f8c8 3004 	str.w	r3, [r8, #4]
 8009bbc:	3504      	adds	r5, #4
 8009bbe:	e79b      	b.n	8009af8 <__multiply+0x58>
 8009bc0:	46d4      	mov	ip, sl
 8009bc2:	e7b3      	b.n	8009b2c <__multiply+0x8c>
 8009bc4:	46e0      	mov	r8, ip
 8009bc6:	e7dd      	b.n	8009b84 <__multiply+0xe4>
 8009bc8:	3e01      	subs	r6, #1
 8009bca:	e799      	b.n	8009b00 <__multiply+0x60>

08009bcc <__pow5mult>:
 8009bcc:	e92d 43f8 	stmdb	sp!, {r3, r4, r5, r6, r7, r8, r9, lr}
 8009bd0:	4615      	mov	r5, r2
 8009bd2:	f012 0203 	ands.w	r2, r2, #3
 8009bd6:	4606      	mov	r6, r0
 8009bd8:	460f      	mov	r7, r1
 8009bda:	d007      	beq.n	8009bec <__pow5mult+0x20>
 8009bdc:	3a01      	subs	r2, #1
 8009bde:	4c21      	ldr	r4, [pc, #132]	; (8009c64 <__pow5mult+0x98>)
 8009be0:	2300      	movs	r3, #0
 8009be2:	f854 2022 	ldr.w	r2, [r4, r2, lsl #2]
 8009be6:	f7ff fec9 	bl	800997c <__multadd>
 8009bea:	4607      	mov	r7, r0
 8009bec:	10ad      	asrs	r5, r5, #2
 8009bee:	d035      	beq.n	8009c5c <__pow5mult+0x90>
 8009bf0:	6a74      	ldr	r4, [r6, #36]	; 0x24
 8009bf2:	b93c      	cbnz	r4, 8009c04 <__pow5mult+0x38>
 8009bf4:	2010      	movs	r0, #16
 8009bf6:	f7ff fe63 	bl	80098c0 <malloc>
 8009bfa:	6270      	str	r0, [r6, #36]	; 0x24
 8009bfc:	e9c0 4401 	strd	r4, r4, [r0, #4]
 8009c00:	6004      	str	r4, [r0, #0]
 8009c02:	60c4      	str	r4, [r0, #12]
 8009c04:	f8d6 8024 	ldr.w	r8, [r6, #36]	; 0x24
 8009c08:	f8d8 4008 	ldr.w	r4, [r8, #8]
 8009c0c:	b94c      	cbnz	r4, 8009c22 <__pow5mult+0x56>
 8009c0e:	f240 2171 	movw	r1, #625	; 0x271
 8009c12:	4630      	mov	r0, r6
 8009c14:	f7ff ff3b 	bl	8009a8e <__i2b>
 8009c18:	2300      	movs	r3, #0
 8009c1a:	f8c8 0008 	str.w	r0, [r8, #8]
 8009c1e:	4604      	mov	r4, r0
 8009c20:	6003      	str	r3, [r0, #0]
 8009c22:	f04f 0800 	mov.w	r8, #0
 8009c26:	07eb      	lsls	r3, r5, #31
 8009c28:	d50a      	bpl.n	8009c40 <__pow5mult+0x74>
 8009c2a:	4639      	mov	r1, r7
 8009c2c:	4622      	mov	r2, r4
 8009c2e:	4630      	mov	r0, r6
 8009c30:	f7ff ff36 	bl	8009aa0 <__multiply>
 8009c34:	4639      	mov	r1, r7
 8009c36:	4681      	mov	r9, r0
 8009c38:	4630      	mov	r0, r6
 8009c3a:	f7ff fe88 	bl	800994e <_Bfree>
 8009c3e:	464f      	mov	r7, r9
 8009c40:	106d      	asrs	r5, r5, #1
 8009c42:	d00b      	beq.n	8009c5c <__pow5mult+0x90>
 8009c44:	6820      	ldr	r0, [r4, #0]
 8009c46:	b938      	cbnz	r0, 8009c58 <__pow5mult+0x8c>
 8009c48:	4622      	mov	r2, r4
 8009c4a:	4621      	mov	r1, r4
 8009c4c:	4630      	mov	r0, r6
 8009c4e:	f7ff ff27 	bl	8009aa0 <__multiply>
 8009c52:	6020      	str	r0, [r4, #0]
 8009c54:	f8c0 8000 	str.w	r8, [r0]
 8009c58:	4604      	mov	r4, r0
 8009c5a:	e7e4      	b.n	8009c26 <__pow5mult+0x5a>
 8009c5c:	4638      	mov	r0, r7
 8009c5e:	e8bd 83f8 	ldmia.w	sp!, {r3, r4, r5, r6, r7, r8, r9, pc}
 8009c62:	bf00      	nop
 8009c64:	0800ba18 	.word	0x0800ba18

08009c68 <__lshift>:
 8009c68:	e92d 47f0 	stmdb	sp!, {r4, r5, r6, r7, r8, r9, sl, lr}
 8009c6c:	460c      	mov	r4, r1
 8009c6e:	ea4f 1a62 	mov.w	sl, r2, asr #5
 8009c72:	6923      	ldr	r3, [r4, #16]
 8009c74:	6849      	ldr	r1, [r1, #4]
 8009c76:	eb0a 0903 	add.w	r9, sl, r3
 8009c7a:	68a3      	ldr	r3, [r4, #8]
 8009c7c:	4607      	mov	r7, r0
 8009c7e:	4616      	mov	r6, r2
 8009c80:	f109 0501 	add.w	r5, r9, #1
 8009c84:	42ab      	cmp	r3, r5
 8009c86:	db32      	blt.n	8009cee <__lshift+0x86>
 8009c88:	4638      	mov	r0, r7
 8009c8a:	f7ff fe2c 	bl	80098e6 <_Balloc>
 8009c8e:	2300      	movs	r3, #0
 8009c90:	4680      	mov	r8, r0
 8009c92:	f100 0114 	add.w	r1, r0, #20
 8009c96:	461a      	mov	r2, r3
 8009c98:	4553      	cmp	r3, sl
 8009c9a:	db2b      	blt.n	8009cf4 <__lshift+0x8c>
 8009c9c:	6920      	ldr	r0, [r4, #16]
 8009c9e:	ea2a 7aea 	bic.w	sl, sl, sl, asr #31
 8009ca2:	f104 0314 	add.w	r3, r4, #20
 8009ca6:	f016 021f 	ands.w	r2, r6, #31
 8009caa:	eb01 018a 	add.w	r1, r1, sl, lsl #2
 8009cae:	eb03 0c80 	add.w	ip, r3, r0, lsl #2
 8009cb2:	d025      	beq.n	8009d00 <__lshift+0x98>
 8009cb4:	f1c2 0e20 	rsb	lr, r2, #32
 8009cb8:	2000      	movs	r0, #0
 8009cba:	681e      	ldr	r6, [r3, #0]
 8009cbc:	468a      	mov	sl, r1
 8009cbe:	4096      	lsls	r6, r2
 8009cc0:	4330      	orrs	r0, r6
 8009cc2:	f84a 0b04 	str.w	r0, [sl], #4
 8009cc6:	f853 0b04 	ldr.w	r0, [r3], #4
 8009cca:	459c      	cmp	ip, r3
 8009ccc:	fa20 f00e 	lsr.w	r0, r0, lr
 8009cd0:	d814      	bhi.n	8009cfc <__lshift+0x94>
 8009cd2:	6048      	str	r0, [r1, #4]
 8009cd4:	b108      	cbz	r0, 8009cda <__lshift+0x72>
 8009cd6:	f109 0502 	add.w	r5, r9, #2
 8009cda:	3d01      	subs	r5, #1
 8009cdc:	4638      	mov	r0, r7
 8009cde:	f8c8 5010 	str.w	r5, [r8, #16]
 8009ce2:	4621      	mov	r1, r4
 8009ce4:	f7ff fe33 	bl	800994e <_Bfree>
 8009ce8:	4640      	mov	r0, r8
 8009cea:	e8bd 87f0 	ldmia.w	sp!, {r4, r5, r6, r7, r8, r9, sl, pc}
 8009cee:	3101      	adds	r1, #1
 8009cf0:	005b      	lsls	r3, r3, #1
 8009cf2:	e7c7      	b.n	8009c84 <__lshift+0x1c>
 8009cf4:	f841 2023 	str.w	r2, [r1, r3, lsl #2]
 8009cf8:	3301      	adds	r3, #1
 8009cfa:	e7cd      	b.n	8009c98 <__lshift+0x30>
 8009cfc:	4651      	mov	r1, sl
 8009cfe:	e7dc      	b.n	8009cba <__lshift+0x52>
 8009d00:	3904      	subs	r1, #4
 8009d02:	f853 2b04 	ldr.w	r2, [r3], #4
 8009d06:	f841 2f04 	str.w	r2, [r1, #4]!
 8009d0a:	459c      	cmp	ip, r3
 8009d0c:	d8f9      	bhi.n	8009d02 <__lshift+0x9a>
 8009d0e:	e7e4      	b.n	8009cda <__lshift+0x72>

08009d10 <__mcmp>:
 8009d10:	6903      	ldr	r3, [r0, #16]
 8009d12:	690a      	ldr	r2, [r1, #16]
 8009d14:	1a9b      	subs	r3, r3, r2
 8009d16:	b530      	push	{r4, r5, lr}
 8009d18:	d10c      	bne.n	8009d34 <__mcmp+0x24>
 8009d1a:	0092      	lsls	r2, r2, #2
 8009d1c:	3014      	adds	r0, #20
 8009d1e:	3114      	adds	r1, #20
 8009d20:	1884      	adds	r4, r0, r2
 8009d22:	4411      	add	r1, r2
 8009d24:	f854 5d04 	ldr.w	r5, [r4, #-4]!
 8009d28:	f851 2d04 	ldr.w	r2, [r1, #-4]!
 8009d2c:	4295      	cmp	r5, r2
 8009d2e:	d003      	beq.n	8009d38 <__mcmp+0x28>
 8009d30:	d305      	bcc.n	8009d3e <__mcmp+0x2e>
 8009d32:	2301      	movs	r3, #1
 8009d34:	4618      	mov	r0, r3
 8009d36:	bd30      	pop	{r4, r5, pc}
 8009d38:	42a0      	cmp	r0, r4
 8009d3a:	d3f3      	bcc.n	8009d24 <__mcmp+0x14>
 8009d3c:	e7fa      	b.n	8009d34 <__mcmp+0x24>
 8009d3e:	f04f 33ff 	mov.w	r3, #4294967295	; 0xffffffff
 8009d42:	e7f7      	b.n	8009d34 <__mcmp+0x24>

08009d44 <__mdiff>:
 8009d44:	e92d 47f0 	stmdb	sp!, {r4, r5, r6, r7, r8, r9, sl, lr}
 8009d48:	460d      	mov	r5, r1
 8009d4a:	4607      	mov	r7, r0
 8009d4c:	4611      	mov	r1, r2
 8009d4e:	4628      	mov	r0, r5
 8009d50:	4614      	mov	r4, r2
 8009d52:	f7ff ffdd 	bl	8009d10 <__mcmp>
 8009d56:	1e06      	subs	r6, r0, #0
 8009d58:	d108      	bne.n	8009d6c <__mdiff+0x28>
 8009d5a:	4631      	mov	r1, r6
 8009d5c:	4638      	mov	r0, r7
 8009d5e:	f7ff fdc2 	bl	80098e6 <_Balloc>
 8009d62:	2301      	movs	r3, #1
 8009d64:	e9c0 3604 	strd	r3, r6, [r0, #16]
 8009d68:	e8bd 87f0 	ldmia.w	sp!, {r4, r5, r6, r7, r8, r9, sl, pc}
 8009d6c:	bfa4      	itt	ge
 8009d6e:	4623      	movge	r3, r4
 8009d70:	462c      	movge	r4, r5
 8009d72:	4638      	mov	r0, r7
 8009d74:	6861      	ldr	r1, [r4, #4]
 8009d76:	bfa6      	itte	ge
 8009d78:	461d      	movge	r5, r3
 8009d7a:	2600      	movge	r6, #0
 8009d7c:	2601      	movlt	r6, #1
 8009d7e:	f7ff fdb2 	bl	80098e6 <_Balloc>
 8009d82:	692b      	ldr	r3, [r5, #16]
 8009d84:	60c6      	str	r6, [r0, #12]
 8009d86:	6926      	ldr	r6, [r4, #16]
 8009d88:	f105 0914 	add.w	r9, r5, #20
 8009d8c:	f104 0214 	add.w	r2, r4, #20
 8009d90:	eb02 0786 	add.w	r7, r2, r6, lsl #2
 8009d94:	eb09 0883 	add.w	r8, r9, r3, lsl #2
 8009d98:	f100 0514 	add.w	r5, r0, #20
 8009d9c:	f04f 0e00 	mov.w	lr, #0
 8009da0:	f852 ab04 	ldr.w	sl, [r2], #4
 8009da4:	f859 4b04 	ldr.w	r4, [r9], #4
 8009da8:	fa1e f18a 	uxtah	r1, lr, sl
 8009dac:	b2a3      	uxth	r3, r4
 8009dae:	1ac9      	subs	r1, r1, r3
 8009db0:	0c23      	lsrs	r3, r4, #16
 8009db2:	ebc3 431a 	rsb	r3, r3, sl, lsr #16
 8009db6:	eb03 4321 	add.w	r3, r3, r1, asr #16
 8009dba:	b289      	uxth	r1, r1
 8009dbc:	ea4f 4e23 	mov.w	lr, r3, asr #16
 8009dc0:	45c8      	cmp	r8, r9
 8009dc2:	ea41 4303 	orr.w	r3, r1, r3, lsl #16
 8009dc6:	4694      	mov	ip, r2
 8009dc8:	f845 3b04 	str.w	r3, [r5], #4
 8009dcc:	d8e8      	bhi.n	8009da0 <__mdiff+0x5c>
 8009dce:	45bc      	cmp	ip, r7
 8009dd0:	d304      	bcc.n	8009ddc <__mdiff+0x98>
 8009dd2:	f855 3d04 	ldr.w	r3, [r5, #-4]!
 8009dd6:	b183      	cbz	r3, 8009dfa <__mdiff+0xb6>
 8009dd8:	6106      	str	r6, [r0, #16]
 8009dda:	e7c5      	b.n	8009d68 <__mdiff+0x24>
 8009ddc:	f85c 1b04 	ldr.w	r1, [ip], #4
 8009de0:	fa1e f381 	uxtah	r3, lr, r1
 8009de4:	141a      	asrs	r2, r3, #16
 8009de6:	eb02 4211 	add.w	r2, r2, r1, lsr #16
 8009dea:	b29b      	uxth	r3, r3
 8009dec:	ea43 4302 	orr.w	r3, r3, r2, lsl #16
 8009df0:	ea4f 4e22 	mov.w	lr, r2, asr #16
 8009df4:	f845 3b04 	str.w	r3, [r5], #4
 8009df8:	e7e9      	b.n	8009dce <__mdiff+0x8a>
 8009dfa:	3e01      	subs	r6, #1
 8009dfc:	e7e9      	b.n	8009dd2 <__mdiff+0x8e>

08009dfe <__d2b>:
 8009dfe:	e92d 43f7 	stmdb	sp!, {r0, r1, r2, r4, r5, r6, r7, r8, r9, lr}
 8009e02:	460e      	mov	r6, r1
 8009e04:	2101      	movs	r1, #1
 8009e06:	ec59 8b10 	vmov	r8, r9, d0
 8009e0a:	4615      	mov	r5, r2
 8009e0c:	f7ff fd6b 	bl	80098e6 <_Balloc>
 8009e10:	f3c9 540a 	ubfx	r4, r9, #20, #11
 8009e14:	4607      	mov	r7, r0
 8009e16:	f3c9 0313 	ubfx	r3, r9, #0, #20
 8009e1a:	bb34      	cbnz	r4, 8009e6a <__d2b+0x6c>
 8009e1c:	9301      	str	r3, [sp, #4]
 8009e1e:	f1b8 0300 	subs.w	r3, r8, #0
 8009e22:	d027      	beq.n	8009e74 <__d2b+0x76>
 8009e24:	a802      	add	r0, sp, #8
 8009e26:	f840 3d08 	str.w	r3, [r0, #-8]!
 8009e2a:	f7ff fe01 	bl	8009a30 <__lo0bits>
 8009e2e:	9900      	ldr	r1, [sp, #0]
 8009e30:	b1f0      	cbz	r0, 8009e70 <__d2b+0x72>
 8009e32:	9a01      	ldr	r2, [sp, #4]
 8009e34:	f1c0 0320 	rsb	r3, r0, #32
 8009e38:	fa02 f303 	lsl.w	r3, r2, r3
 8009e3c:	430b      	orrs	r3, r1
 8009e3e:	40c2      	lsrs	r2, r0
 8009e40:	617b      	str	r3, [r7, #20]
 8009e42:	9201      	str	r2, [sp, #4]
 8009e44:	9b01      	ldr	r3, [sp, #4]
 8009e46:	61bb      	str	r3, [r7, #24]
 8009e48:	2b00      	cmp	r3, #0
 8009e4a:	bf14      	ite	ne
 8009e4c:	2102      	movne	r1, #2
 8009e4e:	2101      	moveq	r1, #1
 8009e50:	6139      	str	r1, [r7, #16]
 8009e52:	b1c4      	cbz	r4, 8009e86 <__d2b+0x88>
 8009e54:	f2a4 4433 	subw	r4, r4, #1075	; 0x433
 8009e58:	4404      	add	r4, r0
 8009e5a:	6034      	str	r4, [r6, #0]
 8009e5c:	f1c0 0035 	rsb	r0, r0, #53	; 0x35
 8009e60:	6028      	str	r0, [r5, #0]
 8009e62:	4638      	mov	r0, r7
 8009e64:	b003      	add	sp, #12
 8009e66:	e8bd 83f0 	ldmia.w	sp!, {r4, r5, r6, r7, r8, r9, pc}
 8009e6a:	f443 1380 	orr.w	r3, r3, #1048576	; 0x100000
 8009e6e:	e7d5      	b.n	8009e1c <__d2b+0x1e>
 8009e70:	6179      	str	r1, [r7, #20]
 8009e72:	e7e7      	b.n	8009e44 <__d2b+0x46>
 8009e74:	a801      	add	r0, sp, #4
 8009e76:	f7ff fddb 	bl	8009a30 <__lo0bits>
 8009e7a:	9b01      	ldr	r3, [sp, #4]
 8009e7c:	617b      	str	r3, [r7, #20]
 8009e7e:	2101      	movs	r1, #1
 8009e80:	6139      	str	r1, [r7, #16]
 8009e82:	3020      	adds	r0, #32
 8009e84:	e7e5      	b.n	8009e52 <__d2b+0x54>
 8009e86:	eb07 0381 	add.w	r3, r7, r1, lsl #2
 8009e8a:	f2a0 4032 	subw	r0, r0, #1074	; 0x432
 8009e8e:	6030      	str	r0, [r6, #0]
 8009e90:	6918      	ldr	r0, [r3, #16]
 8009e92:	f7ff fdae 	bl	80099f2 <__hi0bits>
 8009e96:	ebc0 1041 	rsb	r0, r0, r1, lsl #5
 8009e9a:	e7e1      	b.n	8009e60 <__d2b+0x62>

08009e9c <_calloc_r>:
 8009e9c:	b538      	push	{r3, r4, r5, lr}
 8009e9e:	fb02 f401 	mul.w	r4, r2, r1
 8009ea2:	4621      	mov	r1, r4
 8009ea4:	f000 f856 	bl	8009f54 <_malloc_r>
 8009ea8:	4605      	mov	r5, r0
 8009eaa:	b118      	cbz	r0, 8009eb4 <_calloc_r+0x18>
 8009eac:	4622      	mov	r2, r4
 8009eae:	2100      	movs	r1, #0
 8009eb0:	f7fd ff0c 	bl	8007ccc <memset>
 8009eb4:	4628      	mov	r0, r5
 8009eb6:	bd38      	pop	{r3, r4, r5, pc}

08009eb8 <_free_r>:
 8009eb8:	b538      	push	{r3, r4, r5, lr}
 8009eba:	4605      	mov	r5, r0
 8009ebc:	2900      	cmp	r1, #0
 8009ebe:	d045      	beq.n	8009f4c <_free_r+0x94>
 8009ec0:	f851 3c04 	ldr.w	r3, [r1, #-4]
 8009ec4:	1f0c      	subs	r4, r1, #4
 8009ec6:	2b00      	cmp	r3, #0
 8009ec8:	bfb8      	it	lt
 8009eca:	18e4      	addlt	r4, r4, r3
 8009ecc:	f000 fc03 	bl	800a6d6 <__malloc_lock>
 8009ed0:	4a1f      	ldr	r2, [pc, #124]	; (8009f50 <_free_r+0x98>)
 8009ed2:	6813      	ldr	r3, [r2, #0]
 8009ed4:	4610      	mov	r0, r2
 8009ed6:	b933      	cbnz	r3, 8009ee6 <_free_r+0x2e>
 8009ed8:	6063      	str	r3, [r4, #4]
 8009eda:	6014      	str	r4, [r2, #0]
 8009edc:	4628      	mov	r0, r5
 8009ede:	e8bd 4038 	ldmia.w	sp!, {r3, r4, r5, lr}
 8009ee2:	f000 bbf9 	b.w	800a6d8 <__malloc_unlock>
 8009ee6:	42a3      	cmp	r3, r4
 8009ee8:	d90c      	bls.n	8009f04 <_free_r+0x4c>
 8009eea:	6821      	ldr	r1, [r4, #0]
 8009eec:	1862      	adds	r2, r4, r1
 8009eee:	4293      	cmp	r3, r2
 8009ef0:	bf04      	itt	eq
 8009ef2:	681a      	ldreq	r2, [r3, #0]
 8009ef4:	685b      	ldreq	r3, [r3, #4]
 8009ef6:	6063      	str	r3, [r4, #4]
 8009ef8:	bf04      	itt	eq
 8009efa:	1852      	addeq	r2, r2, r1
 8009efc:	6022      	streq	r2, [r4, #0]
 8009efe:	6004      	str	r4, [r0, #0]
 8009f00:	e7ec      	b.n	8009edc <_free_r+0x24>
 8009f02:	4613      	mov	r3, r2
 8009f04:	685a      	ldr	r2, [r3, #4]
 8009f06:	b10a      	cbz	r2, 8009f0c <_free_r+0x54>
 8009f08:	42a2      	cmp	r2, r4
 8009f0a:	d9fa      	bls.n	8009f02 <_free_r+0x4a>
 8009f0c:	6819      	ldr	r1, [r3, #0]
 8009f0e:	1858      	adds	r0, r3, r1
 8009f10:	42a0      	cmp	r0, r4
 8009f12:	d10b      	bne.n	8009f2c <_free_r+0x74>
 8009f14:	6820      	ldr	r0, [r4, #0]
 8009f16:	4401      	add	r1, r0
 8009f18:	1858      	adds	r0, r3, r1
 8009f1a:	4282      	cmp	r2, r0
 8009f1c:	6019      	str	r1, [r3, #0]
 8009f1e:	d1dd      	bne.n	8009edc <_free_r+0x24>
 8009f20:	6810      	ldr	r0, [r2, #0]
 8009f22:	6852      	ldr	r2, [r2, #4]
 8009f24:	605a      	str	r2, [r3, #4]
 8009f26:	4401      	add	r1, r0
 8009f28:	6019      	str	r1, [r3, #0]
 8009f2a:	e7d7      	b.n	8009edc <_free_r+0x24>
 8009f2c:	d902      	bls.n	8009f34 <_free_r+0x7c>
 8009f2e:	230c      	movs	r3, #12
 8009f30:	602b      	str	r3, [r5, #0]
 8009f32:	e7d3      	b.n	8009edc <_free_r+0x24>
 8009f34:	6820      	ldr	r0, [r4, #0]
 8009f36:	1821      	adds	r1, r4, r0
 8009f38:	428a      	cmp	r2, r1
 8009f3a:	bf04      	itt	eq
 8009f3c:	6811      	ldreq	r1, [r2, #0]
 8009f3e:	6852      	ldreq	r2, [r2, #4]
 8009f40:	6062      	str	r2, [r4, #4]
 8009f42:	bf04      	itt	eq
 8009f44:	1809      	addeq	r1, r1, r0
 8009f46:	6021      	streq	r1, [r4, #0]
 8009f48:	605c      	str	r4, [r3, #4]
 8009f4a:	e7c7      	b.n	8009edc <_free_r+0x24>
 8009f4c:	bd38      	pop	{r3, r4, r5, pc}
 8009f4e:	bf00      	nop
 8009f50:	20000df8 	.word	0x20000df8

08009f54 <_malloc_r>:
 8009f54:	b570      	push	{r4, r5, r6, lr}
 8009f56:	1ccd      	adds	r5, r1, #3
 8009f58:	f025 0503 	bic.w	r5, r5, #3
 8009f5c:	3508      	adds	r5, #8
 8009f5e:	2d0c      	cmp	r5, #12
 8009f60:	bf38      	it	cc
 8009f62:	250c      	movcc	r5, #12
 8009f64:	2d00      	cmp	r5, #0
 8009f66:	4606      	mov	r6, r0
 8009f68:	db01      	blt.n	8009f6e <_malloc_r+0x1a>
 8009f6a:	42a9      	cmp	r1, r5
 8009f6c:	d903      	bls.n	8009f76 <_malloc_r+0x22>
 8009f6e:	230c      	movs	r3, #12
 8009f70:	6033      	str	r3, [r6, #0]
 8009f72:	2000      	movs	r0, #0
 8009f74:	bd70      	pop	{r4, r5, r6, pc}
 8009f76:	f000 fbae 	bl	800a6d6 <__malloc_lock>
 8009f7a:	4a21      	ldr	r2, [pc, #132]	; (800a000 <_malloc_r+0xac>)
 8009f7c:	6814      	ldr	r4, [r2, #0]
 8009f7e:	4621      	mov	r1, r4
 8009f80:	b991      	cbnz	r1, 8009fa8 <_malloc_r+0x54>
 8009f82:	4c20      	ldr	r4, [pc, #128]	; (800a004 <_malloc_r+0xb0>)
 8009f84:	6823      	ldr	r3, [r4, #0]
 8009f86:	b91b      	cbnz	r3, 8009f90 <_malloc_r+0x3c>
 8009f88:	4630      	mov	r0, r6
 8009f8a:	f000 facf 	bl	800a52c <_sbrk_r>
 8009f8e:	6020      	str	r0, [r4, #0]
 8009f90:	4629      	mov	r1, r5
 8009f92:	4630      	mov	r0, r6
 8009f94:	f000 faca 	bl	800a52c <_sbrk_r>
 8009f98:	1c43      	adds	r3, r0, #1
 8009f9a:	d124      	bne.n	8009fe6 <_malloc_r+0x92>
 8009f9c:	230c      	movs	r3, #12
 8009f9e:	6033      	str	r3, [r6, #0]
 8009fa0:	4630      	mov	r0, r6
 8009fa2:	f000 fb99 	bl	800a6d8 <__malloc_unlock>
 8009fa6:	e7e4      	b.n	8009f72 <_malloc_r+0x1e>
 8009fa8:	680b      	ldr	r3, [r1, #0]
 8009faa:	1b5b      	subs	r3, r3, r5
 8009fac:	d418      	bmi.n	8009fe0 <_malloc_r+0x8c>
 8009fae:	2b0b      	cmp	r3, #11
 8009fb0:	d90f      	bls.n	8009fd2 <_malloc_r+0x7e>
 8009fb2:	600b      	str	r3, [r1, #0]
 8009fb4:	50cd      	str	r5, [r1, r3]
 8009fb6:	18cc      	adds	r4, r1, r3
 8009fb8:	4630      	mov	r0, r6
 8009fba:	f000 fb8d 	bl	800a6d8 <__malloc_unlock>
 8009fbe:	f104 000b 	add.w	r0, r4, #11
 8009fc2:	1d23      	adds	r3, r4, #4
 8009fc4:	f020 0007 	bic.w	r0, r0, #7
 8009fc8:	1ac3      	subs	r3, r0, r3
 8009fca:	d0d3      	beq.n	8009f74 <_malloc_r+0x20>
 8009fcc:	425a      	negs	r2, r3
 8009fce:	50e2      	str	r2, [r4, r3]
 8009fd0:	e7d0      	b.n	8009f74 <_malloc_r+0x20>
 8009fd2:	428c      	cmp	r4, r1
 8009fd4:	684b      	ldr	r3, [r1, #4]
 8009fd6:	bf16      	itet	ne
 8009fd8:	6063      	strne	r3, [r4, #4]
 8009fda:	6013      	streq	r3, [r2, #0]
 8009fdc:	460c      	movne	r4, r1
 8009fde:	e7eb      	b.n	8009fb8 <_malloc_r+0x64>
 8009fe0:	460c      	mov	r4, r1
 8009fe2:	6849      	ldr	r1, [r1, #4]
 8009fe4:	e7cc      	b.n	8009f80 <_malloc_r+0x2c>
 8009fe6:	1cc4      	adds	r4, r0, #3
 8009fe8:	f024 0403 	bic.w	r4, r4, #3
 8009fec:	42a0      	cmp	r0, r4
 8009fee:	d005      	beq.n	8009ffc <_malloc_r+0xa8>
 8009ff0:	1a21      	subs	r1, r4, r0
 8009ff2:	4630      	mov	r0, r6
 8009ff4:	f000 fa9a 	bl	800a52c <_sbrk_r>
 8009ff8:	3001      	adds	r0, #1
 8009ffa:	d0cf      	beq.n	8009f9c <_malloc_r+0x48>
 8009ffc:	6025      	str	r5, [r4, #0]
 8009ffe:	e7db      	b.n	8009fb8 <_malloc_r+0x64>
 800a000:	20000df8 	.word	0x20000df8
 800a004:	20000dfc 	.word	0x20000dfc

0800a008 <__ssputs_r>:
 800a008:	e92d 47f0 	stmdb	sp!, {r4, r5, r6, r7, r8, r9, sl, lr}
 800a00c:	688e      	ldr	r6, [r1, #8]
 800a00e:	429e      	cmp	r6, r3
 800a010:	4682      	mov	sl, r0
 800a012:	460c      	mov	r4, r1
 800a014:	4690      	mov	r8, r2
 800a016:	4699      	mov	r9, r3
 800a018:	d837      	bhi.n	800a08a <__ssputs_r+0x82>
 800a01a:	898a      	ldrh	r2, [r1, #12]
 800a01c:	f412 6f90 	tst.w	r2, #1152	; 0x480
 800a020:	d031      	beq.n	800a086 <__ssputs_r+0x7e>
 800a022:	6825      	ldr	r5, [r4, #0]
 800a024:	6909      	ldr	r1, [r1, #16]
 800a026:	1a6f      	subs	r7, r5, r1
 800a028:	6965      	ldr	r5, [r4, #20]
 800a02a:	2302      	movs	r3, #2
 800a02c:	eb05 0545 	add.w	r5, r5, r5, lsl #1
 800a030:	fb95 f5f3 	sdiv	r5, r5, r3
 800a034:	f109 0301 	add.w	r3, r9, #1
 800a038:	443b      	add	r3, r7
 800a03a:	429d      	cmp	r5, r3
 800a03c:	bf38      	it	cc
 800a03e:	461d      	movcc	r5, r3
 800a040:	0553      	lsls	r3, r2, #21
 800a042:	d530      	bpl.n	800a0a6 <__ssputs_r+0x9e>
 800a044:	4629      	mov	r1, r5
 800a046:	f7ff ff85 	bl	8009f54 <_malloc_r>
 800a04a:	4606      	mov	r6, r0
 800a04c:	b950      	cbnz	r0, 800a064 <__ssputs_r+0x5c>
 800a04e:	230c      	movs	r3, #12
 800a050:	f8ca 3000 	str.w	r3, [sl]
 800a054:	89a3      	ldrh	r3, [r4, #12]
 800a056:	f043 0340 	orr.w	r3, r3, #64	; 0x40
 800a05a:	81a3      	strh	r3, [r4, #12]
 800a05c:	f04f 30ff 	mov.w	r0, #4294967295	; 0xffffffff
 800a060:	e8bd 87f0 	ldmia.w	sp!, {r4, r5, r6, r7, r8, r9, sl, pc}
 800a064:	463a      	mov	r2, r7
 800a066:	6921      	ldr	r1, [r4, #16]
 800a068:	f7ff fc32 	bl	80098d0 <memcpy>
 800a06c:	89a3      	ldrh	r3, [r4, #12]
 800a06e:	f423 6390 	bic.w	r3, r3, #1152	; 0x480
 800a072:	f043 0380 	orr.w	r3, r3, #128	; 0x80
 800a076:	81a3      	strh	r3, [r4, #12]
 800a078:	6126      	str	r6, [r4, #16]
 800a07a:	6165      	str	r5, [r4, #20]
 800a07c:	443e      	add	r6, r7
 800a07e:	1bed      	subs	r5, r5, r7
 800a080:	6026      	str	r6, [r4, #0]
 800a082:	60a5      	str	r5, [r4, #8]
 800a084:	464e      	mov	r6, r9
 800a086:	454e      	cmp	r6, r9
 800a088:	d900      	bls.n	800a08c <__ssputs_r+0x84>
 800a08a:	464e      	mov	r6, r9
 800a08c:	4632      	mov	r2, r6
 800a08e:	4641      	mov	r1, r8
 800a090:	6820      	ldr	r0, [r4, #0]
 800a092:	f000 fb07 	bl	800a6a4 <memmove>
 800a096:	68a3      	ldr	r3, [r4, #8]
 800a098:	1b9b      	subs	r3, r3, r6
 800a09a:	60a3      	str	r3, [r4, #8]
 800a09c:	6823      	ldr	r3, [r4, #0]
 800a09e:	441e      	add	r6, r3
 800a0a0:	6026      	str	r6, [r4, #0]
 800a0a2:	2000      	movs	r0, #0
 800a0a4:	e7dc      	b.n	800a060 <__ssputs_r+0x58>
 800a0a6:	462a      	mov	r2, r5
 800a0a8:	f000 fb17 	bl	800a6da <_realloc_r>
 800a0ac:	4606      	mov	r6, r0
 800a0ae:	2800      	cmp	r0, #0
 800a0b0:	d1e2      	bne.n	800a078 <__ssputs_r+0x70>
 800a0b2:	6921      	ldr	r1, [r4, #16]
 800a0b4:	4650      	mov	r0, sl
 800a0b6:	f7ff feff 	bl	8009eb8 <_free_r>
 800a0ba:	e7c8      	b.n	800a04e <__ssputs_r+0x46>

0800a0bc <_svfiprintf_r>:
 800a0bc:	e92d 4ff0 	stmdb	sp!, {r4, r5, r6, r7, r8, r9, sl, fp, lr}
 800a0c0:	461d      	mov	r5, r3
 800a0c2:	898b      	ldrh	r3, [r1, #12]
 800a0c4:	061f      	lsls	r7, r3, #24
 800a0c6:	b09d      	sub	sp, #116	; 0x74
 800a0c8:	4680      	mov	r8, r0
 800a0ca:	460c      	mov	r4, r1
 800a0cc:	4616      	mov	r6, r2
 800a0ce:	d50f      	bpl.n	800a0f0 <_svfiprintf_r+0x34>
 800a0d0:	690b      	ldr	r3, [r1, #16]
 800a0d2:	b96b      	cbnz	r3, 800a0f0 <_svfiprintf_r+0x34>
 800a0d4:	2140      	movs	r1, #64	; 0x40
 800a0d6:	f7ff ff3d 	bl	8009f54 <_malloc_r>
 800a0da:	6020      	str	r0, [r4, #0]
 800a0dc:	6120      	str	r0, [r4, #16]
 800a0de:	b928      	cbnz	r0, 800a0ec <_svfiprintf_r+0x30>
 800a0e0:	230c      	movs	r3, #12
 800a0e2:	f8c8 3000 	str.w	r3, [r8]
 800a0e6:	f04f 30ff 	mov.w	r0, #4294967295	; 0xffffffff
 800a0ea:	e0c8      	b.n	800a27e <_svfiprintf_r+0x1c2>
 800a0ec:	2340      	movs	r3, #64	; 0x40
 800a0ee:	6163      	str	r3, [r4, #20]
 800a0f0:	2300      	movs	r3, #0
 800a0f2:	9309      	str	r3, [sp, #36]	; 0x24
 800a0f4:	2320      	movs	r3, #32
 800a0f6:	f88d 3029 	strb.w	r3, [sp, #41]	; 0x29
 800a0fa:	2330      	movs	r3, #48	; 0x30
 800a0fc:	f88d 302a 	strb.w	r3, [sp, #42]	; 0x2a
 800a100:	9503      	str	r5, [sp, #12]
 800a102:	f04f 0b01 	mov.w	fp, #1
 800a106:	4637      	mov	r7, r6
 800a108:	463d      	mov	r5, r7
 800a10a:	f815 3b01 	ldrb.w	r3, [r5], #1
 800a10e:	b10b      	cbz	r3, 800a114 <_svfiprintf_r+0x58>
 800a110:	2b25      	cmp	r3, #37	; 0x25
 800a112:	d13e      	bne.n	800a192 <_svfiprintf_r+0xd6>
 800a114:	ebb7 0a06 	subs.w	sl, r7, r6
 800a118:	d00b      	beq.n	800a132 <_svfiprintf_r+0x76>
 800a11a:	4653      	mov	r3, sl
 800a11c:	4632      	mov	r2, r6
 800a11e:	4621      	mov	r1, r4
 800a120:	4640      	mov	r0, r8
 800a122:	f7ff ff71 	bl	800a008 <__ssputs_r>
 800a126:	3001      	adds	r0, #1
 800a128:	f000 80a4 	beq.w	800a274 <_svfiprintf_r+0x1b8>
 800a12c:	9b09      	ldr	r3, [sp, #36]	; 0x24
 800a12e:	4453      	add	r3, sl
 800a130:	9309      	str	r3, [sp, #36]	; 0x24
 800a132:	783b      	ldrb	r3, [r7, #0]
 800a134:	2b00      	cmp	r3, #0
 800a136:	f000 809d 	beq.w	800a274 <_svfiprintf_r+0x1b8>
 800a13a:	2300      	movs	r3, #0
 800a13c:	f04f 32ff 	mov.w	r2, #4294967295	; 0xffffffff
 800a140:	e9cd 2305 	strd	r2, r3, [sp, #20]
 800a144:	9304      	str	r3, [sp, #16]
 800a146:	9307      	str	r3, [sp, #28]
 800a148:	f88d 3053 	strb.w	r3, [sp, #83]	; 0x53
 800a14c:	931a      	str	r3, [sp, #104]	; 0x68
 800a14e:	462f      	mov	r7, r5
 800a150:	2205      	movs	r2, #5
 800a152:	f817 1b01 	ldrb.w	r1, [r7], #1
 800a156:	4850      	ldr	r0, [pc, #320]	; (800a298 <_svfiprintf_r+0x1dc>)
 800a158:	f7f6 f842 	bl	80001e0 <memchr>
 800a15c:	9b04      	ldr	r3, [sp, #16]
 800a15e:	b9d0      	cbnz	r0, 800a196 <_svfiprintf_r+0xda>
 800a160:	06d9      	lsls	r1, r3, #27
 800a162:	bf44      	itt	mi
 800a164:	2220      	movmi	r2, #32
 800a166:	f88d 2053 	strbmi.w	r2, [sp, #83]	; 0x53
 800a16a:	071a      	lsls	r2, r3, #28
 800a16c:	bf44      	itt	mi
 800a16e:	222b      	movmi	r2, #43	; 0x2b
 800a170:	f88d 2053 	strbmi.w	r2, [sp, #83]	; 0x53
 800a174:	782a      	ldrb	r2, [r5, #0]
 800a176:	2a2a      	cmp	r2, #42	; 0x2a
 800a178:	d015      	beq.n	800a1a6 <_svfiprintf_r+0xea>
 800a17a:	9a07      	ldr	r2, [sp, #28]
 800a17c:	462f      	mov	r7, r5
 800a17e:	2000      	movs	r0, #0
 800a180:	250a      	movs	r5, #10
 800a182:	4639      	mov	r1, r7
 800a184:	f811 3b01 	ldrb.w	r3, [r1], #1
 800a188:	3b30      	subs	r3, #48	; 0x30
 800a18a:	2b09      	cmp	r3, #9
 800a18c:	d94d      	bls.n	800a22a <_svfiprintf_r+0x16e>
 800a18e:	b1b8      	cbz	r0, 800a1c0 <_svfiprintf_r+0x104>
 800a190:	e00f      	b.n	800a1b2 <_svfiprintf_r+0xf6>
 800a192:	462f      	mov	r7, r5
 800a194:	e7b8      	b.n	800a108 <_svfiprintf_r+0x4c>
 800a196:	4a40      	ldr	r2, [pc, #256]	; (800a298 <_svfiprintf_r+0x1dc>)
 800a198:	1a80      	subs	r0, r0, r2
 800a19a:	fa0b f000 	lsl.w	r0, fp, r0
 800a19e:	4318      	orrs	r0, r3
 800a1a0:	9004      	str	r0, [sp, #16]
 800a1a2:	463d      	mov	r5, r7
 800a1a4:	e7d3      	b.n	800a14e <_svfiprintf_r+0x92>
 800a1a6:	9a03      	ldr	r2, [sp, #12]
 800a1a8:	1d11      	adds	r1, r2, #4
 800a1aa:	6812      	ldr	r2, [r2, #0]
 800a1ac:	9103      	str	r1, [sp, #12]
 800a1ae:	2a00      	cmp	r2, #0
 800a1b0:	db01      	blt.n	800a1b6 <_svfiprintf_r+0xfa>
 800a1b2:	9207      	str	r2, [sp, #28]
 800a1b4:	e004      	b.n	800a1c0 <_svfiprintf_r+0x104>
 800a1b6:	4252      	negs	r2, r2
 800a1b8:	f043 0302 	orr.w	r3, r3, #2
 800a1bc:	9207      	str	r2, [sp, #28]
 800a1be:	9304      	str	r3, [sp, #16]
 800a1c0:	783b      	ldrb	r3, [r7, #0]
 800a1c2:	2b2e      	cmp	r3, #46	; 0x2e
 800a1c4:	d10c      	bne.n	800a1e0 <_svfiprintf_r+0x124>
 800a1c6:	787b      	ldrb	r3, [r7, #1]
 800a1c8:	2b2a      	cmp	r3, #42	; 0x2a
 800a1ca:	d133      	bne.n	800a234 <_svfiprintf_r+0x178>
 800a1cc:	9b03      	ldr	r3, [sp, #12]
 800a1ce:	1d1a      	adds	r2, r3, #4
 800a1d0:	681b      	ldr	r3, [r3, #0]
 800a1d2:	9203      	str	r2, [sp, #12]
 800a1d4:	2b00      	cmp	r3, #0
 800a1d6:	bfb8      	it	lt
 800a1d8:	f04f 33ff 	movlt.w	r3, #4294967295	; 0xffffffff
 800a1dc:	3702      	adds	r7, #2
 800a1de:	9305      	str	r3, [sp, #20]
 800a1e0:	4d2e      	ldr	r5, [pc, #184]	; (800a29c <_svfiprintf_r+0x1e0>)
 800a1e2:	7839      	ldrb	r1, [r7, #0]
 800a1e4:	2203      	movs	r2, #3
 800a1e6:	4628      	mov	r0, r5
 800a1e8:	f7f5 fffa 	bl	80001e0 <memchr>
 800a1ec:	b138      	cbz	r0, 800a1fe <_svfiprintf_r+0x142>
 800a1ee:	2340      	movs	r3, #64	; 0x40
 800a1f0:	1b40      	subs	r0, r0, r5
 800a1f2:	fa03 f000 	lsl.w	r0, r3, r0
 800a1f6:	9b04      	ldr	r3, [sp, #16]
 800a1f8:	4303      	orrs	r3, r0
 800a1fa:	3701      	adds	r7, #1
 800a1fc:	9304      	str	r3, [sp, #16]
 800a1fe:	7839      	ldrb	r1, [r7, #0]
 800a200:	4827      	ldr	r0, [pc, #156]	; (800a2a0 <_svfiprintf_r+0x1e4>)
 800a202:	f88d 1028 	strb.w	r1, [sp, #40]	; 0x28
 800a206:	2206      	movs	r2, #6
 800a208:	1c7e      	adds	r6, r7, #1
 800a20a:	f7f5 ffe9 	bl	80001e0 <memchr>
 800a20e:	2800      	cmp	r0, #0
 800a210:	d038      	beq.n	800a284 <_svfiprintf_r+0x1c8>
 800a212:	4b24      	ldr	r3, [pc, #144]	; (800a2a4 <_svfiprintf_r+0x1e8>)
 800a214:	bb13      	cbnz	r3, 800a25c <_svfiprintf_r+0x1a0>
 800a216:	9b03      	ldr	r3, [sp, #12]
 800a218:	3307      	adds	r3, #7
 800a21a:	f023 0307 	bic.w	r3, r3, #7
 800a21e:	3308      	adds	r3, #8
 800a220:	9303      	str	r3, [sp, #12]
 800a222:	9b09      	ldr	r3, [sp, #36]	; 0x24
 800a224:	444b      	add	r3, r9
 800a226:	9309      	str	r3, [sp, #36]	; 0x24
 800a228:	e76d      	b.n	800a106 <_svfiprintf_r+0x4a>
 800a22a:	fb05 3202 	mla	r2, r5, r2, r3
 800a22e:	2001      	movs	r0, #1
 800a230:	460f      	mov	r7, r1
 800a232:	e7a6      	b.n	800a182 <_svfiprintf_r+0xc6>
 800a234:	2300      	movs	r3, #0
 800a236:	3701      	adds	r7, #1
 800a238:	9305      	str	r3, [sp, #20]
 800a23a:	4619      	mov	r1, r3
 800a23c:	250a      	movs	r5, #10
 800a23e:	4638      	mov	r0, r7
 800a240:	f810 2b01 	ldrb.w	r2, [r0], #1
 800a244:	3a30      	subs	r2, #48	; 0x30
 800a246:	2a09      	cmp	r2, #9
 800a248:	d903      	bls.n	800a252 <_svfiprintf_r+0x196>
 800a24a:	2b00      	cmp	r3, #0
 800a24c:	d0c8      	beq.n	800a1e0 <_svfiprintf_r+0x124>
 800a24e:	9105      	str	r1, [sp, #20]
 800a250:	e7c6      	b.n	800a1e0 <_svfiprintf_r+0x124>
 800a252:	fb05 2101 	mla	r1, r5, r1, r2
 800a256:	2301      	movs	r3, #1
 800a258:	4607      	mov	r7, r0
 800a25a:	e7f0      	b.n	800a23e <_svfiprintf_r+0x182>
 800a25c:	ab03      	add	r3, sp, #12
 800a25e:	9300      	str	r3, [sp, #0]
 800a260:	4622      	mov	r2, r4
 800a262:	4b11      	ldr	r3, [pc, #68]	; (800a2a8 <_svfiprintf_r+0x1ec>)
 800a264:	a904      	add	r1, sp, #16
 800a266:	4640      	mov	r0, r8
 800a268:	f7fd fdcc 	bl	8007e04 <_printf_float>
 800a26c:	f1b0 3fff 	cmp.w	r0, #4294967295	; 0xffffffff
 800a270:	4681      	mov	r9, r0
 800a272:	d1d6      	bne.n	800a222 <_svfiprintf_r+0x166>
 800a274:	89a3      	ldrh	r3, [r4, #12]
 800a276:	065b      	lsls	r3, r3, #25
 800a278:	f53f af35 	bmi.w	800a0e6 <_svfiprintf_r+0x2a>
 800a27c:	9809      	ldr	r0, [sp, #36]	; 0x24
 800a27e:	b01d      	add	sp, #116	; 0x74
 800a280:	e8bd 8ff0 	ldmia.w	sp!, {r4, r5, r6, r7, r8, r9, sl, fp, pc}
 800a284:	ab03      	add	r3, sp, #12
 800a286:	9300      	str	r3, [sp, #0]
 800a288:	4622      	mov	r2, r4
 800a28a:	4b07      	ldr	r3, [pc, #28]	; (800a2a8 <_svfiprintf_r+0x1ec>)
 800a28c:	a904      	add	r1, sp, #16
 800a28e:	4640      	mov	r0, r8
 800a290:	f7fe f86e 	bl	8008370 <_printf_i>
 800a294:	e7ea      	b.n	800a26c <_svfiprintf_r+0x1b0>
 800a296:	bf00      	nop
 800a298:	0800ba24 	.word	0x0800ba24
 800a29c:	0800ba2a 	.word	0x0800ba2a
 800a2a0:	0800ba2e 	.word	0x0800ba2e
 800a2a4:	08007e05 	.word	0x08007e05
 800a2a8:	0800a009 	.word	0x0800a009

0800a2ac <__sfputc_r>:
 800a2ac:	6893      	ldr	r3, [r2, #8]
 800a2ae:	3b01      	subs	r3, #1
 800a2b0:	2b00      	cmp	r3, #0
 800a2b2:	b410      	push	{r4}
 800a2b4:	6093      	str	r3, [r2, #8]
 800a2b6:	da08      	bge.n	800a2ca <__sfputc_r+0x1e>
 800a2b8:	6994      	ldr	r4, [r2, #24]
 800a2ba:	42a3      	cmp	r3, r4
 800a2bc:	db01      	blt.n	800a2c2 <__sfputc_r+0x16>
 800a2be:	290a      	cmp	r1, #10
 800a2c0:	d103      	bne.n	800a2ca <__sfputc_r+0x1e>
 800a2c2:	f85d 4b04 	ldr.w	r4, [sp], #4
 800a2c6:	f7fe ba09 	b.w	80086dc <__swbuf_r>
 800a2ca:	6813      	ldr	r3, [r2, #0]
 800a2cc:	1c58      	adds	r0, r3, #1
 800a2ce:	6010      	str	r0, [r2, #0]
 800a2d0:	7019      	strb	r1, [r3, #0]
 800a2d2:	4608      	mov	r0, r1
 800a2d4:	f85d 4b04 	ldr.w	r4, [sp], #4
 800a2d8:	4770      	bx	lr

0800a2da <__sfputs_r>:
 800a2da:	b5f8      	push	{r3, r4, r5, r6, r7, lr}
 800a2dc:	4606      	mov	r6, r0
 800a2de:	460f      	mov	r7, r1
 800a2e0:	4614      	mov	r4, r2
 800a2e2:	18d5      	adds	r5, r2, r3
 800a2e4:	42ac      	cmp	r4, r5
 800a2e6:	d101      	bne.n	800a2ec <__sfputs_r+0x12>
 800a2e8:	2000      	movs	r0, #0
 800a2ea:	e007      	b.n	800a2fc <__sfputs_r+0x22>
 800a2ec:	463a      	mov	r2, r7
 800a2ee:	f814 1b01 	ldrb.w	r1, [r4], #1
 800a2f2:	4630      	mov	r0, r6
 800a2f4:	f7ff ffda 	bl	800a2ac <__sfputc_r>
 800a2f8:	1c43      	adds	r3, r0, #1
 800a2fa:	d1f3      	bne.n	800a2e4 <__sfputs_r+0xa>
 800a2fc:	bdf8      	pop	{r3, r4, r5, r6, r7, pc}
	...

0800a300 <_vfiprintf_r>:
 800a300:	e92d 4ff0 	stmdb	sp!, {r4, r5, r6, r7, r8, r9, sl, fp, lr}
 800a304:	460c      	mov	r4, r1
 800a306:	b09d      	sub	sp, #116	; 0x74
 800a308:	4617      	mov	r7, r2
 800a30a:	461d      	mov	r5, r3
 800a30c:	4606      	mov	r6, r0
 800a30e:	b118      	cbz	r0, 800a318 <_vfiprintf_r+0x18>
 800a310:	6983      	ldr	r3, [r0, #24]
 800a312:	b90b      	cbnz	r3, 800a318 <_vfiprintf_r+0x18>
 800a314:	f7ff f9d8 	bl	80096c8 <__sinit>
 800a318:	4b7c      	ldr	r3, [pc, #496]	; (800a50c <_vfiprintf_r+0x20c>)
 800a31a:	429c      	cmp	r4, r3
 800a31c:	d158      	bne.n	800a3d0 <_vfiprintf_r+0xd0>
 800a31e:	6874      	ldr	r4, [r6, #4]
 800a320:	89a3      	ldrh	r3, [r4, #12]
 800a322:	0718      	lsls	r0, r3, #28
 800a324:	d55e      	bpl.n	800a3e4 <_vfiprintf_r+0xe4>
 800a326:	6923      	ldr	r3, [r4, #16]
 800a328:	2b00      	cmp	r3, #0
 800a32a:	d05b      	beq.n	800a3e4 <_vfiprintf_r+0xe4>
 800a32c:	2300      	movs	r3, #0
 800a32e:	9309      	str	r3, [sp, #36]	; 0x24
 800a330:	2320      	movs	r3, #32
 800a332:	f88d 3029 	strb.w	r3, [sp, #41]	; 0x29
 800a336:	2330      	movs	r3, #48	; 0x30
 800a338:	f88d 302a 	strb.w	r3, [sp, #42]	; 0x2a
 800a33c:	9503      	str	r5, [sp, #12]
 800a33e:	f04f 0b01 	mov.w	fp, #1
 800a342:	46b8      	mov	r8, r7
 800a344:	4645      	mov	r5, r8
 800a346:	f815 3b01 	ldrb.w	r3, [r5], #1
 800a34a:	b10b      	cbz	r3, 800a350 <_vfiprintf_r+0x50>
 800a34c:	2b25      	cmp	r3, #37	; 0x25
 800a34e:	d154      	bne.n	800a3fa <_vfiprintf_r+0xfa>
 800a350:	ebb8 0a07 	subs.w	sl, r8, r7
 800a354:	d00b      	beq.n	800a36e <_vfiprintf_r+0x6e>
 800a356:	4653      	mov	r3, sl
 800a358:	463a      	mov	r2, r7
 800a35a:	4621      	mov	r1, r4
 800a35c:	4630      	mov	r0, r6
 800a35e:	f7ff ffbc 	bl	800a2da <__sfputs_r>
 800a362:	3001      	adds	r0, #1
 800a364:	f000 80c2 	beq.w	800a4ec <_vfiprintf_r+0x1ec>
 800a368:	9b09      	ldr	r3, [sp, #36]	; 0x24
 800a36a:	4453      	add	r3, sl
 800a36c:	9309      	str	r3, [sp, #36]	; 0x24
 800a36e:	f898 3000 	ldrb.w	r3, [r8]
 800a372:	2b00      	cmp	r3, #0
 800a374:	f000 80ba 	beq.w	800a4ec <_vfiprintf_r+0x1ec>
 800a378:	2300      	movs	r3, #0
 800a37a:	f04f 32ff 	mov.w	r2, #4294967295	; 0xffffffff
 800a37e:	e9cd 2305 	strd	r2, r3, [sp, #20]
 800a382:	9304      	str	r3, [sp, #16]
 800a384:	9307      	str	r3, [sp, #28]
 800a386:	f88d 3053 	strb.w	r3, [sp, #83]	; 0x53
 800a38a:	931a      	str	r3, [sp, #104]	; 0x68
 800a38c:	46a8      	mov	r8, r5
 800a38e:	2205      	movs	r2, #5
 800a390:	f818 1b01 	ldrb.w	r1, [r8], #1
 800a394:	485e      	ldr	r0, [pc, #376]	; (800a510 <_vfiprintf_r+0x210>)
 800a396:	f7f5 ff23 	bl	80001e0 <memchr>
 800a39a:	9b04      	ldr	r3, [sp, #16]
 800a39c:	bb78      	cbnz	r0, 800a3fe <_vfiprintf_r+0xfe>
 800a39e:	06d9      	lsls	r1, r3, #27
 800a3a0:	bf44      	itt	mi
 800a3a2:	2220      	movmi	r2, #32
 800a3a4:	f88d 2053 	strbmi.w	r2, [sp, #83]	; 0x53
 800a3a8:	071a      	lsls	r2, r3, #28
 800a3aa:	bf44      	itt	mi
 800a3ac:	222b      	movmi	r2, #43	; 0x2b
 800a3ae:	f88d 2053 	strbmi.w	r2, [sp, #83]	; 0x53
 800a3b2:	782a      	ldrb	r2, [r5, #0]
 800a3b4:	2a2a      	cmp	r2, #42	; 0x2a
 800a3b6:	d02a      	beq.n	800a40e <_vfiprintf_r+0x10e>
 800a3b8:	9a07      	ldr	r2, [sp, #28]
 800a3ba:	46a8      	mov	r8, r5
 800a3bc:	2000      	movs	r0, #0
 800a3be:	250a      	movs	r5, #10
 800a3c0:	4641      	mov	r1, r8
 800a3c2:	f811 3b01 	ldrb.w	r3, [r1], #1
 800a3c6:	3b30      	subs	r3, #48	; 0x30
 800a3c8:	2b09      	cmp	r3, #9
 800a3ca:	d969      	bls.n	800a4a0 <_vfiprintf_r+0x1a0>
 800a3cc:	b360      	cbz	r0, 800a428 <_vfiprintf_r+0x128>
 800a3ce:	e024      	b.n	800a41a <_vfiprintf_r+0x11a>
 800a3d0:	4b50      	ldr	r3, [pc, #320]	; (800a514 <_vfiprintf_r+0x214>)
 800a3d2:	429c      	cmp	r4, r3
 800a3d4:	d101      	bne.n	800a3da <_vfiprintf_r+0xda>
 800a3d6:	68b4      	ldr	r4, [r6, #8]
 800a3d8:	e7a2      	b.n	800a320 <_vfiprintf_r+0x20>
 800a3da:	4b4f      	ldr	r3, [pc, #316]	; (800a518 <_vfiprintf_r+0x218>)
 800a3dc:	429c      	cmp	r4, r3
 800a3de:	bf08      	it	eq
 800a3e0:	68f4      	ldreq	r4, [r6, #12]
 800a3e2:	e79d      	b.n	800a320 <_vfiprintf_r+0x20>
 800a3e4:	4621      	mov	r1, r4
 800a3e6:	4630      	mov	r0, r6
 800a3e8:	f7fe f9ca 	bl	8008780 <__swsetup_r>
 800a3ec:	2800      	cmp	r0, #0
 800a3ee:	d09d      	beq.n	800a32c <_vfiprintf_r+0x2c>
 800a3f0:	f04f 30ff 	mov.w	r0, #4294967295	; 0xffffffff
 800a3f4:	b01d      	add	sp, #116	; 0x74
 800a3f6:	e8bd 8ff0 	ldmia.w	sp!, {r4, r5, r6, r7, r8, r9, sl, fp, pc}
 800a3fa:	46a8      	mov	r8, r5
 800a3fc:	e7a2      	b.n	800a344 <_vfiprintf_r+0x44>
 800a3fe:	4a44      	ldr	r2, [pc, #272]	; (800a510 <_vfiprintf_r+0x210>)
 800a400:	1a80      	subs	r0, r0, r2
 800a402:	fa0b f000 	lsl.w	r0, fp, r0
 800a406:	4318      	orrs	r0, r3
 800a408:	9004      	str	r0, [sp, #16]
 800a40a:	4645      	mov	r5, r8
 800a40c:	e7be      	b.n	800a38c <_vfiprintf_r+0x8c>
 800a40e:	9a03      	ldr	r2, [sp, #12]
 800a410:	1d11      	adds	r1, r2, #4
 800a412:	6812      	ldr	r2, [r2, #0]
 800a414:	9103      	str	r1, [sp, #12]
 800a416:	2a00      	cmp	r2, #0
 800a418:	db01      	blt.n	800a41e <_vfiprintf_r+0x11e>
 800a41a:	9207      	str	r2, [sp, #28]
 800a41c:	e004      	b.n	800a428 <_vfiprintf_r+0x128>
 800a41e:	4252      	negs	r2, r2
 800a420:	f043 0302 	orr.w	r3, r3, #2
 800a424:	9207      	str	r2, [sp, #28]
 800a426:	9304      	str	r3, [sp, #16]
 800a428:	f898 3000 	ldrb.w	r3, [r8]
 800a42c:	2b2e      	cmp	r3, #46	; 0x2e
 800a42e:	d10e      	bne.n	800a44e <_vfiprintf_r+0x14e>
 800a430:	f898 3001 	ldrb.w	r3, [r8, #1]
 800a434:	2b2a      	cmp	r3, #42	; 0x2a
 800a436:	d138      	bne.n	800a4aa <_vfiprintf_r+0x1aa>
 800a438:	9b03      	ldr	r3, [sp, #12]
 800a43a:	1d1a      	adds	r2, r3, #4
 800a43c:	681b      	ldr	r3, [r3, #0]
 800a43e:	9203      	str	r2, [sp, #12]
 800a440:	2b00      	cmp	r3, #0
 800a442:	bfb8      	it	lt
 800a444:	f04f 33ff 	movlt.w	r3, #4294967295	; 0xffffffff
 800a448:	f108 0802 	add.w	r8, r8, #2
 800a44c:	9305      	str	r3, [sp, #20]
 800a44e:	4d33      	ldr	r5, [pc, #204]	; (800a51c <_vfiprintf_r+0x21c>)
 800a450:	f898 1000 	ldrb.w	r1, [r8]
 800a454:	2203      	movs	r2, #3
 800a456:	4628      	mov	r0, r5
 800a458:	f7f5 fec2 	bl	80001e0 <memchr>
 800a45c:	b140      	cbz	r0, 800a470 <_vfiprintf_r+0x170>
 800a45e:	2340      	movs	r3, #64	; 0x40
 800a460:	1b40      	subs	r0, r0, r5
 800a462:	fa03 f000 	lsl.w	r0, r3, r0
 800a466:	9b04      	ldr	r3, [sp, #16]
 800a468:	4303      	orrs	r3, r0
 800a46a:	f108 0801 	add.w	r8, r8, #1
 800a46e:	9304      	str	r3, [sp, #16]
 800a470:	f898 1000 	ldrb.w	r1, [r8]
 800a474:	482a      	ldr	r0, [pc, #168]	; (800a520 <_vfiprintf_r+0x220>)
 800a476:	f88d 1028 	strb.w	r1, [sp, #40]	; 0x28
 800a47a:	2206      	movs	r2, #6
 800a47c:	f108 0701 	add.w	r7, r8, #1
 800a480:	f7f5 feae 	bl	80001e0 <memchr>
 800a484:	2800      	cmp	r0, #0
 800a486:	d037      	beq.n	800a4f8 <_vfiprintf_r+0x1f8>
 800a488:	4b26      	ldr	r3, [pc, #152]	; (800a524 <_vfiprintf_r+0x224>)
 800a48a:	bb1b      	cbnz	r3, 800a4d4 <_vfiprintf_r+0x1d4>
 800a48c:	9b03      	ldr	r3, [sp, #12]
 800a48e:	3307      	adds	r3, #7
 800a490:	f023 0307 	bic.w	r3, r3, #7
 800a494:	3308      	adds	r3, #8
 800a496:	9303      	str	r3, [sp, #12]
 800a498:	9b09      	ldr	r3, [sp, #36]	; 0x24
 800a49a:	444b      	add	r3, r9
 800a49c:	9309      	str	r3, [sp, #36]	; 0x24
 800a49e:	e750      	b.n	800a342 <_vfiprintf_r+0x42>
 800a4a0:	fb05 3202 	mla	r2, r5, r2, r3
 800a4a4:	2001      	movs	r0, #1
 800a4a6:	4688      	mov	r8, r1
 800a4a8:	e78a      	b.n	800a3c0 <_vfiprintf_r+0xc0>
 800a4aa:	2300      	movs	r3, #0
 800a4ac:	f108 0801 	add.w	r8, r8, #1
 800a4b0:	9305      	str	r3, [sp, #20]
 800a4b2:	4619      	mov	r1, r3
 800a4b4:	250a      	movs	r5, #10
 800a4b6:	4640      	mov	r0, r8
 800a4b8:	f810 2b01 	ldrb.w	r2, [r0], #1
 800a4bc:	3a30      	subs	r2, #48	; 0x30
 800a4be:	2a09      	cmp	r2, #9
 800a4c0:	d903      	bls.n	800a4ca <_vfiprintf_r+0x1ca>
 800a4c2:	2b00      	cmp	r3, #0
 800a4c4:	d0c3      	beq.n	800a44e <_vfiprintf_r+0x14e>
 800a4c6:	9105      	str	r1, [sp, #20]
 800a4c8:	e7c1      	b.n	800a44e <_vfiprintf_r+0x14e>
 800a4ca:	fb05 2101 	mla	r1, r5, r1, r2
 800a4ce:	2301      	movs	r3, #1
 800a4d0:	4680      	mov	r8, r0
 800a4d2:	e7f0      	b.n	800a4b6 <_vfiprintf_r+0x1b6>
 800a4d4:	ab03      	add	r3, sp, #12
 800a4d6:	9300      	str	r3, [sp, #0]
 800a4d8:	4622      	mov	r2, r4
 800a4da:	4b13      	ldr	r3, [pc, #76]	; (800a528 <_vfiprintf_r+0x228>)
 800a4dc:	a904      	add	r1, sp, #16
 800a4de:	4630      	mov	r0, r6
 800a4e0:	f7fd fc90 	bl	8007e04 <_printf_float>
 800a4e4:	f1b0 3fff 	cmp.w	r0, #4294967295	; 0xffffffff
 800a4e8:	4681      	mov	r9, r0
 800a4ea:	d1d5      	bne.n	800a498 <_vfiprintf_r+0x198>
 800a4ec:	89a3      	ldrh	r3, [r4, #12]
 800a4ee:	065b      	lsls	r3, r3, #25
 800a4f0:	f53f af7e 	bmi.w	800a3f0 <_vfiprintf_r+0xf0>
 800a4f4:	9809      	ldr	r0, [sp, #36]	; 0x24
 800a4f6:	e77d      	b.n	800a3f4 <_vfiprintf_r+0xf4>
 800a4f8:	ab03      	add	r3, sp, #12
 800a4fa:	9300      	str	r3, [sp, #0]
 800a4fc:	4622      	mov	r2, r4
 800a4fe:	4b0a      	ldr	r3, [pc, #40]	; (800a528 <_vfiprintf_r+0x228>)
 800a500:	a904      	add	r1, sp, #16
 800a502:	4630      	mov	r0, r6
 800a504:	f7fd ff34 	bl	8008370 <_printf_i>
 800a508:	e7ec      	b.n	800a4e4 <_vfiprintf_r+0x1e4>
 800a50a:	bf00      	nop
 800a50c:	0800b8e8 	.word	0x0800b8e8
 800a510:	0800ba24 	.word	0x0800ba24
 800a514:	0800b908 	.word	0x0800b908
 800a518:	0800b8c8 	.word	0x0800b8c8
 800a51c:	0800ba2a 	.word	0x0800ba2a
 800a520:	0800ba2e 	.word	0x0800ba2e
 800a524:	08007e05 	.word	0x08007e05
 800a528:	0800a2db 	.word	0x0800a2db

0800a52c <_sbrk_r>:
 800a52c:	b538      	push	{r3, r4, r5, lr}
 800a52e:	4c06      	ldr	r4, [pc, #24]	; (800a548 <_sbrk_r+0x1c>)
 800a530:	2300      	movs	r3, #0
 800a532:	4605      	mov	r5, r0
 800a534:	4608      	mov	r0, r1
 800a536:	6023      	str	r3, [r4, #0]
 800a538:	f7f8 fc3c 	bl	8002db4 <_sbrk>
 800a53c:	1c43      	adds	r3, r0, #1
 800a53e:	d102      	bne.n	800a546 <_sbrk_r+0x1a>
 800a540:	6823      	ldr	r3, [r4, #0]
 800a542:	b103      	cbz	r3, 800a546 <_sbrk_r+0x1a>
 800a544:	602b      	str	r3, [r5, #0]
 800a546:	bd38      	pop	{r3, r4, r5, pc}
 800a548:	20001d50 	.word	0x20001d50

0800a54c <__sread>:
 800a54c:	b510      	push	{r4, lr}
 800a54e:	460c      	mov	r4, r1
 800a550:	f9b1 100e 	ldrsh.w	r1, [r1, #14]
 800a554:	f000 f8e8 	bl	800a728 <_read_r>
 800a558:	2800      	cmp	r0, #0
 800a55a:	bfab      	itete	ge
 800a55c:	6d63      	ldrge	r3, [r4, #84]	; 0x54
 800a55e:	89a3      	ldrhlt	r3, [r4, #12]
 800a560:	181b      	addge	r3, r3, r0
 800a562:	f423 5380 	biclt.w	r3, r3, #4096	; 0x1000
 800a566:	bfac      	ite	ge
 800a568:	6563      	strge	r3, [r4, #84]	; 0x54
 800a56a:	81a3      	strhlt	r3, [r4, #12]
 800a56c:	bd10      	pop	{r4, pc}

0800a56e <__swrite>:
 800a56e:	e92d 41f0 	stmdb	sp!, {r4, r5, r6, r7, r8, lr}
 800a572:	461f      	mov	r7, r3
 800a574:	898b      	ldrh	r3, [r1, #12]
 800a576:	05db      	lsls	r3, r3, #23
 800a578:	4605      	mov	r5, r0
 800a57a:	460c      	mov	r4, r1
 800a57c:	4616      	mov	r6, r2
 800a57e:	d505      	bpl.n	800a58c <__swrite+0x1e>
 800a580:	2302      	movs	r3, #2
 800a582:	2200      	movs	r2, #0
 800a584:	f9b1 100e 	ldrsh.w	r1, [r1, #14]
 800a588:	f000 f868 	bl	800a65c <_lseek_r>
 800a58c:	89a3      	ldrh	r3, [r4, #12]
 800a58e:	f9b4 100e 	ldrsh.w	r1, [r4, #14]
 800a592:	f423 5380 	bic.w	r3, r3, #4096	; 0x1000
 800a596:	81a3      	strh	r3, [r4, #12]
 800a598:	4632      	mov	r2, r6
 800a59a:	463b      	mov	r3, r7
 800a59c:	4628      	mov	r0, r5
 800a59e:	e8bd 41f0 	ldmia.w	sp!, {r4, r5, r6, r7, r8, lr}
 800a5a2:	f000 b817 	b.w	800a5d4 <_write_r>

0800a5a6 <__sseek>:
 800a5a6:	b510      	push	{r4, lr}
 800a5a8:	460c      	mov	r4, r1
 800a5aa:	f9b1 100e 	ldrsh.w	r1, [r1, #14]
 800a5ae:	f000 f855 	bl	800a65c <_lseek_r>
 800a5b2:	1c43      	adds	r3, r0, #1
 800a5b4:	89a3      	ldrh	r3, [r4, #12]
 800a5b6:	bf15      	itete	ne
 800a5b8:	6560      	strne	r0, [r4, #84]	; 0x54
 800a5ba:	f423 5380 	biceq.w	r3, r3, #4096	; 0x1000
 800a5be:	f443 5380 	orrne.w	r3, r3, #4096	; 0x1000
 800a5c2:	81a3      	strheq	r3, [r4, #12]
 800a5c4:	bf18      	it	ne
 800a5c6:	81a3      	strhne	r3, [r4, #12]
 800a5c8:	bd10      	pop	{r4, pc}

0800a5ca <__sclose>:
 800a5ca:	f9b1 100e 	ldrsh.w	r1, [r1, #14]
 800a5ce:	f000 b813 	b.w	800a5f8 <_close_r>
	...

0800a5d4 <_write_r>:
 800a5d4:	b538      	push	{r3, r4, r5, lr}
 800a5d6:	4c07      	ldr	r4, [pc, #28]	; (800a5f4 <_write_r+0x20>)
 800a5d8:	4605      	mov	r5, r0
 800a5da:	4608      	mov	r0, r1
 800a5dc:	4611      	mov	r1, r2
 800a5de:	2200      	movs	r2, #0
 800a5e0:	6022      	str	r2, [r4, #0]
 800a5e2:	461a      	mov	r2, r3
 800a5e4:	f7f8 fb95 	bl	8002d12 <_write>
 800a5e8:	1c43      	adds	r3, r0, #1
 800a5ea:	d102      	bne.n	800a5f2 <_write_r+0x1e>
 800a5ec:	6823      	ldr	r3, [r4, #0]
 800a5ee:	b103      	cbz	r3, 800a5f2 <_write_r+0x1e>
 800a5f0:	602b      	str	r3, [r5, #0]
 800a5f2:	bd38      	pop	{r3, r4, r5, pc}
 800a5f4:	20001d50 	.word	0x20001d50

0800a5f8 <_close_r>:
 800a5f8:	b538      	push	{r3, r4, r5, lr}
 800a5fa:	4c06      	ldr	r4, [pc, #24]	; (800a614 <_close_r+0x1c>)
 800a5fc:	2300      	movs	r3, #0
 800a5fe:	4605      	mov	r5, r0
 800a600:	4608      	mov	r0, r1
 800a602:	6023      	str	r3, [r4, #0]
 800a604:	f7f8 fba1 	bl	8002d4a <_close>
 800a608:	1c43      	adds	r3, r0, #1
 800a60a:	d102      	bne.n	800a612 <_close_r+0x1a>
 800a60c:	6823      	ldr	r3, [r4, #0]
 800a60e:	b103      	cbz	r3, 800a612 <_close_r+0x1a>
 800a610:	602b      	str	r3, [r5, #0]
 800a612:	bd38      	pop	{r3, r4, r5, pc}
 800a614:	20001d50 	.word	0x20001d50

0800a618 <_fstat_r>:
 800a618:	b538      	push	{r3, r4, r5, lr}
 800a61a:	4c07      	ldr	r4, [pc, #28]	; (800a638 <_fstat_r+0x20>)
 800a61c:	2300      	movs	r3, #0
 800a61e:	4605      	mov	r5, r0
 800a620:	4608      	mov	r0, r1
 800a622:	4611      	mov	r1, r2
 800a624:	6023      	str	r3, [r4, #0]
 800a626:	f7f8 fb9c 	bl	8002d62 <_fstat>
 800a62a:	1c43      	adds	r3, r0, #1
 800a62c:	d102      	bne.n	800a634 <_fstat_r+0x1c>
 800a62e:	6823      	ldr	r3, [r4, #0]
 800a630:	b103      	cbz	r3, 800a634 <_fstat_r+0x1c>
 800a632:	602b      	str	r3, [r5, #0]
 800a634:	bd38      	pop	{r3, r4, r5, pc}
 800a636:	bf00      	nop
 800a638:	20001d50 	.word	0x20001d50

0800a63c <_isatty_r>:
 800a63c:	b538      	push	{r3, r4, r5, lr}
 800a63e:	4c06      	ldr	r4, [pc, #24]	; (800a658 <_isatty_r+0x1c>)
 800a640:	2300      	movs	r3, #0
 800a642:	4605      	mov	r5, r0
 800a644:	4608      	mov	r0, r1
 800a646:	6023      	str	r3, [r4, #0]
 800a648:	f7f8 fb9b 	bl	8002d82 <_isatty>
 800a64c:	1c43      	adds	r3, r0, #1
 800a64e:	d102      	bne.n	800a656 <_isatty_r+0x1a>
 800a650:	6823      	ldr	r3, [r4, #0]
 800a652:	b103      	cbz	r3, 800a656 <_isatty_r+0x1a>
 800a654:	602b      	str	r3, [r5, #0]
 800a656:	bd38      	pop	{r3, r4, r5, pc}
 800a658:	20001d50 	.word	0x20001d50

0800a65c <_lseek_r>:
 800a65c:	b538      	push	{r3, r4, r5, lr}
 800a65e:	4c07      	ldr	r4, [pc, #28]	; (800a67c <_lseek_r+0x20>)
 800a660:	4605      	mov	r5, r0
 800a662:	4608      	mov	r0, r1
 800a664:	4611      	mov	r1, r2
 800a666:	2200      	movs	r2, #0
 800a668:	6022      	str	r2, [r4, #0]
 800a66a:	461a      	mov	r2, r3
 800a66c:	f7f8 fb94 	bl	8002d98 <_lseek>
 800a670:	1c43      	adds	r3, r0, #1
 800a672:	d102      	bne.n	800a67a <_lseek_r+0x1e>
 800a674:	6823      	ldr	r3, [r4, #0]
 800a676:	b103      	cbz	r3, 800a67a <_lseek_r+0x1e>
 800a678:	602b      	str	r3, [r5, #0]
 800a67a:	bd38      	pop	{r3, r4, r5, pc}
 800a67c:	20001d50 	.word	0x20001d50

0800a680 <__ascii_mbtowc>:
 800a680:	b082      	sub	sp, #8
 800a682:	b901      	cbnz	r1, 800a686 <__ascii_mbtowc+0x6>
 800a684:	a901      	add	r1, sp, #4
 800a686:	b142      	cbz	r2, 800a69a <__ascii_mbtowc+0x1a>
 800a688:	b14b      	cbz	r3, 800a69e <__ascii_mbtowc+0x1e>
 800a68a:	7813      	ldrb	r3, [r2, #0]
 800a68c:	600b      	str	r3, [r1, #0]
 800a68e:	7812      	ldrb	r2, [r2, #0]
 800a690:	1c10      	adds	r0, r2, #0
 800a692:	bf18      	it	ne
 800a694:	2001      	movne	r0, #1
 800a696:	b002      	add	sp, #8
 800a698:	4770      	bx	lr
 800a69a:	4610      	mov	r0, r2
 800a69c:	e7fb      	b.n	800a696 <__ascii_mbtowc+0x16>
 800a69e:	f06f 0001 	mvn.w	r0, #1
 800a6a2:	e7f8      	b.n	800a696 <__ascii_mbtowc+0x16>

0800a6a4 <memmove>:
 800a6a4:	4288      	cmp	r0, r1
 800a6a6:	b510      	push	{r4, lr}
 800a6a8:	eb01 0302 	add.w	r3, r1, r2
 800a6ac:	d807      	bhi.n	800a6be <memmove+0x1a>
 800a6ae:	1e42      	subs	r2, r0, #1
 800a6b0:	4299      	cmp	r1, r3
 800a6b2:	d00a      	beq.n	800a6ca <memmove+0x26>
 800a6b4:	f811 4b01 	ldrb.w	r4, [r1], #1
 800a6b8:	f802 4f01 	strb.w	r4, [r2, #1]!
 800a6bc:	e7f8      	b.n	800a6b0 <memmove+0xc>
 800a6be:	4283      	cmp	r3, r0
 800a6c0:	d9f5      	bls.n	800a6ae <memmove+0xa>
 800a6c2:	1881      	adds	r1, r0, r2
 800a6c4:	1ad2      	subs	r2, r2, r3
 800a6c6:	42d3      	cmn	r3, r2
 800a6c8:	d100      	bne.n	800a6cc <memmove+0x28>
 800a6ca:	bd10      	pop	{r4, pc}
 800a6cc:	f813 4d01 	ldrb.w	r4, [r3, #-1]!
 800a6d0:	f801 4d01 	strb.w	r4, [r1, #-1]!
 800a6d4:	e7f7      	b.n	800a6c6 <memmove+0x22>

0800a6d6 <__malloc_lock>:
 800a6d6:	4770      	bx	lr

0800a6d8 <__malloc_unlock>:
 800a6d8:	4770      	bx	lr

0800a6da <_realloc_r>:
 800a6da:	b5f8      	push	{r3, r4, r5, r6, r7, lr}
 800a6dc:	4607      	mov	r7, r0
 800a6de:	4614      	mov	r4, r2
 800a6e0:	460e      	mov	r6, r1
 800a6e2:	b921      	cbnz	r1, 800a6ee <_realloc_r+0x14>
 800a6e4:	4611      	mov	r1, r2
 800a6e6:	e8bd 40f8 	ldmia.w	sp!, {r3, r4, r5, r6, r7, lr}
 800a6ea:	f7ff bc33 	b.w	8009f54 <_malloc_r>
 800a6ee:	b922      	cbnz	r2, 800a6fa <_realloc_r+0x20>
 800a6f0:	f7ff fbe2 	bl	8009eb8 <_free_r>
 800a6f4:	4625      	mov	r5, r4
 800a6f6:	4628      	mov	r0, r5
 800a6f8:	bdf8      	pop	{r3, r4, r5, r6, r7, pc}
 800a6fa:	f000 f834 	bl	800a766 <_malloc_usable_size_r>
 800a6fe:	42a0      	cmp	r0, r4
 800a700:	d20f      	bcs.n	800a722 <_realloc_r+0x48>
 800a702:	4621      	mov	r1, r4
 800a704:	4638      	mov	r0, r7
 800a706:	f7ff fc25 	bl	8009f54 <_malloc_r>
 800a70a:	4605      	mov	r5, r0
 800a70c:	2800      	cmp	r0, #0
 800a70e:	d0f2      	beq.n	800a6f6 <_realloc_r+0x1c>
 800a710:	4631      	mov	r1, r6
 800a712:	4622      	mov	r2, r4
 800a714:	f7ff f8dc 	bl	80098d0 <memcpy>
 800a718:	4631      	mov	r1, r6
 800a71a:	4638      	mov	r0, r7
 800a71c:	f7ff fbcc 	bl	8009eb8 <_free_r>
 800a720:	e7e9      	b.n	800a6f6 <_realloc_r+0x1c>
 800a722:	4635      	mov	r5, r6
 800a724:	e7e7      	b.n	800a6f6 <_realloc_r+0x1c>
	...

0800a728 <_read_r>:
 800a728:	b538      	push	{r3, r4, r5, lr}
 800a72a:	4c07      	ldr	r4, [pc, #28]	; (800a748 <_read_r+0x20>)
 800a72c:	4605      	mov	r5, r0
 800a72e:	4608      	mov	r0, r1
 800a730:	4611      	mov	r1, r2
 800a732:	2200      	movs	r2, #0
 800a734:	6022      	str	r2, [r4, #0]
 800a736:	461a      	mov	r2, r3
 800a738:	f7f8 face 	bl	8002cd8 <_read>
 800a73c:	1c43      	adds	r3, r0, #1
 800a73e:	d102      	bne.n	800a746 <_read_r+0x1e>
 800a740:	6823      	ldr	r3, [r4, #0]
 800a742:	b103      	cbz	r3, 800a746 <_read_r+0x1e>
 800a744:	602b      	str	r3, [r5, #0]
 800a746:	bd38      	pop	{r3, r4, r5, pc}
 800a748:	20001d50 	.word	0x20001d50

0800a74c <__ascii_wctomb>:
 800a74c:	b149      	cbz	r1, 800a762 <__ascii_wctomb+0x16>
 800a74e:	2aff      	cmp	r2, #255	; 0xff
 800a750:	bf85      	ittet	hi
 800a752:	238a      	movhi	r3, #138	; 0x8a
 800a754:	6003      	strhi	r3, [r0, #0]
 800a756:	700a      	strbls	r2, [r1, #0]
 800a758:	f04f 30ff 	movhi.w	r0, #4294967295	; 0xffffffff
 800a75c:	bf98      	it	ls
 800a75e:	2001      	movls	r0, #1
 800a760:	4770      	bx	lr
 800a762:	4608      	mov	r0, r1
 800a764:	4770      	bx	lr

0800a766 <_malloc_usable_size_r>:
 800a766:	f851 3c04 	ldr.w	r3, [r1, #-4]
 800a76a:	1f18      	subs	r0, r3, #4
 800a76c:	2b00      	cmp	r3, #0
 800a76e:	bfbc      	itt	lt
 800a770:	580b      	ldrlt	r3, [r1, r0]
 800a772:	18c0      	addlt	r0, r0, r3
 800a774:	4770      	bx	lr
	...

0800a778 <_init>:
 800a778:	b5f8      	push	{r3, r4, r5, r6, r7, lr}
 800a77a:	bf00      	nop
 800a77c:	bcf8      	pop	{r3, r4, r5, r6, r7}
 800a77e:	bc08      	pop	{r3}
 800a780:	469e      	mov	lr, r3
 800a782:	4770      	bx	lr

0800a784 <_fini>:
 800a784:	b5f8      	push	{r3, r4, r5, r6, r7, lr}
 800a786:	bf00      	nop
 800a788:	bcf8      	pop	{r3, r4, r5, r6, r7}
 800a78a:	bc08      	pop	{r3}
 800a78c:	469e      	mov	lr, r3
 800a78e:	4770      	bx	lr
